(dp1
S"friend's"
p2
I2
sS'hanging'
p3
I5
sS'woody'
p4
I1
sS'gabriella'
p5
I1
sS'sevens'
p6
I1
sS'looking'
p7
I22
sS'originality'
p8
I2
sS'flicking'
p9
I1
sS'regional'
p10
I1
sS'byrneson'
p11
I1
sS'stabbed'
p12
I1
sS'screaming'
p13
I4
sS'recollections'
p14
I1
sS'wednesday'
p15
I3
sS'viable'
p16
I1
sS'you8217d'
p17
I4
sS'commented'
p18
I1
sS'furtados'
p19
I1
sS'tired'
p20
I5
sS'miller'
p21
I2
sS'budget'
p22
I2
sS'elegant'
p23
I2
sS'second'
p24
I16
sS'trawling'
p25
I1
sS'roddy'
p26
I1
sS'ruthless'
p27
I1
sS'thunder'
p28
I1
sS'cooking'
p29
I2
sS'fingers'
p30
I2
sS'soulfunk'
p31
I1
sS'pioneering'
p32
I1
sS'widget'
p33
I1
sS'reported'
p34
I1
sS'china'
p35
I5
sS'doesn8217t'
p36
I1
sS'substance'
p37
I1
sS'uplifting'
p38
I1
sS'unwillingness'
p39
I1
sS'elaborate'
p40
I1
sS'reports'
p41
I3
sS'muirhead'
p42
I1
sS'military'
p43
I1
sS'appropriately'
p44
I1
sS'secluded'
p45
I1
sS'explained'
p46
I1
sS'replace'
p47
I1
sS'psychological'
p48
I1
sS'cocaine'
p49
I1
sS'spoke'
p50
I1
sS'catchy'
p51
I4
sS'starscream'
p52
I1
sS'music'
p53
I99
sS'therefore'
p54
I5
sS'strike'
p55
I3
sS'until'
p56
I22
sS'brings'
p57
I2
sS"panto's"
p58
I1
sS'glass'
p59
I4
sS'nightline'
p60
I1
sS'circumstances'
p61
I1
sS'morally'
p62
I1
sS'locked'
p63
I3
sS'stairs'
p64
I1
sS'sweeten'
p65
I1
sS'blade'
p66
I1
sS'concepts'
p67
I1
sS'example'
p68
I4
sS'reviewing'
p69
I1
sS'absolute'
p70
I2
sS'interupting'
p71
I1
sS'complaining'
p72
I1
sS'travel'
p73
I3
sS'feature'
p74
I3
sS'machine'
p75
I4
sS'beauty'
p76
I4
sS'geekflick'
p77
I1
sS'wrong'
p78
I10
sS'destined'
p79
I1
sS'promotion'
p80
I2
sS'types'
p81
I2
sS'effective'
p82
I1
sS'pandya'
p83
I1
sS'modestfreakingmouse'
p84
I1
sS'fictional'
p85
I1
sS'baggage'
p86
I1
sS'arewere'
p87
I1
sS'keeps'
p88
I4
sS'singersongwriter'
p89
I1
sS'dreamed'
p90
I1
sS'murali'
p91
I2
sS'unforeseen'
p92
I1
sS'bringing'
p93
I3
sS'survivors'
p94
I1
sS'dedicate'
p95
I1
sS'wales'
p96
I1
sS'hidden'
p97
I1
sS'easier'
p98
I3
sS'effects'
p99
I10
sS'schools'
p100
I2
sS'noitwasnot'
p101
I1
sS'rumour'
p102
I2
sS'represents'
p103
I3
sS'renditions'
p104
I1
sS'debut'
p105
I2
sS'armoured'
p106
I3
sS'averse'
p107
I1
sS'addicted'
p108
I2
sS'snakes'
p109
I1
sS'series'
p110
I21
sS'spider'
p111
I1
sS"'annihilation"
p112
I2
sS"'wait'll"
p113
I1
sS'swathy'
p114
I1
sS'oprah'
p115
I3
sS'excepting'
p116
I1
sS'mason'
p117
I1
sS'encourage'
p118
I1
sS'donahue'
p119
I3
sS'dogwhistle'
p120
I2
sS'peerreviewed'
p121
I1
sS'foundation'
p122
I3
sS'pumpkins'
p123
I1
sS'spendrails'
p124
I1
sS'snotnosed'
p125
I1
sS'enormous'
p126
I1
sS'professionallooking'
p127
I1
sS'musicians'
p128
I3
sS'competed'
p129
I1
sS"today's"
p130
I2
sS'1970s'
p131
I1
sS'dodgeball'
p132
I1
sS'channels'
p133
I5
sS'spinning'
p134
I1
sS'discworld'
p135
I2
sS'service'
p136
I6
sS'engagement'
p137
I1
sS"'machine"
p138
I1
sS'needed'
p139
I4
sS'master'
p140
I1
sS'listed'
p141
I3
sS'hypothetical'
p142
I1
sS'chugging'
p143
I1
sS'bitter'
p144
I1
sS'listen'
p145
I16
sS"trey's"
p146
I2
sS'predictably'
p147
I1
sS'305x305x35mm'
p148
I1
sS'showed'
p149
I2
sS'leapt'
p150
I1
sS'project'
p151
I5
sS'pneumonia'
p152
I1
sS'endure'
p153
I1
sS'feeling'
p154
I13
sS'nobudget'
p155
I1
sS'rockingsweet'
p156
I1
sS'shittiness'
p157
I1
sS'dozen'
p158
I2
sS'affairs'
p159
I1
sS'person'
p160
I11
sS'responsible'
p161
I2
sS'recommended'
p162
I3
sS'amusing'
p163
I1
sS'doors'
p164
I2
sS'quotps'
p165
I1
sS'welly'
p166
I1
sS'shall'
p167
I2
sS'thrilled'
p168
I3
sS'object'
p169
I2
sS'diminishing'
p170
I1
sS'wells'
p171
I2
sS'victoria'
p172
I1
sS'welli'
p173
I1
sS'letter'
p174
I2
sS'thriller'
p175
I1
sS'morality'
p176
I1
sS'singer'
p177
I10
sS'episode'
p178
I14
sS'grove'
p179
I1
sS'professor'
p180
I1
sS'bittorrent'
p181
I2
sS'scream'
p182
I2
sS'saying'
p183
I8
sS'reactor'
p184
I1
sS'advisors'
p185
I1
sS'waygives'
p186
I1
sS'tempted'
p187
I2
sS'lessons'
p188
I1
sS'touches'
p189
I3
sS'mikheil'
p190
I1
sS'headline'
p191
I3
sS'rihanna'
p192
I1
sS'theme'
p193
I3
sS'touched'
p194
I1
sS'instrumentalist'
p195
I1
sS'plate'
p196
I1
sS'foremost'
p197
I1
sS'pocket'
p198
I4
sS'sniping'
p199
I1
sS'altogether'
p200
I1
sS'contributes'
p201
I1
sS'nicely'
p202
I4
sS'patch'
p203
I1
sS"them'"
p204
I1
sS'piggy'
p205
I1
sS'release'
p206
I12
sS'primadonnas'
p207
I1
sS'generosity'
p208
I1
sS'precluding'
p209
I1
sS'disaster'
p210
I5
sS"bacharach's"
p211
I1
sS'transferred'
p212
I1
sS'radius'
p213
I2
sS'cloning'
p214
I1
sS'hammer'
p215
I1
sS'manson'
p216
I4
sS'wikipedia'
p217
I2
sS'ringo'
p218
I1
sS'score'
p219
I6
sS'scorn'
p220
I1
sS'pirate'
p221
I2
sS'frfinds'
p222
I1
sS'parallels'
p223
I1
sS'nationwide'
p224
I2
sS'nature'
p225
I5
sS'prelocation'
p226
I1
sS'country'
p227
I7
sS'heating'
p228
I2
sS'edgar'
p229
I1
sS'planned'
p230
I2
sS'argue'
p231
I4
sS'adapted'
p232
I2
sS'asked'
p233
I9
sS'auctioned'
p234
I1
sS'braindamagecouk'
p235
I1
sS'muncher'
p236
I1
sS'blending'
p237
I1
sS'humming'
p238
I1
sS'grazing'
p239
I1
sS'contestants'
p240
I1
sS'lighthouse'
p241
I1
sS'angel'
p242
I11
sS'union'
p243
I1
sS'synchronicity'
p244
I2
sS'stadium'
p245
I1
sS'privilege'
p246
I1
sS'superhuman'
p247
I1
sS'sydney'
p248
I7
sS'eastern'
p249
I4
sS"t'shirt"
p250
I1
sS'filmmaker'
p251
I1
sS'child'
p252
I14
sS'worked'
p253
I6
sS'skilfully'
p254
I1
sS'linkin'
p255
I1
sS'brainstorm'
p256
I1
sS'contemplates'
p257
I1
sS'stolencopiedemulated'
p258
I1
sS'selfstyled'
p259
I1
sS'played'
p260
I24
sS'albiet'
p261
I1
sS'letdown'
p262
I1
sS'player'
p263
I3
sS'eighteen'
p264
I1
sS'violin'
p265
I1
sS'memorial'
p266
I1
sS'things'
p267
I31
sS'craigslist'
p268
I2
sS'split'
p269
I2
sS'babies'
p270
I2
sS'elliott'
p271
I1
sS'principals'
p272
I1
sS'european'
p273
I2
sS'fairly'
p274
I8
sS'pesky'
p275
I1
sS'updown'
p276
I1
sS'ownership'
p277
I1
sS'therell'
p278
I1
sS"bikes'"
p279
I1
sS'hokieness'
p280
I1
sS'burgers'
p281
I1
sS'8220november'
p282
I1
sS'technicolor'
p283
I1
sS'opinions'
p284
I2
sS'accourately'
p285
I1
sS'sleeps'
p286
I1
sS'golden'
p287
I4
sS'distribute'
p288
I2
sS'sleepy'
p289
I2
sS'homogeneity'
p290
I1
sS'disguise'
p291
I1
sS'financially'
p292
I1
sS'portrayed'
p293
I2
sS'jumpers'
p294
I1
sS'advancement'
p295
I1
sS'rain8221'
p296
I1
sS'thickening'
p297
I1
sS'collections'
p298
I2
sS'projects'
p299
I5
sS'innocent'
p300
I1
sS'prison'
p301
I3
sS'possible'
p302
I5
sS'possibly'
p303
I6
sS'birth'
p304
I1
sS'shadow'
p305
I1
sS'i8217ve'
p306
I1
sS'bushy'
p307
I1
sS'desire'
p308
I2
sS'masonic'
p309
I1
sS'alice'
p310
I1
sS'remind'
p311
I1
sS'sebastian'
p312
I1
sS'right'
p313
I37
sS'crowd'
p314
I7
sS'people'
p315
I52
sS"'rock"
p316
I1
sS'captive'
p317
I1
sS'billboard'
p318
I3
sS'sociology'
p319
I1
sS'bottom'
p320
I1
sS'creative'
p321
I6
sS'individuals'
p322
I1
sS'shakes'
p323
I2
sS'starring'
p324
I2
sS'memorable'
p325
I1
sS'dollars'
p326
I1
sS'lacked'
p327
I1
sS'slightly'
p328
I6
sS'meddle'
p329
I1
sS'raised'
p330
I3
sS'statements'
p331
I1
sS'mediadisney'
p332
I1
sS'presenters'
p333
I2
sS'valleys'
p334
I1
sS'magazines'
p335
I1
sS'mambo'
p336
I1
sS'waits'
p337
I2
sS'support'
p338
I5
sS'constantly'
p339
I1
sS'grasping'
p340
I1
sS'greatness'
p341
I1
sS'launching'
p342
I3
sS'happy'
p343
I11
sS'offer'
p344
I7
sS'tigers'
p345
I1
sS'paypal'
p346
I1
sS'talents'
p347
I1
sS'tasmania'
p348
I1
sS'congratulations'
p349
I1
sS'silliness'
p350
I1
sS'inside'
p351
I5
sS'devices'
p352
I2
sS'smashed'
p353
I1
sS'later'
p354
I23
sS'proved'
p355
I1
sS'lundy'
p356
I3
sS'tournament'
p357
I1
sS'proven'
p358
I1
sS'negotiations'
p359
I3
sS'peeping'
p360
I18
sS'floor'
p361
I7
sS'actor'
p362
I2
sS'pantshe'
p363
I1
sS'flood'
p364
I1
sS'republic'
p365
I2
sS'ambitious'
p366
I1
sS'jaycut'
p367
I1
sS'smell'
p368
I1
sS'reggae'
p369
I2
sS'intend'
p370
I1
sS'models'
p371
I2
sS'objectify'
p372
I1
sS'rolling'
p373
I1
sS'syncingrocks'
p374
I1
sS'spades'
p375
I2
sS'rockers'
p376
I1
sS'fergie'
p377
I2
sS'broadband'
p378
I1
sS'whoever'
p379
I1
sS'reviewers'
p380
I3
sS'viaduct'
p381
I1
sS"film's"
p382
I3
sS'crocodile'
p383
I1
sS'js7dqs'
p384
I1
sS'jarring'
p385
I1
sS'rousing'
p386
I2
sS'freelance'
p387
I1
sS'obsessively'
p388
I1
sS'veterans'
p389
I1
sS'cheap'
p390
I5
sS'choice'
p391
I4
sS'gloomy'
p392
I1
sS'stays'
p393
I1
sS'fretting'
p394
I1
sS'betterment'
p395
I1
sS'inglis'
p396
I1
sS'minute'
p397
I10
sS'queenstown'
p398
I2
sS'skewed'
p399
I1
sS'leave'
p400
I10
sS'subway'
p401
I1
sS'skewer'
p402
I1
sS'loads'
p403
I5
sS'unaware'
p404
I1
sS'prevent'
p405
I1
sS'spiritual'
p406
I1
sS'48hours'
p407
I6
sS"offender's"
p408
I1
sS'waffletown'
p409
I1
sS'prediction'
p410
I1
sS'erotic'
p411
I1
sS'elton'
p412
I1
sS'reminiscent'
p413
I2
sS'falling'
p414
I1
sS'freaky'
p415
I2
sS'bacchanal'
p416
I1
sS'grandparents'
p417
I1
sS'funeral'
p418
I1
sS'understanding'
p419
I1
sS'contemplate'
p420
I1
sS'upgrade'
p421
I2
sS'address'
p422
I2
sS'alone'
p423
I8
sS'along'
p424
I28
sS'terrence'
p425
I1
sS'neville'
p426
I1
sS'showfilm'
p427
I1
sS'brilliant'
p428
I14
sS'studied'
p429
I1
sS'wherever'
p430
I2
sS'queue'
p431
I1
sS'accomplished'
p432
I1
sS'myers'
p433
I1
sS'reclaim'
p434
I1
sS'rambo'
p435
I2
sS'prefer'
p436
I3
sS'bloody'
p437
I7
sS'marvelous'
p438
I1
sS'bended'
p439
I1
sS'crammed'
p440
I1
sS'working'
p441
I15
sS'peprallies'
p442
I1
sS'positive'
p443
I2
sS'angry'
p444
I2
sS'predictions'
p445
I3
sS'imaginations'
p446
I1
sS'opposed'
p447
I2
sS'bender'
p448
I1
sS'films'
p449
I22
sS'wicked'
p450
I4
sS'introducing'
p451
I2
sS'realnbsp'
p452
I1
sS'cornerposts'
p453
I1
sS'afford'
p454
I1
sS'egyptology'
p455
I2
sS'claus'
p456
I1
sS'minutebyminute'
p457
I1
sS'couldnbsp'
p458
I1
sS'visual'
p459
I1
sS'everywhere'
p460
I1
sS'virtue'
p461
I1
sS'behalf'
p462
I1
sS'ithyphallic'
p463
I1
sS'antigang'
p464
I1
sS'originally'
p465
I2
sS'pretend'
p466
I1
sS'believes'
p467
I2
sS'nether'
p468
I1
sS'printing'
p469
I1
sS'values'
p470
I1
sS'following'
p471
I4
sS'metalcore'
p472
I2
sS"fuckn'"
p473
I1
sS'admired'
p474
I2
sS'awesome'
p475
I11
sS'allowed'
p476
I5
sS'stole'
p477
I2
sS'listens'
p478
I1
sS'winter'
p479
I1
sS'divided'
p480
I1
sS'poking'
p481
I1
sS'immune'
p482
I1
sS'grossed'
p483
I1
sS'applications'
p484
I3
sS'revealed'
p485
I3
sS'natural'
p486
I3
sS'varieties'
p487
I1
sS'freestylers'
p488
I2
sS'pulled'
p489
I3
sS'drunken'
p490
I1
sS'razork'
p491
I1
sS'years'
p492
I41
sS'professors'
p493
I1
sS'course'
p494
I16
sS'episodes'
p495
I17
sS'kanye'
p496
I1
sS'tendency'
p497
I1
sS'splurge'
p498
I1
sS'muses'
p499
I1
sS'amazing'
p500
I14
sS'decreases'
p501
I1
sS'suspicion'
p502
I1
sS'nessie'
p503
I1
sS'suspension'
p504
I1
sS'petition'
p505
I1
sS'instantly'
p506
I1
sS'youplaythatallthetimehannah'
p507
I1
sS'limewire'
p508
I1
sS'dunedinlad'
p509
I1
sS'records'
p510
I7
sS'sorted'
p511
I1
sS'twilight'
p512
I2
sS'maintaining'
p513
I1
sS'matched'
p514
I1
sS"television's"
p515
I1
sS'pierrepoint'
p516
I1
sS'bowling'
p517
I4
sS'quarter'
p518
I2
sS'precipe'
p519
I1
sS'turtle'
p520
I1
sS'square'
p521
I2
sS"webber's"
p522
I1
sS'breakthrough'
p523
I1
sS'entering'
p524
I2
sS'postmillennial'
p525
I2
sS'giddy'
p526
I1
sS'joker'
p527
I1
sS'canvas'
p528
I4
sS'workaholic'
p529
I1
sS'contained'
p530
I1
sS'investigation'
p531
I1
sS'internet'
p532
I8
sS'suggesting'
p533
I1
sS'unnerving'
p534
I1
sS'smalls'
p535
I1
sS'million'
p536
I2
sS'seventh'
p537
I2
sS'sourcestory'
p538
I1
sS'possibility'
p539
I1
sS'quite'
p540
I26
sS'recordings'
p541
I1
sS'complicated'
p542
I1
sS'besides'
p543
I3
sS'stalinistera'
p544
I1
sS'liberally'
p545
I1
sS'fockers'
p546
I1
sS'dunne'
p547
I2
sS'brasil'
p548
I1
sS'dunno'
p549
I3
sS'collapsing'
p550
I1
sS'programming'
p551
I2
sS'modest'
p552
I1
sS'mythic'
p553
I1
sS'impure'
p554
I1
sS'massive'
p555
I4
sS'routes'
p556
I1
sS"'lashed"
p557
I1
sS'intuition'
p558
I1
sS'stanier'
p559
I2
sS'ignored'
p560
I2
sS"wellnoi'drathernotlet'smaybegooutside"
p561
I1
sS'specifically'
p562
I3
sS'radioworks'
p563
I1
sS'chubby'
p564
I1
sS"haneke's"
p565
I1
sS'convent'
p566
I1
sS'structured'
p567
I2
sS'indicate'
p568
I1
sS'twenties'
p569
I1
sS'draft'
p570
I2
sS"'antonello"
p571
I1
sS'williams'
p572
I1
sS'slasher'
p573
I1
sS'devito'
p574
I1
sS'representing'
p575
I2
sS'helsinki'
p576
I1
sS'mayall'
p577
I3
sS'future'
p578
I8
sS'college'
p579
I3
sS'damned'
p580
I1
sS'one8217s'
p581
I1
sS'royalties'
p582
I2
sS'priates'
p583
I1
sS'turned'
p584
I6
sS'locations'
p585
I2
sS'alley'
p586
I1
sS'allen'
p587
I2
sS'turner'
p588
I1
sS'dismissive'
p589
I2
sS'elsewhere'
p590
I2
sS'warriors'
p591
I1
sS'aside'
p592
I1
sS'wanting'
p593
I3
sS'blinding'
p594
I1
sS'beatboxes'
p595
I1
sS'remarks'
p596
I1
sS'hoped'
p597
I1
sS'cenobite'
p598
I1
sS'average'
p599
I1
sS'drive'
p600
I5
sS'crooked'
p601
I1
sS'niceup'
p602
I1
sS'walking'
p603
I3
sS'grard'
p604
I2
sS'illmatched'
p605
I1
sS'beckham'
p606
I1
sS'merit'
p607
I1
sS'angelesbased'
p608
I1
sS'bright'
p609
I2
sS'aggressive'
p610
I1
sS'corbijndirected'
p611
I1
sS'nbspokay'
p612
I1
sS'tears'
p613
I5
sS'going'
p614
I43
sS'blinds'
p615
I1
sS'caroline'
p616
I1
sS'congressional'
p617
I1
sS'carolina'
p618
I1
sS'directed'
p619
I4
sS'atticus'
p620
I1
sS'beatles'
p621
I7
sS'assistant'
p622
I2
sS'minuteish'
p623
I1
sS'mondo'
p624
I1
sS'prime'
p625
I15
sS'resource'
p626
I1
sS'artist'
p627
I7
sS'borrow'
p628
I1
sS'worried'
p629
I1
sS'roger'
p630
I2
sS"could've"
p631
I1
sS'bombs'
p632
I1
sS'whoami'
p633
I1
sS'vision'
p634
I1
sS'enthralled'
p635
I2
sS'keyboard'
p636
I2
sS'anyways'
p637
I1
sS'planet'
p638
I2
sS'harvey'
p639
I1
sS'sites'
p640
I6
sS'refreshed'
p641
I1
sS'decks'
p642
I3
sS'aberration'
p643
I1
sS'screen'
p644
I4
sS'nightrsquos'
p645
I1
sS'supermarket'
p646
I2
sS'spare'
p647
I7
sS'fastslow'
p648
I1
sS'menacing'
p649
I1
sS'busting'
p650
I1
sS'circumference'
p651
I1
sS'bwahaha'
p652
I1
sS'newsnbsp'
p653
I1
sS'homosexuality'
p654
I1
sS'article'
p655
I2
sS'narcissistic'
p656
I1
sS'caring'
p657
I1
sS'gn8217r'
p658
I3
sS'breath'
p659
I3
sS'showtime'
p660
I1
sS'combined'
p661
I3
sS'wants'
p662
I5
sS'enable'
p663
I1
sS"actor's"
p664
I1
sS'thousand'
p665
I2
sS'formed'
p666
I2
sS'readings'
p667
I2
sS'photos'
p668
I9
sS'wilco'
p669
I1
sS'former'
p670
I11
sS'isabella'
p671
I1
sS'prominence'
p672
I1
sS'consulted'
p673
I1
sS'sponsered'
p674
I1
sS'hayes'
p675
I2
sS"edge's"
p676
I1
sS'situation'
p677
I6
sS'spotlight'
p678
I1
sS'penthouse'
p679
I4
sS'winterlong'
p680
I1
sS"fuck'n'aye"
p681
I1
sS'dubious'
p682
I1
sS'ambient'
p683
I1
sS'technology'
p684
I1
sS'drumcentered'
p685
I1
sS'helpfully'
p686
I1
sS'tyners'
p687
I1
sS'damon'
p688
I3
sS'visually'
p689
I1
sS'embedding'
p690
I1
sS'cheeseball'
p691
I1
sS'scribblings'
p692
I1
sS'arden'
p693
I1
sS'cheers'
p694
I4
sS'cullen'
p695
I1
sS'recapture'
p696
I1
sS'awesomeness'
p697
I1
sS'pacino'
p698
I1
sS'nonlight'
p699
I1
sS'coursework'
p700
I1
sS'peculiarities'
p701
I1
sS'costs'
p702
I6
sS'trains'
p703
I1
sS'grumpy'
p704
I1
sS'summer'
p705
I2
sS'hvx200'
p706
I1
sS'being'
p707
I51
sS'bueller'
p708
I1
sS'hayley'
p709
I1
sS'mandolin'
p710
I1
sS'jarred'
p711
I1
sS'instrument'
p712
I3
sS'actors'
p713
I11
sS'starving'
p714
I1
sS'aspects'
p715
I1
sS'around'
p716
I38
sS'catrina'
p717
I1
sS'unedited'
p718
I1
sS'herenbsp'
p719
I1
sS'world'
p720
I46
sS'postal'
p721
I2
sS'vague'
p722
I2
sS'bravery'
p723
I1
sS'sensational'
p724
I1
sS'allreal'
p725
I1
sS'stranger'
p726
I1
sS'overhyped'
p727
I1
sS'antiscience'
p728
I1
sS'seating'
p729
I1
sS'shortly8230'
p730
I1
sS'learning'
p731
I2
sS'gaggle'
p732
I1
sS'profitdriven'
p733
I1
sS'divine'
p734
I2
sS'thinks'
p735
I2
sS"there'll"
p736
I1
sS'cavity'
p737
I3
sS'memories'
p738
I3
sS'afrobeat'
p739
I1
sS'cannabis'
p740
I1
sS'contingent'
p741
I1
sS'power'
p742
I8
sS'intimate'
p743
I1
sS'iconic'
p744
I1
sS'stone'
p745
I3
sS'origins'
p746
I1
sS'hopkins'
p747
I1
sS'industry'
p748
I9
sS'favorite'
p749
I3
sS'johnnys'
p750
I1
sS'luigi'
p751
I1
sS'stony'
p752
I1
sS'image'
p753
I1
sS'leningrad'
p754
I2
sS'2054609'
p755
I1
sS'parties'
p756
I1
sS'portrayal'
p757
I1
sS'technically'
p758
I3
sS'legacy'
p759
I1
sS'philadelphia'
p760
I1
sS'mindless'
p761
I1
sS'slopes'
p762
I1
sS'bubble'
p763
I1
sS'tireless'
p764
I1
sS'complete'
p765
I8
sS'brain'
p766
I4
sS'housewives'
p767
I1
sS'buying'
p768
I1
sS'handsome'
p769
I1
sS'october'
p770
I1
sS'rescuing'
p771
I1
sS'monopoly'
p772
I2
sS'virginwhore'
p773
I1
sS'tripe'
p774
I2
sS'xxxxxxx'
p775
I1
sS'dirty'
p776
I1
sS'agree'
p777
I4
sS'shreck'
p778
I1
sS'darker'
p779
I1
sS'johnny'
p780
I4
sS'certain'
p781
I4
sS'accents'
p782
I2
sS'forgot'
p783
I3
sS'watches'
p784
I1
sS'watcher'
p785
I1
sS'watched'
p786
I9
sS'constabulary'
p787
I1
sS'tight'
p788
I2
sS'8220irs8221'
p789
I1
sS'puppy'
p790
I2
sS'contemporaries'
p791
I2
sS'shaun'
p792
I5
sS'vocabulary'
p793
I1
sS'highfiving'
p794
I1
sS'refunded'
p795
I1
sS'gifts'
p796
I2
sS'karnivool'
p797
I1
sS'carbonite'
p798
I1
sS'terry'
p799
I5
sS'resell'
p800
I1
sS'tricky'
p801
I3
sS'natalie'
p802
I1
sS'preppy'
p803
I1
sS'hello'
p804
I4
sS'nelson'
p805
I1
sS'restricted'
p806
I1
sS'keane'
p807
I1
sS'original'
p808
I10
sS'consider'
p809
I4
sS'cowtown'
p810
I1
sS'zappa'
p811
I1
sS'tours'
p812
I2
sS'windmilling'
p813
I2
sS'reasoning'
p814
I1
sS'causes'
p815
I2
sS'hunting'
p816
I1
sS'clotheared'
p817
I2
sS'8216neal8217'
p818
I1
sS'chewing'
p819
I1
sS'smile'
p820
I5
sS'documentaries'
p821
I1
sS'manageable'
p822
I1
sS'kiwis'
p823
I1
sS'condition'
p824
I2
sS'harro'
p825
I1
sS'cable'
p826
I1
sS'accompanying'
p827
I1
sS'shenanigans'
p828
I1
sS'joined'
p829
I2
sS'large'
p830
I10
sS'dinosaur'
p831
I1
sS'harry'
p832
I2
sS'small'
p833
I9
sS'mammal'
p834
I2
sS'sensical'
p835
I1
sS'shihad'
p836
I3
sS'maggie'
p837
I1
sS'abbreviated'
p838
I1
sS'grease'
p839
I1
sS'displays'
p840
I1
sS'situated'
p841
I1
sS'richard'
p842
I4
sS'section'
p843
I5
sS'fucks'
p844
I1
sS'scientists'
p845
I10
sS'contrast'
p846
I2
sS'hours'
p847
I19
sS'smartest'
p848
I1
sS'ascending'
p849
I1
sS'legend'
p850
I2
sS'deathobsessed'
p851
I1
sS'brutal'
p852
I7
sS'prior'
p853
I3
sS'rahme'
p854
I1
sS'social'
p855
I11
sS'action'
p856
I8
sS'skepticism'
p857
I1
sS'sweetness'
p858
I2
sS'ouimet'
p859
I1
sS"day's"
p860
I1
sS'followed'
p861
I3
sS'strolling'
p862
I1
sS'indoors'
p863
I1
sS'firts'
p864
I1
sS'latinpop'
p865
I1
sS'drew8221'
p866
I1
sS'pearl'
p867
I2
sS'archives'
p868
I1
sS'chucky'
p869
I1
sS'company'
p870
I9
sS'spoilt'
p871
I1
sS'chucks'
p872
I1
sS'lameness'
p873
I1
sS'ittake'
p874
I1
sS'keeping'
p875
I6
sS'damien'
p876
I1
sS'phillip'
p877
I6
sS'chisel'
p878
I1
sS'evolved'
p879
I1
sS'learn'
p880
I2
sS'beautiful'
p881
I5
sS"scott's"
p882
I1
sS'suggestions'
p883
I1
sS'stocked'
p884
I1
sS'accept'
p885
I1
sS'states'
p886
I4
sS'salty'
p887
I1
sS'12000'
p888
I1
sS'sense'
p889
I10
sS'station'
p890
I5
sS'terrypratchettbookscom'
p891
I1
sS"bamako'"
p892
I1
sS'information'
p893
I5
sS'mongolians'
p894
I1
sS'disturbed'
p895
I1
sS'capill'
p896
I1
sS'creature'
p897
I1
sS'plant'
p898
I1
sS'intended'
p899
I5
sS'countryside'
p900
I1
sS'pederast'
p901
I1
sS'closedminded'
p902
I2
sS'soundtrack'
p903
I13
sS'plane'
p904
I1
sS'director'
p905
I11
sS'ethics'
p906
I1
sS'semblance'
p907
I1
sS'malevolent'
p908
I1
sS'havelock'
p909
I1
sS'volleyball'
p910
I1
sS'broadcasting'
p911
I3
sS'deafening'
p912
I1
sS'davey'
p913
I1
sS'greats'
p914
I1
sS'leigh'
p915
I1
sS'mixing'
p916
I1
sS'attitude'
p917
I1
sS'paper'
p918
I5
sS'scott'
p919
I4
sS'replies'
p920
I1
sS'bazouki'
p921
I1
sS'broadway'
p922
I1
sS'roots'
p923
I1
sS'8220religious'
p924
I1
sS'nifty'
p925
I1
sS'isaac'
p926
I1
sS'snobs'
p927
I1
sS'skipped'
p928
I3
sS'sucker'
p929
I1
sS'gadget'
p930
I2
sS'pegasus'
p931
I2
sS'sucked'
p932
I1
sS'always'
p933
I31
sS'yetquot'
p934
I1
sS'labeling'
p935
I1
sS'swimsuit'
p936
I1
sS'found'
p937
I25
sS'shocking'
p938
I3
sS'investigators'
p939
I1
sS'reactions'
p940
I1
sS'england'
p941
I1
sS'metallers'
p942
I2
sS'rockmetal'
p943
I1
sS'investigated'
p944
I1
sS'airconditioned'
p945
I1
sS'blues'
p946
I8
sS'really'
p947
I67
sS'24hours'
p948
I1
sS'wairarapa'
p949
I1
sS'missed'
p950
I5
sS'research'
p951
I5
sS'tiramisu'
p952
I1
sS'offline'
p953
I1
sS'highway'
p954
I2
sS'nervously'
p955
I1
sS'belief'
p956
I2
sS'proxy'
p957
I2
sS'imagine'
p958
I3
sS'driven'
p959
I2
sS'looseness'
p960
I1
sS'ivanvic'
p961
I2
sS'testament'
p962
I1
sS'euphemism'
p963
I1
sS'major'
p964
I11
sS'thereafter'
p965
I1
sS'glenconner'
p966
I2
sS'preservation'
p967
I1
sS'murmured'
p968
I2
sS'mailian'
p969
I1
sS'songsperformances'
p970
I1
sS'stage'
p971
I25
sS"selectors'"
p972
I1
sS'voiceovers'
p973
I1
sS'differ'
p974
I1
sS'heads'
p975
I4
sS'guest'
p976
I3
sS'introduction'
p977
I1
sS'vocalist'
p978
I1
sS'zealot'
p979
I1
sS'relationship'
p980
I4
sS'legalettes'
p981
I1
sS'interviewed'
p982
I4
sS'satirical'
p983
I1
sS'zeppelin'
p984
I2
sS'unrealistic'
p985
I1
sS'grace'
p986
I1
sS'submissively'
p987
I1
sS'vocal'
p988
I1
sS'annihilation'
p989
I3
sS'minimize'
p990
I1
sS'seamlessly'
p991
I2
sS'idolator'
p992
I3
sS'fights'
p993
I1
sS'antarctica'
p994
I1
sS'zealandrsquos'
p995
I1
sS'internal'
p996
I2
sS'sharpe'
p997
I1
sS'commemorated'
p998
I1
sS'brace'
p999
I1
sS'singles'
p1000
I2
sS'swiftly'
p1001
I2
sS'guitar'
p1002
I15
sS'brooklyn'
p1003
I1
sS'funnier'
p1004
I3
sS'storyboarding'
p1005
I3
sS'waikanae'
p1006
I2
sS'sometimes'
p1007
I7
sS'cover'
p1008
I10
sS'artistic'
p1009
I3
sS'bulletin'
p1010
I1
sS'burzum'
p1011
I3
sS'blended'
p1012
I1
sS'cruised'
p1013
I1
sS'swells'
p1014
I1
sS'session'
p1015
I2
sS'naomi'
p1016
I1
sS'overwhelmed'
p1017
I1
sS'blender'
p1018
I1
sS'writer'
p1019
I4
sS'failed'
p1020
I2
sS'wayne'
p1021
I1
sS'cassette'
p1022
I1
sS"alive'"
p1023
I1
sS'gratis'
p1024
I2
sS'sunny'
p1025
I1
sS'youtubelike'
p1026
I1
sS'actress'
p1027
I2
sS'closely'
p1028
I1
sS'compass'
p1029
I3
sS'frightening'
p1030
I4
sS'distraction'
p1031
I1
sS'enemy'
p1032
I1
sS'progressive'
p1033
I1
sS'weaved'
p1034
I1
sS'proclaim'
p1035
I1
sS'river'
p1036
I1
sS'rumored'
p1037
I1
sS'shower'
p1038
I1
sS'seconded'
p1039
I1
sS'movie'
p1040
I41
sS'currently'
p1041
I5
sS'phonenix'
p1042
I1
sS'monsters'
p1043
I2
sS'available'
p1044
I3
sS'narnia'
p1045
I2
sS'spoiled'
p1046
I1
sS'death'
p1047
I25
sS'interface'
p1048
I2
sS'empowering'
p1049
I2
sS'influential'
p1050
I2
sS'barely'
p1051
I1
sS"'ever"
p1052
I1
sS'connection'
p1053
I1
sS'whole'
p1054
I23
sS'regent'
p1055
I1
sS'drunk'
p1056
I3
sS'acted'
p1057
I1
sS'smashing'
p1058
I1
sS'community'
p1059
I5
sS'agents'
p1060
I1
sS'adaptation'
p1061
I1
sS'worthless'
p1062
I1
sS'publishing'
p1063
I1
sS'evoking'
p1064
I1
sS'hitting'
p1065
I2
sS'suburbs'
p1066
I1
sS'extravagant'
p1067
I1
sS'freeview'
p1068
I6
sS'resting'
p1069
I1
sS'raced'
p1070
I1
sS"what's"
p1071
I4
sS'finds'
p1072
I3
sS'spearheaded'
p1073
I2
sS'towns'
p1074
I1
sS'handling'
p1075
I1
sS'uncertain'
p1076
I1
sS'straight'
p1077
I5
sS'expanded'
p1078
I1
sS'existance'
p1079
I1
sS'gnutella'
p1080
I1
sS'hilariously'
p1081
I1
sS'receive'
p1082
I1
sS'duran'
p1083
I2
sS'error'
p1084
I1
sS'weren8217t'
p1085
I1
sS'robin'
p1086
I1
sS"mccartney's"
p1087
I2
sS'hoping'
p1088
I4
sS'backing'
p1089
I2
sS'binding'
p1090
I1
sS'chase'
p1091
I1
sS'funny'
p1092
I11
sS'overlayed'
p1093
I1
sS'omnipotence'
p1094
I1
sS'barnes'
p1095
I1
sS'jihadis'
p1096
I1
sS'knitting'
p1097
I1
sS'flooded'
p1098
I1
sS'duanes'
p1099
I1
sS'viewing'
p1100
I2
sS'levels'
p1101
I1
sS'rabid'
p1102
I2
sS'kring'
p1103
I1
sS'infamous'
p1104
I1
sS'recent'
p1105
I4
sS'dreamcoat'
p1106
I1
sS'kelly'
p1107
I2
sS'crayfish'
p1108
I1
sS'soaked'
p1109
I1
sS'listening'
p1110
I16
sS'readers'
p1111
I7
sS'surprises'
p1112
I1
sS'it8217s'
p1113
I8
sS'fitting'
p1114
I1
sS'parents'
p1115
I4
sS'location'
p1116
I4
sS'crying'
p1117
I2
sS'courtney'
p1118
I1
sS'surprised'
p1119
I3
sS'australia'
p1120
I5
sS'victims'
p1121
I1
sS'format'
p1122
I1
sS'couple'
p1123
I18
sS'imovie'
p1124
I1
sS'shitty'
p1125
I2
sS'quest'
p1126
I1
sS'cuteness'
p1127
I1
sS'richie'
p1128
I1
sS'flannel'
p1129
I1
sS'imposed'
p1130
I2
sS'stylist'
p1131
I2
sS'spine'
p1132
I1
sS'misquote'
p1133
I1
sS'interweb'
p1134
I1
sS'gaiman'
p1135
I3
sS'chorus'
p1136
I5
sS'continue'
p1137
I2
sS'privately'
p1138
I1
sS'lenin'
p1139
I1
sS'methods'
p1140
I1
sS'spring'
p1141
I1
sS'coexecutive'
p1142
I1
sS'bounce'
p1143
I1
sS'sighs'
p1144
I1
sS'mighty'
p1145
I2
sS'sight'
p1146
I2
sS'greener'
p1147
I1
sS'curious'
p1148
I3
sS'mummy'
p1149
I1
sS'novelty'
p1150
I2
sS"prima's"
p1151
I1
sS'agreement'
p1152
I2
sS'nowhere'
p1153
I3
sS'santa'
p1154
I1
sS'anything'
p1155
I12
sS'sacrament'
p1156
I2
sS'melbourne'
p1157
I1
sS'deserves'
p1158
I3
sS'regular'
p1159
I8
sS'stuart'
p1160
I1
sS'mouth'
p1161
I5
sS'dogdoo'
p1162
I1
sS'primarily'
p1163
I1
sS'jonny'
p1164
I1
sS'katie'
p1165
I1
sS'spending'
p1166
I2
sS'exposed'
p1167
I1
sS'submit'
p1168
I1
sS'downloadable'
p1169
I1
sS'bridesmaids'
p1170
I1
sS'opens'
p1171
I4
sS'cornfed'
p1172
I1
sS'jacks'
p1173
I1
sS'relaxed'
p1174
I1
sS'posted'
p1175
I8
sS'fades'
p1176
I1
sS'redeemed'
p1177
I1
sS'yeller'
p1178
I1
sS'chessy'
p1179
I1
sS'paired'
p1180
I1
sS'alarm'
p1181
I2
sS'yelled'
p1182
I1
sS'cruxy'
p1183
I1
sS'8220sweet'
p1184
I1
sS'lightthebluetouchpaper'
p1185
I1
sS'armstrong'
p1186
I1
sS'defined'
p1187
I1
sS'likewise'
p1188
I1
sS'squinted'
p1189
I1
sS'influence'
p1190
I1
sS'haunt'
p1191
I2
sS'coasting'
p1192
I1
sS'diverse'
p1193
I2
sS'defines'
p1194
I1
sS'parados'
p1195
I1
sS'occasional'
p1196
I1
sS'definitely'
p1197
I5
sS'bacharach'
p1198
I1
sS'elements'
p1199
I4
sS'energetic'
p1200
I1
sS'mukpuddy'
p1201
I2
sS'sided'
p1202
I1
sS"nz'ers"
p1203
I1
sS'sides'
p1204
I4
sS'markies'
p1205
I1
sS'holes'
p1206
I3
sS'walked'
p1207
I3
sS'sawyer'
p1208
I1
sS'walker'
p1209
I3
sS'fresh'
p1210
I2
sS'having'
p1211
I27
sS'essay'
p1212
I3
sS'results'
p1213
I4
sS'enjoyable'
p1214
I5
sS'softer'
p1215
I1
sS'gossip'
p1216
I2
sS'flashback'
p1217
I1
sS'churned'
p1218
I2
sS'seemed'
p1219
I10
sS'glows'
p1220
I1
sS'concerned'
p1221
I6
sS'young'
p1222
I11
sS'scarlett'
p1223
I1
sS'uploaded'
p1224
I1
sS'ilife'
p1225
I1
sS'garden'
p1226
I4
sS'continues'
p1227
I1
sS'traumatised'
p1228
I1
sS"pullman's"
p1229
I1
sS'there8217s'
p1230
I2
sS'continued'
p1231
I3
sS'categories'
p1232
I1
sS'magic'
p1233
I2
sS'transmission'
p1234
I1
sS'lynda'
p1235
I1
sS'marry'
p1236
I1
sS"they've"
p1237
I3
sS'fewer'
p1238
I1
sS'visuals'
p1239
I1
sS'steins'
p1240
I1
sS'video'
p1241
I28
sS'business'
p1242
I4
sS'anton'
p1243
I1
sS'expressed'
p1244
I1
sS"holmes'"
p1245
I1
sS'twins'
p1246
I3
sS'flowing'
p1247
I1
sS'scenery'
p1248
I1
sS"simon's"
p1249
I1
sS'volante'
p1250
I1
sS'backsides'
p1251
I1
sS'invented'
p1252
I3
sS'fifteen'
p1253
I5
sS'closing'
p1254
I1
sS'great'
p1255
I51
sS'engage'
p1256
I1
sS'technical'
p1257
I1
sS'involved'
p1258
I8
sS'casino'
p1259
I1
sS'popcorn'
p1260
I1
sS'opinion'
p1261
I4
sS'makes'
p1262
I20
sS'involves'
p1263
I5
sS'thats'
p1264
I14
sS'holmes'
p1265
I1
sS'fractured'
p1266
I5
sS'dustedidolator'
p1267
I1
sS'tools'
p1268
I3
sS'standing'
p1269
I3
sS'excursions'
p1270
I1
sS'recalling'
p1271
I1
sS'whipping'
p1272
I2
sS'doubt'
p1273
I7
sS'irrepressible'
p1274
I1
sS'midday'
p1275
I1
sS'occurred'
p1276
I2
sS'rubbish'
p1277
I1
sS'central'
p1278
I4
sS'promotional'
p1279
I2
sS'charity'
p1280
I4
sS'balls'
p1281
I3
sS'animals'
p1282
I1
sS'retreated'
p1283
I1
sS'rampant'
p1284
I1
sS'challenge'
p1285
I2
sS'noriss'
p1286
I1
sS'cherubic'
p1287
I1
sS'retell'
p1288
I1
sS'drill'
p1289
I1
sS'fulfill'
p1290
I1
sS"grendel's"
p1291
I2
sS'process'
p1292
I4
sS'trumped'
p1293
I1
sS'pieces'
p1294
I7
sS'shuffled'
p1295
I1
sS'reinstated'
p1296
I1
sS'animal'
p1297
I1
sS'120000'
p1298
I2
sS'mysteries'
p1299
I1
sS'comedy'
p1300
I6
sS'establishment'
p1301
I3
sS'paintball'
p1302
I2
sS'depardieu'
p1303
I3
sS'demonstrating'
p1304
I1
sS'okaynbsp'
p1305
I1
sS'airbourne'
p1306
I1
sS'daring'
p1307
I1
sS'realized'
p1308
I1
sS'clarkson'
p1309
I1
sS'robot'
p1310
I2
sS'selectors'
p1311
I2
sS'commodities'
p1312
I1
sS'elemeno'
p1313
I1
sS'allow'
p1314
I2
sS'caliphont'
p1315
I2
sS'swiftyfive'
p1316
I1
sS'boxing'
p1317
I1
sS'brahms'
p1318
I1
sS'producer'
p1319
I3
sS'produces'
p1320
I1
sS'heifetz'
p1321
I1
sS'ladies'
p1322
I3
sS'produced'
p1323
I4
sS'doo8221'
p1324
I1
sS'flopped'
p1325
I1
sS'perfect'
p1326
I7
sS'progeny'
p1327
I1
sS'meantime'
p1328
I1
sS'prosumerlevel'
p1329
I1
sS'prosper'
p1330
I1
sS'newman'
p1331
I4
sS'legendary'
p1332
I2
sS'presidential'
p1333
I1
sS'damian'
p1334
I2
sS'installment'
p1335
I2
sS'intelligent'
p1336
I3
sS"mum's"
p1337
I1
sS'betty'
p1338
I1
sS'truth'
p1339
I5
sS'glasses'
p1340
I2
sS'exacerbated'
p1341
I1
sS'doing'
p1342
I20
sS'sportsman'
p1343
I1
sS"'tomhet'"
p1344
I1
sS'society'
p1345
I4
sS'books'
p1346
I9
sS'thirteen'
p1347
I2
sS'wander'
p1348
I1
sS"'phantom"
p1349
I2
sS'salmonberries'
p1350
I1
sS'borderline'
p1351
I1
sS'dismissal'
p1352
I1
sS'microscope'
p1353
I1
sS'hilarious'
p1354
I3
sS'shakespearian'
p1355
I1
sS'tempo'
p1356
I1
sS'greedy'
p1357
I1
sS'allaction'
p1358
I1
sS'surely'
p1359
I3
sS'chilli'
p1360
I1
sS'could'
p1361
I42
sS'david'
p1362
I4
sS'length'
p1363
I3
sS'timeslot'
p1364
I1
sS'davis'
p1365
I1
sS'platonic'
p1366
I1
sS'blown'
p1367
I2
sS'scene'
p1368
I14
sS'owned'
p1369
I5
sS'jesus'
p1370
I4
sS'samplerdvd'
p1371
I1
sS'blows'
p1372
I1
sS'summaries'
p1373
I2
sS'buoyed'
p1374
I1
sS'legislative'
p1375
I1
sS'finnbeard'
p1376
I1
sS'reference'
p1377
I3
sS'erstwhile'
p1378
I1
sS'strict'
p1379
I1
sS'festival'
p1380
I17
sS'detailing'
p1381
I1
sS'system'
p1382
I6
sS'percussion'
p1383
I1
sS'exhilarating'
p1384
I1
sS'travelled'
p1385
I2
sS'painful'
p1386
I1
sS'interests'
p1387
I1
sS'stomach'
p1388
I1
sS'shouldn8217t'
p1389
I1
sS'gotcha'
p1390
I1
sS'megan'
p1391
I1
sS'depressing'
p1392
I1
sS'burlesque'
p1393
I2
sS'won8217t'
p1394
I1
sS'accompaniment'
p1395
I1
sS'elite'
p1396
I1
sS'warfare'
p1397
I1
sS'sufjan'
p1398
I3
sS'bother'
p1399
I1
sS'extraordinarily'
p1400
I2
sS'listeners'
p1401
I1
sS'orchestrated'
p1402
I1
sS'tortures'
p1403
I1
sS'steer'
p1404
I1
sS'result'
p1405
I9
sS'collecting'
p1406
I1
sS'shrinks'
p1407
I1
sS'viewer'
p1408
I2
sS'cliffhangers'
p1409
I1
sS'fanbase'
p1410
I1
sS'tonight'
p1411
I8
sS'blockbuster'
p1412
I3
sS'clearly'
p1413
I5
sS'viewed'
p1414
I1
sS'dishes'
p1415
I1
sS'mills'
p1416
I1
sS'sinatra'
p1417
I3
sS'subject'
p1418
I4
sS'toughest'
p1419
I1
sS"wicked'"
p1420
I2
sS'courtesy'
p1421
I2
sS'bioshock'
p1422
I4
sS'segment'
p1423
I1
sS'subsequently'
p1424
I2
sS"hellraiser's"
p1425
I1
sS'variousartists'
p1426
I1
sS"you'll"
p1427
I11
sS"firm's"
p1428
I1
sS'painting'
p1429
I3
sS'atmosphere'
p1430
I2
sS'scotty'
p1431
I2
sS'bring'
p1432
I10
sS'bikes'
p1433
I4
sS'lloyd'
p1434
I1
sS'ripoff'
p1435
I1
sS'economist'
p1436
I2
sS'brink'
p1437
I1
sS'decade'
p1438
I1
sS'principal'
p1439
I1
sS'pause'
p1440
I1
sS'should'
p1441
I43
sS'buttons'
p1442
I1
sS'planted'
p1443
I1
sS'riding'
p1444
I1
sS'meant'
p1445
I5
sS'fronde'
p1446
I1
sS'listened'
p1447
I1
sS'statham'
p1448
I1
sS'cranky'
p1449
I1
sS'lucky'
p1450
I2
sS'listener'
p1451
I1
sS'accelerant'
p1452
I1
sS'rapper'
p1453
I3
sS'comprising'
p1454
I1
sS'stuff'
p1455
I17
sS'unfeasible'
p1456
I1
sS'intervening'
p1457
I1
sS'guessing'
p1458
I3
sS"stride'"
p1459
I1
sS'frame'
p1460
I2
sS'horns'
p1461
I2
sS'edition'
p1462
I2
sS'packed'
p1463
I2
sS'superhero'
p1464
I1
sS'extend'
p1465
I2
sS'bossman'
p1466
I1
sS'nuclear'
p1467
I2
sS'galaxz'
p1468
I1
sS'harsher'
p1469
I1
sS'youll'
p1470
I3
sS'email'
p1471
I5
sS'explosive'
p1472
I1
sS'workboy'
p1473
I1
sS'grinspoon'
p1474
I1
sS'ssshhhstealingssshh'
p1475
I1
sS'tantrum'
p1476
I1
sS'figured'
p1477
I3
sS'invited'
p1478
I1
sS'streams'
p1479
I1
sS'malcolm'
p1480
I3
sS'malesnbsp'
p1481
I1
sS'crafted'
p1482
I2
sS'whispering'
p1483
I1
sS'picking'
p1484
I3
sS'poured'
p1485
I1
sS'waste'
p1486
I5
sS'recurring'
p1487
I1
sS'boyden'
p1488
I1
sS'pixies'
p1489
I5
sS'neighbour'
p1490
I1
sS'roasting'
p1491
I1
sS'graphics'
p1492
I2
sS'quotfrankly'
p1493
I1
sS'coldrex'
p1494
I1
sS'runway'
p1495
I1
sS'stuffing'
p1496
I1
sS'britains'
p1497
I1
sS'songwriting'
p1498
I3
sS'excessively'
p1499
I1
sS'mockingbird'
p1500
I1
sS'tattoo'
p1501
I2
sS'lankan'
p1502
I4
sS'novotel'
p1503
I1
sS"goldenhorse's"
p1504
I1
sS'romance'
p1505
I5
sS'matthew'
p1506
I1
sS'painstaking'
p1507
I1
sS'chronicling'
p1508
I1
sS'raymond'
p1509
I1
sS'complemented'
p1510
I1
sS'drink'
p1511
I6
sS'berardinelli'
p1512
I1
sS'mosaic'
p1513
I2
sS'onewatch'
p1514
I1
sS'trudge'
p1515
I1
sS'colour'
p1516
I3
sS'stranglehold'
p1517
I1
sS'yanji'
p1518
I1
sS'flesh'
p1519
I2
sS'moments'
p1520
I10
sS'monsterous'
p1521
I1
sS'rooms'
p1522
I3
sS'8s8c4h'
p1523
I1
sS'commemoration'
p1524
I1
sS'wo6oo'
p1525
I1
sS'crack'
p1526
I1
sS'scoundrel'
p1527
I1
sS'innocents'
p1528
I1
sS'increased'
p1529
I1
sS'government'
p1530
I1
sS'checking'
p1531
I2
sS'biologists'
p1532
I1
sS'smithsonian'
p1533
I1
sS'whispers'
p1534
I1
sS'megalomaniacal'
p1535
I1
sS'retrovertigo'
p1536
I1
sS'crisp'
p1537
I3
sS'trelise'
p1538
I1
sS'onion'
p1539
I2
sS'warned'
p1540
I2
sS'nerves'
p1541
I1
sS'polar'
p1542
I4
sS'underwent'
p1543
I1
sS'portly'
p1544
I1
sS'8220patience8221'
p1545
I1
sS'daylight'
p1546
I2
sS'choosing'
p1547
I1
sS'elitist'
p1548
I2
sS'blonde'
p1549
I2
sS'recognition'
p1550
I1
sS'hipsters'
p1551
I1
sS'disbelief'
p1552
I1
sS'literally'
p1553
I3
sS'avoid'
p1554
I1
sS'afterwork'
p1555
I1
sS'shone'
p1556
I1
sS'passion'
p1557
I4
sS'seasonslong'
p1558
I1
sS'forgiven'
p1559
I1
sS'processionvip'
p1560
I1
sS'blurry'
p1561
I1
sS'biology'
p1562
I2
sS'blowing'
p1563
I1
sS'schedule'
p1564
I6
sS'pressure'
p1565
I1
sS'tomahawk'
p1566
I6
sS'recognises'
p1567
I1
sS'gandalf'
p1568
I1
sS'hiding'
p1569
I2
sS'sister'
p1570
I5
sS'drumming'
p1571
I2
sS'angeles'
p1572
I2
sS'exrailwayboarding'
p1573
I1
sS'sigur'
p1574
I2
sS'seedy'
p1575
I2
sS'clooney'
p1576
I1
sS'documentary'
p1577
I10
sS'software'
p1578
I9
sS'suited'
p1579
I2
sS'booed'
p1580
I1
sS'criticised'
p1581
I1
sS'theyd'
p1582
I1
sS'anymore'
p1583
I1
sS'lamingtons'
p1584
I1
sS'trigger'
p1585
I1
sS'flynn'
p1586
I1
sS'naturally'
p1587
I1
sS'function'
p1588
I1
sS'maori'
p1589
I6
sS'construction'
p1590
I2
sS'count'
p1591
I7
sS'proverbs'
p1592
I1
sS'lovely'
p1593
I6
sS'evident'
p1594
I1
sS'official'
p1595
I1
sS'triumphant'
p1596
I1
sS'frequency'
p1597
I1
sS'distribution'
p1598
I7
sS'threw'
p1599
I3
sS"friggin'"
p1600
I1
sS'you8217ve'
p1601
I2
sS'contribute'
p1602
I1
sS"queen's"
p1603
I2
sS'planting'
p1604
I1
sS'mainlined'
p1605
I1
sS'compared'
p1606
I2
sS'variety'
p1607
I1
sS'salesman'
p1608
I1
sS'centennary'
p1609
I1
sS'witness'
p1610
I1
sS'behold'
p1611
I1
sS'repeat'
p1612
I2
sS'monday'
p1613
I3
sS'dismantle'
p1614
I1
sS"again'"
p1615
I1
sS'chance'
p1616
I5
sS'badass'
p1617
I1
sS'inspiration'
p1618
I4
sS'mozart'
p1619
I1
sS"website's"
p1620
I1
sS'ticketek'
p1621
I1
sS'soporific'
p1622
I1
sS'compete'
p1623
I2
sS'magnetic'
p1624
I1
sS'noisy'
p1625
I1
sS'yikes'
p1626
I1
sS'saved'
p1627
I1
sS'chili'
p1628
I1
sS'relationships'
p1629
I3
sS'endings'
p1630
I2
sS'neighbours'
p1631
I1
sS'averagesized'
p1632
I1
sS'worth'
p1633
I7
sS'blistering'
p1634
I1
sS'blanket'
p1635
I1
sS'dragged'
p1636
I1
sS"women's"
p1637
I1
sS'closeup'
p1638
I1
sS'jacob'
p1639
I3
sS'tickets'
p1640
I4
sS"we'll"
p1641
I4
sS'hisher'
p1642
I1
sS'upload'
p1643
I1
sS'relentlessly'
p1644
I1
sS'delegate'
p1645
I1
sS'reinvent'
p1646
I1
sS'undercover'
p1647
I1
sS'triumph'
p1648
I1
sS"'musical'"
p1649
I1
sS'preacher'
p1650
I1
sS'us47m'
p1651
I1
sS'phoned'
p1652
I1
sS'established'
p1653
I3
sS'above'
p1654
I5
sS'unhand'
p1655
I1
sS'ceilings'
p1656
I1
sS'officially'
p1657
I3
sS'textures'
p1658
I1
sS'pursuit'
p1659
I1
sS'celebration'
p1660
I1
sS'watchers'
p1661
I1
sS'items'
p1662
I3
sS'loomed'
p1663
I1
sS'itunes'
p1664
I1
sS'spooks'
p1665
I1
sS'secure'
p1666
I1
sS'wouldn8217t'
p1667
I1
sS'darlings'
p1668
I1
sS'highly'
p1669
I9
sS'hindsight'
p1670
I1
sS'total'
p1671
I7
sS'gloss'
p1672
I1
sS'negative'
p1673
I1
sS'zeroes'
p1674
I2
sS'tolerated'
p1675
I1
sS'sauvignon'
p1676
I1
sS'award'
p1677
I4
sS'aware'
p1678
I7
sS'physically'
p1679
I1
sS'divorced'
p1680
I1
sS'theories'
p1681
I1
sS'sunnyo'
p1682
I2
sS'videographers'
p1683
I1
sS'gloria'
p1684
I1
sS'initial'
p1685
I1
sS'indie'
p1686
I2
sS'heartless'
p1687
I1
sS'woman'
p1688
I6
sS"disney's"
p1689
I1
sS'madonna'
p1690
I1
sS'betide'
p1691
I1
sS'seattle'
p1692
I1
sS'8220scooby'
p1693
I1
sS'provide'
p1694
I5
sS'interview'
p1695
I5
sS'titillate'
p1696
I2
sS'ordinary'
p1697
I3
sS'beach'
p1698
I7
sS'jiggy'
p1699
I1
sS'revver'
p1700
I1
sS'coined'
p1701
I1
sS'after'
p1702
I58
sS'damaged'
p1703
I1
sS'rockpig'
p1704
I1
sS'complacent'
p1705
I1
sS"'90's"
p1706
I1
sS'hasty'
p1707
I1
sS'appreciate'
p1708
I4
sS'green'
p1709
I5
sS'bressa'
p1710
I2
sS'order'
p1711
I7
sS'greed'
p1712
I2
sS'office'
p1713
I11
sS'devote'
p1714
I2
sS'satisfied'
p1715
I1
sS'storyboards'
p1716
I1
sS'innovative'
p1717
I1
sS'japan'
p1718
I3
sS'somewhere'
p1719
I9
sS'highlights'
p1720
I3
sS'christie'
p1721
I1
sS'production'
p1722
I13
sS'understated'
p1723
I1
sS'encapsulates'
p1724
I1
sS'eventually'
p1725
I3
sS'coffee'
p1726
I1
sS'touring'
p1727
I3
sS'break'
p1728
I5
sS'8220formalist8221'
p1729
I1
sS'electro'
p1730
I1
sS'rocky'
p1731
I6
sS'reasonably'
p1732
I1
sS'rocks'
p1733
I1
sS'crocs'
p1734
I1
sS'costello'
p1735
I1
sS'lifted'
p1736
I1
sS'schemes'
p1737
I2
sS'electronictinged'
p1738
I1
sS'webber'
p1739
I1
sS"hiro's"
p1740
I1
sS'network'
p1741
I7
sS'cameras'
p1742
I1
sS'hooked'
p1743
I2
sS'forty'
p1744
I1
sS'strangers'
p1745
I3
sS'medicine'
p1746
I1
sS'judith'
p1747
I1
sS'meatier'
p1748
I1
sS'gardiner'
p1749
I1
sS'standard'
p1750
I4
sS'admits'
p1751
I2
sS'charityfocusorg'
p1752
I1
sS"people's"
p1753
I1
sS'morass'
p1754
I1
sS"character's"
p1755
I1
sS'dammit'
p1756
I2
sS'recovering'
p1757
I1
sS'created'
p1758
I3
sS'writhing'
p1759
I1
sS'onewebday'
p1760
I2
sS'lousy'
p1761
I1
sS'delicious'
p1762
I2
sS'thoughtfully'
p1763
I1
sS'comic'
p1764
I1
sS'electronic'
p1765
I2
sS'rated'
p1766
I2
sS'overs'
p1767
I1
sS'seduction'
p1768
I2
sS'elevator'
p1769
I1
sS'dumbass'
p1770
I1
sS'flagpole'
p1771
I1
sS'happily'
p1772
I2
sS'docherty'
p1773
I1
sS'wasted'
p1774
I5
sS'toronto'
p1775
I1
sS'melvins'
p1776
I1
sS'fuelled'
p1777
I1
sS'scenes'
p1778
I5
sS'medley'
p1779
I1
sS'historical'
p1780
I2
sS'chiaureli'
p1781
I1
sS'design'
p1782
I6
sS'solely'
p1783
I1
sS"mind's"
p1784
I2
sS'manner'
p1785
I3
sS'accompany'
p1786
I1
sS'contents'
p1787
I1
sS'forced'
p1788
I4
sS'ponder'
p1789
I1
sS'strength'
p1790
I1
sS'genuine'
p1791
I4
sS'latter'
p1792
I1
sS'elseanything'
p1793
I1
sS'forces'
p1794
I1
sS"sebek'"
p1795
I3
sS'prohibitive'
p1796
I1
sS'anatomy'
p1797
I1
sS'involving'
p1798
I1
sS'germany'
p1799
I1
sS'phase'
p1800
I1
sS'animators'
p1801
I1
sS'bracket'
p1802
I1
sS'youngestbrides'
p1803
I1
sS'fitted'
p1804
I1
sS'jobtake'
p1805
I2
sS'brief'
p1806
I3
sS'blumsky'
p1807
I1
sS'lovedmost'
p1808
I1
sS'subtle'
p1809
I1
sS'enjoyed'
p1810
I11
sS'sharks'
p1811
I3
sS'guidance'
p1812
I1
sS'elucidated'
p1813
I1
sS'screening'
p1814
I2
sS"roses'"
p1815
I1
sS'personality'
p1816
I2
sS'endorsements'
p1817
I1
sS'globeshooter'
p1818
I1
sS'onboard'
p1819
I1
sS'covering'
p1820
I1
sS'egregious'
p1821
I1
sS'mysky'
p1822
I5
sS'gears'
p1823
I1
sS'wannabe'
p1824
I1
sS'steal'
p1825
I1
sS'bushwick'
p1826
I1
sS'optimus'
p1827
I16
sS'observed'
p1828
I1
sS'depends'
p1829
I1
sS'cattle'
p1830
I1
sS'discussions'
p1831
I1
sS'miserable'
p1832
I1
sS'frontline'
p1833
I1
sS'techniques'
p1834
I1
sS'asskicker'
p1835
I1
sS'draws'
p1836
I3
sS'gentleman'
p1837
I1
sS'drawn'
p1838
I1
sS'previous'
p1839
I4
sS'misguided'
p1840
I1
sS'shields'
p1841
I1
sS'aphex'
p1842
I2
sS'blighty'
p1843
I1
sS'mahanama'
p1844
I2
sS'handful'
p1845
I2
sS'headliners'
p1846
I1
sS'flashes'
p1847
I1
sS'rutmanis'
p1848
I1
sS'kitchen'
p1849
I1
sS'received'
p1850
I2
sS'climate'
p1851
I1
sS"decapitated's"
p1852
I1
sS'gasped'
p1853
I1
sS'freshest'
p1854
I1
sS'negotiation'
p1855
I2
sS'eyesight'
p1856
I1
sS'tough'
p1857
I2
sS'royal'
p1858
I1
sS'beheaded'
p1859
I1
sS'insiders'
p1860
I1
sS'speak'
p1861
I2
sS'petty'
p1862
I2
sS'trickery'
p1863
I3
sS'businessi'
p1864
I1
sS'duties'
p1865
I1
sS'families'
p1866
I3
sS'beloved'
p1867
I1
sS'excite'
p1868
I1
sS'flybug'
p1869
I1
sS'gracious'
p1870
I1
sS'applied'
p1871
I1
sS'formatting'
p1872
I1
sS"'worse'"
p1873
I1
sS'thrash'
p1874
I1
sS'voice'
p1875
I17
sS'launched'
p1876
I4
sS'mistake'
p1877
I1
sS'audrey'
p1878
I2
sS'birju'
p1879
I1
sS'tugged'
p1880
I1
sS'brilliantly'
p1881
I1
sS'confirmed'
p1882
I2
sS'perform'
p1883
I5
sS'demonstration'
p1884
I1
sS'jerry'
p1885
I2
sS'accumulating'
p1886
I1
sS'advertising'
p1887
I2
sS'wheel'
p1888
I1
sS'independent'
p1889
I5
sS'blamed'
p1890
I1
sS'marxs'
p1891
I1
sS'apreda'
p1892
I4
sS'scenario'
p1893
I2
sS'humble'
p1894
I1
sS'ragged'
p1895
I1
sS'contact'
p1896
I1
sS'musical'
p1897
I29
sS"she'll"
p1898
I2
sS'mingle'
p1899
I1
sS'photo'
p1900
I11
sS'thanks'
p1901
I8
sS'taonga'
p1902
I3
sS'upturned'
p1903
I1
sS'adding'
p1904
I3
sS'poses'
p1905
I1
sS'hills'
p1906
I2
sS'interweave'
p1907
I1
sS'photographer'
p1908
I1
sS'hilly'
p1909
I1
sS'wright'
p1910
I2
sS'shout'
p1911
I1
sS'transformed'
p1912
I1
sS'zillion'
p1913
I1
sS'expelled'
p1914
I11
sS"'better'"
p1915
I1
sS'tranes'
p1916
I1
sS'bastards'
p1917
I1
sS'designers'
p1918
I1
sS'unfortunatly'
p1919
I1
sS'grizzly'
p1920
I1
sS'slouched'
p1921
I1
sS'night'
p1922
I59
sS'security'
p1923
I1
sS'towards'
p1924
I8
sS'golum'
p1925
I1
sS'productions'
p1926
I5
sS'ideal'
p1927
I3
sS'critique'
p1928
I1
sS"'skin'"
p1929
I1
sS'confusing'
p1930
I1
sS'dabrowska'
p1931
I1
sS'comments'
p1932
I4
sS'violinist'
p1933
I5
sS'filming'
p1934
I3
sS'asking'
p1935
I2
sS'honoured'
p1936
I1
sS'denied'
p1937
I4
sS'participation'
p1938
I1
sS'columbus'
p1939
I1
sS'biopic'
p1940
I2
sS'marketing'
p1941
I5
sS'constructive'
p1942
I1
sS'me8230'
p1943
I1
sS'sensationalist'
p1944
I1
sS'tearups'
p1945
I1
sS'trophy'
p1946
I1
sS'petrena'
p1947
I1
sS'newspapers'
p1948
I1
sS'months'
p1949
I10
sS'guiness'
p1950
I1
sS'winehouse'
p1951
I2
sS'wasting'
p1952
I1
sS'bound'
p1953
I3
sS'rendering'
p1954
I1
sS'stumble'
p1955
I1
sS'strangely'
p1956
I1
sS'franknfurter'
p1957
I1
sS'fight'
p1958
I5
sS'quirky'
p1959
I3
sS'becoming'
p1960
I1
sS'hmmmmmmm'
p1961
I1
sS'tearepa'
p1962
I2
sS'absent'
p1963
I1
sS'maximum'
p1964
I2
sS'crystal'
p1965
I1
sS'emotional'
p1966
I6
sS'rialto'
p1967
I4
sS'allday'
p1968
I1
sS'moore'
p1969
I3
sS'scandalous'
p1970
I1
sS'abstract'
p1971
I1
sS'evidence'
p1972
I6
sS'makefunofeverything'
p1973
I1
sS'guessed'
p1974
I1
sS'gibsons'
p1975
I1
sS'archive'
p1976
I1
sS'reality'
p1977
I1
sS'interested'
p1978
I2
sS'holding'
p1979
I4
sS'unwilling'
p1980
I1
sS'scored'
p1981
I1
sS'brothers'
p1982
I1
sS"o'clock"
p1983
I1
sS'juices'
p1984
I2
sS'welcome'
p1985
I1
sS'convincing'
p1986
I1
sS'update'
p1987
I4
sS"let's"
p1988
I3
sS'infomercials'
p1989
I1
sS'scores'
p1990
I3
sS'funerals'
p1991
I1
sS'instrumental'
p1992
I2
sS'paces'
p1993
I1
sS'together'
p1994
I17
sS'loyal'
p1995
I1
sS'lineup'
p1996
I5
sS'songs'
p1997
I48
sS'concept'
p1998
I5
sS'dance'
p1999
I11
sS'jumpcut'
p2000
I1
sS'hdnet'
p2001
I1
sS'grateful'
p2002
I1
sS'battle'
p2003
I1
sS'devoted'
p2004
I1
sS'certainly'
p2005
I7
sS'flash'
p2006
I1
sS'1960skoch'
p2007
I1
sS'permanently'
p2008
I1
sS'underworked'
p2009
I1
sS'rhythm'
p2010
I1
sS'division'
p2011
I2
sS'protective'
p2012
I2
sS'seemingly'
p2013
I1
sS'vegas'
p2014
I2
sS'anonymous'
p2015
I2
sS'kitten'
p2016
I1
sS'trouble'
p2017
I3
sS'blast'
p2018
I1
sS'cybtertronic'
p2019
I1
sS'perceived'
p2020
I2
sS'presented'
p2021
I1
sS'turns'
p2022
I3
sS"finn's"
p2023
I1
sS'guitars'
p2024
I2
sS'crowdsourced'
p2025
I1
sS'revolution'
p2026
I1
sS"electric'"
p2027
I1
sS'discover'
p2028
I2
sS'you8217re'
p2029
I2
sS'rough'
p2030
I1
sS'snipers'
p2031
I1
sS'curse'
p2032
I1
sS'appear'
p2033
I3
sS'assistance'
p2034
I1
sS'havoc'
p2035
I1
sS'uniform'
p2036
I1
sS'shared'
p2037
I1
sS'appeal'
p2038
I4
sS'nakamura'
p2039
I1
sS'collateral'
p2040
I1
sS'unsure'
p2041
I1
sS'perverts'
p2042
I1
sS'downloaded'
p2043
I2
sS"hadn't"
p2044
I2
sS'grabbed'
p2045
I1
sS'teacher'
p2046
I4
sS'change'
p2047
I11
sS'sending'
p2048
I5
sS'flames'
p2049
I1
sS'viewscore'
p2050
I1
sS'trial'
p2051
I1
sS'usually'
p2052
I12
sS'montreal'
p2053
I1
sS'retired'
p2054
I2
sS'extra'
p2055
I2
sS'lending'
p2056
I3
sS'fenzy'
p2057
I1
sS'sincerely'
p2058
I1
sS'mckenna'
p2059
I1
sS'rarely'
p2060
I1
sS'market'
p2061
I4
sS'terminal'
p2062
I2
sS'prove'
p2063
I2
sS'eurhythmics'
p2064
I1
sS'jungle8221'
p2065
I1
sS'angels'
p2066
I2
sS'jayasuriya'
p2067
I1
sS'pyrotechnician'
p2068
I2
sS'nguyen'
p2069
I1
sS'slinks'
p2070
I1
sS'wellers'
p2071
I1
sS'catchphrase'
p2072
I1
sS'indescribable'
p2073
I1
sS'fulton'
p2074
I1
sS'heart'
p2075
I19
sS'dedicated'
p2076
I3
sS'fullon'
p2077
I1
sS'december'
p2078
I2
sS"didn't"
p2079
I20
sS'1980s'
p2080
I1
sS"bird's"
p2081
I1
sS'posing'
p2082
I1
sS'clothing'
p2083
I1
sS'swung'
p2084
I2
sS'760x380x35mm'
p2085
I1
sS'spareroom'
p2086
I1
sS'fortunately'
p2087
I5
sS'discussion'
p2088
I1
sS'means'
p2089
I12
sS'write'
p2090
I9
sS'birdsong'
p2091
I1
sS'goldenera'
p2092
I1
sS'disgusted'
p2093
I1
sS'produce'
p2094
I1
sS'tonite'
p2095
I2
sS'wistful'
p2096
I1
sS'heroes'
p2097
I6
sS'flourish'
p2098
I1
sS'remember'
p2099
I13
sS'whenever'
p2100
I2
sS'candles'
p2101
I3
sS'explicit'
p2102
I1
sS'hadyn'
p2103
I1
sS'typical'
p2104
I2
sS'indeed'
p2105
I4
sS'haircut'
p2106
I1
sS'displayed'
p2107
I3
sS'recordbreaking'
p2108
I1
sS'playful'
p2109
I1
sS'ended'
p2110
I4
sS'still'
p2111
I57
sS'symonds'
p2112
I2
sS"concert'"
p2113
I1
sS'inflicted'
p2114
I1
sS'forms'
p2115
I2
sS'broadcasts'
p2116
I1
sS'artisan'
p2117
I1
sS'introduce'
p2118
I1
sS'norah'
p2119
I2
sS'adrenaline'
p2120
I1
sS'tails'
p2121
I1
sS'respectable'
p2122
I1
sS'servant'
p2123
I1
sS'james'
p2124
I2
sS'intrigued'
p2125
I1
sS'entirely'
p2126
I5
sS'concerts'
p2127
I11
sS'alzheimer39s'
p2128
I2
sS'domain'
p2129
I1
sS'fired'
p2130
I2
sS"another's"
p2131
I1
sS'bradley'
p2132
I1
sS'replay'
p2133
I1
sS'happen'
p2134
I3
sS'calling'
p2135
I4
sS'pills'
p2136
I2
sS'amusement'
p2137
I3
sS'album'
p2138
I82
sS'shown'
p2139
I2
sS'accomplish'
p2140
I1
sS'opened'
p2141
I3
sS'space'
p2142
I12
sS'irony'
p2143
I1
sS'thirst'
p2144
I1
sS'increase'
p2145
I1
sS'navigating'
p2146
I1
sS'pharoah'
p2147
I1
sS'receiving'
p2148
I1
sS'happenings'
p2149
I1
sS'shows'
p2150
I16
sS'toogood'
p2151
I1
sS'screenwriters'
p2152
I1
sS'hanus'
p2153
I1
sS'marina'
p2154
I1
sS'ominous'
p2155
I2
sS'milestones'
p2156
I1
sS'selections'
p2157
I1
sS'deprivation'
p2158
I1
sS'xwhti'
p2159
I1
sS'british'
p2160
I6
sS'honest'
p2161
I3
sS'shelflife'
p2162
I1
sS'invitation'
p2163
I1
sS'styles'
p2164
I1
sS'waititi'
p2165
I1
sS'enertaining'
p2166
I1
sS'blind'
p2167
I4
sS"holiday's"
p2168
I3
sS'impossibly'
p2169
I1
sS'stevens'
p2170
I4
sS'variables'
p2171
I1
sS'yourself'
p2172
I7
sS'lloydwebber'
p2173
I1
sS'15000'
p2174
I1
sS'impossible'
p2175
I2
sS'message'
p2176
I5
sS'tomorrow'
p2177
I5
sS'guitarists'
p2178
I1
sS'sheep'
p2179
I1
sS'sheer'
p2180
I1
sS'checked'
p2181
I6
sS'caught'
p2182
I6
sS'breed'
p2183
I1
sS'remotely'
p2184
I1
sS'joseph'
p2185
I1
sS'desmond'
p2186
I1
sS'national'
p2187
I4
sS'friend'
p2188
I5
sS'subject8230'
p2189
I1
sS'mostly'
p2190
I3
sS'whanau'
p2191
I2
sS'eliminated'
p2192
I1
sS'appreciated'
p2193
I2
sS'television'
p2194
I19
sS'recruit'
p2195
I1
sS'dissed'
p2196
I1
sS'vocals'
p2197
I7
sS'sublime'
p2198
I1
sS'lunches'
p2199
I1
sS'investors'
p2200
I1
sS'premier'
p2201
I1
sS'crossover'
p2202
I1
sS'although8230'
p2203
I1
sS'decapitated'
p2204
I4
sS'trevor'
p2205
I6
sS'distorted'
p2206
I1
sS'breakfast'
p2207
I1
sS'archivestuff'
p2208
I1
sS'basswork'
p2209
I1
sS'veteran'
p2210
I1
sS'scarfaces'
p2211
I1
sS'equipment'
p2212
I1
sS'online'
p2213
I9
sS'objective'
p2214
I1
sS'filmforay'
p2215
I1
sS'begin'
p2216
I3
sS'attractiveness'
p2217
I1
sS'price'
p2218
I3
sS'america'
p2219
I1
sS'forever'
p2220
I3
sS'zooropa'
p2221
I1
sS'sidekick'
p2222
I2
sS'implications'
p2223
I1
sS'slaves'
p2224
I1
sS'professional'
p2225
I3
sS'duplication'
p2226
I2
sS'typically'
p2227
I1
sS'discovered'
p2228
I3
sS'colombo'
p2229
I1
sS'reallife'
p2230
I1
sS'kidby'
p2231
I1
sS'ground'
p2232
I4
sS'nemesis'
p2233
I1
sS'title'
p2234
I8
sS'proportion'
p2235
I1
sS'texture'
p2236
I1
sS'teasingpadding'
p2237
I2
sS'chopin'
p2238
I1
sS'cannon'
p2239
I1
sS'samuel'
p2240
I1
sS'truly'
p2241
I5
sS'honours'
p2242
I1
sS'celebrate'
p2243
I3
sS'runied'
p2244
I1
sS'leather'
p2245
I1
sS'losers'
p2246
I2
sS'concert'
p2247
I16
sS'burst'
p2248
I2
sS'less8230'
p2249
I1
sS'committed'
p2250
I1
sS'39stroke39quot'
p2251
I1
sS'actively'
p2252
I1
sS'sport'
p2253
I1
sS'concern'
p2254
I1
sS'suspects'
p2255
I2
sS'jeetan'
p2256
I1
sS'fascinated'
p2257
I1
sS'belluci'
p2258
I1
sS'justifies'
p2259
I1
sS'colours'
p2260
I1
sS'complexion'
p2261
I1
sS'between'
p2262
I13
sS'pokerstars'
p2263
I2
sS'whipped'
p2264
I1
sS'notice'
p2265
I4
sS'garde'
p2266
I1
sS'pluck'
p2267
I1
sS'blame'
p2268
I2
sS'hendrix'
p2269
I4
sS'hurts'
p2270
I1
sS'comeback'
p2271
I2
sS'wetaholics'
p2272
I1
sS'horrifying'
p2273
I1
sS'talented'
p2274
I4
sS'bodega'
p2275
I1
sS'setpiece'
p2276
I1
sS'downtrodden'
p2277
I1
sS'comet'
p2278
I1
sS'comes'
p2279
I15
sS'shamefully'
p2280
I1
sS'madness'
p2281
I2
sS'jeans'
p2282
I1
sS'inexplicably'
p2283
I1
sS"couldn't"
p2284
I3
sS'disgrace'
p2285
I2
sS'slogger'
p2286
I2
sS'charismatic'
p2287
I1
sS'oliver'
p2288
I1
sS'informed'
p2289
I2
sS'carey'
p2290
I1
sS'disclosing'
p2291
I1
sS'discontinuing'
p2292
I1
sS'elvis'
p2293
I10
sS'comedyspot'
p2294
I1
sS'elvin'
p2295
I1
sS'directorproducereditorallround'
p2296
I1
sS'johansen'
p2297
I1
sS'developing'
p2298
I1
sS'trick'
p2299
I2
sS'dregs'
p2300
I1
sS'celtx'
p2301
I2
sS'landslide'
p2302
I1
sS'coolest'
p2303
I1
sS'alcoholic'
p2304
I1
sS'figurines'
p2305
I1
sS'equal'
p2306
I1
sS'canceled'
p2307
I2
sS'embrace'
p2308
I2
sS'heels'
p2309
I1
sS'thrills'
p2310
I1
sS'worry'
p2311
I1
sS'retreading'
p2312
I1
sS'risqu'
p2313
I1
sS'media'
p2314
I16
sS'inquiry'
p2315
I2
sS'figures'
p2316
I2
sS"photo's"
p2317
I1
sS'extravaganza'
p2318
I1
sS'finish'
p2319
I4
sS'thunderbolt'
p2320
I1
sS'closest'
p2321
I2
sS'enjoyment'
p2322
I1
sS'drawleddelivery'
p2323
I1
sS'here8217s'
p2324
I1
sS'tradition'
p2325
I1
sS'miscellany'
p2326
I1
sS'mediasilo'
p2327
I1
sS'starbucks'
p2328
I1
sS'heaps'
p2329
I5
sS'avary'
p2330
I2
sS'livestock'
p2331
I1
sS'generally'
p2332
I3
sS'dancers'
p2333
I4
sS'shouts'
p2334
I1
sS'growled'
p2335
I1
sS'22stone'
p2336
I1
sS'touch'
p2337
I6
sS'speed'
p2338
I2
sS'mingling'
p2339
I1
sS'sheldon'
p2340
I1
sS'euros'
p2341
I1
sS'thinking'
p2342
I12
sS'verse'
p2343
I3
sS'dramatisation'
p2344
I1
sS'struck'
p2345
I1
sS'nielsen'
p2346
I1
sS'spectacular'
p2347
I1
sS'onscreen'
p2348
I1
sS'rules'
p2349
I3
sS'cbcsportsca'
p2350
I2
sS'gonna'
p2351
I1
sS'early'
p2352
I15
sS'politely'
p2353
I1
sS'using'
p2354
I9
sS'execution'
p2355
I1
sS'rebecca'
p2356
I3
sS'ruled'
p2357
I1
sS'fortune'
p2358
I3
sS'pounds'
p2359
I1
sS'collective'
p2360
I2
sS'dotsubcom'
p2361
I1
sS'thrower'
p2362
I1
sS'fully'
p2363
I2
sS'downward'
p2364
I1
sS'gladwrap'
p2365
I1
sS'greenery'
p2366
I1
sS'exposes'
p2367
I1
sS'guillermo'
p2368
I1
sS'viral'
p2369
I1
sS'dancefloor'
p2370
I3
sS'tamariki'
p2371
I1
sS'willis'
p2372
I1
sS'recorded'
p2373
I5
sS'conservative'
p2374
I1
sS'hustle'
p2375
I1
sS'ainsley'
p2376
I1
sS'studentfilmmakers'
p2377
I1
sS"competition's"
p2378
I1
sS'sixth'
p2379
I3
sS'chefs'
p2380
I1
sS'tearer'
p2381
I1
sS'exciting'
p2382
I3
sS'throw'
p2383
I3
sS'comparison'
p2384
I3
sS'beseeches'
p2385
I1
sS'hiatus'
p2386
I1
sS'boldly'
p2387
I1
sS'mugging'
p2388
I1
sS'greatly'
p2389
I1
sS'odubprofessor'
p2390
I1
sS'invested'
p2391
I1
sS'sketches'
p2392
I3
sS'decimation'
p2393
I1
sS'inclusion'
p2394
I1
sS'thenbegins'
p2395
I1
sS'latenight'
p2396
I1
sS'macca'
p2397
I2
sS'shrinking'
p2398
I1
sS'stare'
p2399
I1
sS'prepare'
p2400
I1
sS'barch'
p2401
I1
sS'start'
p2402
I14
sS'stars'
p2403
I7
sS'starr'
p2404
I1
sS'time8221'
p2405
I1
sS'stary'
p2406
I1
sS'assumes'
p2407
I1
sS'jones'
p2408
I3
sS'philosophers'
p2409
I2
sS'trying'
p2410
I11
sS'embedded'
p2411
I1
sS'intermission'
p2412
I1
sS'2003s'
p2413
I1
sS'freddy'
p2414
I1
sS'sadness'
p2415
I1
sS'tones'
p2416
I1
sS'describe'
p2417
I7
sS'moved'
p2418
I3
sS'sales'
p2419
I1
sS"plan's"
p2420
I1
sS'valid'
p2421
I1
sS'fools'
p2422
I2
sS'suites'
p2423
I1
sS'hiini'
p2424
I1
sS'carpenter'
p2425
I1
sS'exended'
p2426
I1
sS'coverage'
p2427
I3
sS'building'
p2428
I4
sS'chords'
p2429
I2
sS"'toward"
p2430
I1
sS'embracing'
p2431
I1
sS'overseas'
p2432
I3
sS'strings'
p2433
I2
sS"ward's"
p2434
I1
sS'ceases'
p2435
I1
sS'month'
p2436
I20
sS'ceased'
p2437
I1
sS'thoughtful'
p2438
I1
sS'publish'
p2439
I1
sS'managed'
p2440
I13
sS'glenfield'
p2441
I1
sS'religious'
p2442
I2
sS'carpet'
p2443
I2
sS'dreadful'
p2444
I7
sS'referring'
p2445
I1
sS'auckland'
p2446
I12
sS'foster'
p2447
I1
sS'napoleon'
p2448
I1
sS'sustain'
p2449
I1
sS'savenetradio'
p2450
I2
sS'confidential'
p2451
I2
sS'horror'
p2452
I3
sS'theyve'
p2453
I1
sS'minded'
p2454
I1
sS'decide'
p2455
I3
sS'heaven'
p2456
I1
sS'louis'
p2457
I2
sS'theaters'
p2458
I1
sS'fence'
p2459
I2
sS'streets'
p2460
I1
sS'promoter'
p2461
I1
sS'shadwell'
p2462
I1
sS'conscience'
p2463
I1
sS'darkness'
p2464
I3
sS'stalin'
p2465
I2
sS'witnesses'
p2466
I1
sS'noticehow'
p2467
I1
sS'learned'
p2468
I1
sS'unsurprisingly'
p2469
I2
sS'loose'
p2470
I3
sS'answers'
p2471
I2
sS'tracks'
p2472
I10
sS'anticipation'
p2473
I4
sS'excess'
p2474
I1
sS'strong'
p2475
I1
sS'arena'
p2476
I3
sS'ahead'
p2477
I5
sS'inspired'
p2478
I5
sS'reason'
p2479
I11
sS'adjectives'
p2480
I1
sS'arent'
p2481
I1
sS'musically'
p2482
I4
sS'inspires'
p2483
I2
sS'romcoms'
p2484
I1
sS'uniquely'
p2485
I1
sS'shuffle'
p2486
I3
sS'family'
p2487
I12
sS'handsoundcheck'
p2488
I1
sS'saccharine'
p2489
I1
sS'wwwexpelledthemoviecom'
p2490
I1
sS'takes'
p2491
I5
sS'revelation'
p2492
I4
sS'contains'
p2493
I3
sS'taken'
p2494
I8
sS'injury'
p2495
I1
sS"nightwish's"
p2496
I1
sS'surprisingly'
p2497
I2
sS'portman'
p2498
I1
sS'excuse'
p2499
I1
sS'hurry'
p2500
I1
sS'producing'
p2501
I2
sS'underwhelming'
p2502
I1
sS'coalition'
p2503
I1
sS'offended'
p2504
I1
sS'history'
p2505
I6
sS'visage'
p2506
I1
sS"'wishmaster'"
p2507
I1
sS'onpoint'
p2508
I1
sS'phrase'
p2509
I2
sS'species'
p2510
I1
sS'firmly'
p2511
I1
sS'clarke'
p2512
I1
sS'stayed'
p2513
I3
sS'menus'
p2514
I1
sS'individualistic'
p2515
I1
sS'litmajors'
p2516
I1
sS'carch'
p2517
I1
sS'tried'
p2518
I6
sS'sneak'
p2519
I1
sS'tries'
p2520
I2
sS'terrorist'
p2521
I1
sS'inconceivable'
p2522
I1
sS'excitment'
p2523
I1
sS'32yearold'
p2524
I1
sS'spectre'
p2525
I1
sS"tarja's"
p2526
I1
sS'deterioration'
p2527
I1
sS'159000'
p2528
I1
sS'dream'
p2529
I8
sS'crafty'
p2530
I1
sS'hierarchy'
p2531
I1
sS'nastassja'
p2532
I2
sS'committee'
p2533
I1
sS'jazzinstrumental'
p2534
I1
sS'oldschool'
p2535
I1
sS'markie'
p2536
I1
sS'shotty'
p2537
I1
sS'actually'
p2538
I33
sS'absence'
p2539
I1
sS'tumbling'
p2540
I1
sS"haven't"
p2541
I12
sS'evening'
p2542
I5
sS'curtis'
p2543
I1
sS'wheelspinning'
p2544
I1
sS'anticipated'
p2545
I1
sS"you've"
p2546
I10
sS'sweeping'
p2547
I1
sS"tvnz's"
p2548
I1
sS'bryan'
p2549
I2
sS'veering'
p2550
I1
sS'alford'
p2551
I3
sS'stopped'
p2552
I1
sS'preipod'
p2553
I1
sS'fairy'
p2554
I1
sS"isn't"
p2555
I15
sS'heavy'
p2556
I2
sS'beyond'
p2557
I6
sS'absurdity'
p2558
I1
sS'event'
p2559
I11
sS'lineouts'
p2560
I1
sS'attendance'
p2561
I1
sS'robert'
p2562
I4
sS'since'
p2563
I21
sS'superdope'
p2564
I1
sS'jolly'
p2565
I2
sS'safety'
p2566
I1
sS'blanc'
p2567
I1
sS'issue'
p2568
I2
sS'timeline'
p2569
I1
sS'ponderous'
p2570
I1
sS'houses'
p2571
I2
sS'mathy'
p2572
I1
sS'heroin'
p2573
I1
sS'ultimatium'
p2574
I1
sS'hapless'
p2575
I1
sS'speculation'
p2576
I1
sS'heroic'
p2577
I1
sS'terrible'
p2578
I1
sS'terribly'
p2579
I1
sS'american'
p2580
I6
sS'expecting'
p2581
I2
sS'partnerships'
p2582
I1
sS'pattons'
p2583
I10
sS'soundscapes'
p2584
I1
sS'reflected'
p2585
I1
sS'experiencejob'
p2586
I1
sS'horse'
p2587
I2
sS'mightly'
p2588
I1
sS'transcendent'
p2589
I3
sS'identity'
p2590
I1
sS'scheme'
p2591
I2
sS'banana'
p2592
I2
sS'bowed'
p2593
I1
sS'selling'
p2594
I1
sS'storm'
p2595
I1
sS'norma'
p2596
I4
sS'overdrive'
p2597
I1
sS'albums'
p2598
I39
sS'apprentice'
p2599
I1
sS'performers'
p2600
I2
sS'collaborations'
p2601
I3
sS'heavyweight'
p2602
I1
sS'finances'
p2603
I1
sS'utopia'
p2604
I2
sS'toward'
p2605
I4
sS'alongside'
p2606
I3
sS'juicy'
p2607
I1
sS'concentration'
p2608
I2
sS'chook'
p2609
I9
sS'chaffers'
p2610
I1
sS'auctioneer'
p2611
I1
sS"angel's"
p2612
I2
sS'aired'
p2613
I1
sS'experienced'
p2614
I2
sS'quoti'
p2615
I1
sS'quote'
p2616
I2
sS'hired'
p2617
I1
sS'experiences'
p2618
I1
sS'fridges'
p2619
I2
sS'comparisons'
p2620
I1
sS'privatised'
p2621
I1
sS'muscle'
p2622
I1
sS'snobslut'
p2623
I1
sS'mobile'
p2624
I2
sS'performances'
p2625
I4
sS'clear'
p2626
I6
sS'ziggy'
p2627
I1
sS'heres'
p2628
I3
sS'clean'
p2629
I3
sS'latest'
p2630
I6
sS'blend'
p2631
I8
sS'postproduction'
p2632
I1
sS'phenomenon'
p2633
I1
sS'stunned'
p2634
I2
sS'twoyear'
p2635
I1
sS'celebrities'
p2636
I1
sS"'everyone"
p2637
I1
sS'velvety'
p2638
I1
sS'stores'
p2639
I1
sS'distressing'
p2640
I1
sS'current'
p2641
I6
sS'hailed'
p2642
I1
sS'northern'
p2643
I3
sS'justice'
p2644
I2
sS'randy'
p2645
I5
sS'pretty'
p2646
I43
sS'lennon'
p2647
I4
sS'circle'
p2648
I5
sS'waterproof'
p2649
I1
sS'domestic'
p2650
I2
sS'famous'
p2651
I3
sS'feels'
p2652
I8
sS'pretending'
p2653
I1
sS'during'
p2654
I16
sS'alexander'
p2655
I1
sS'skycity'
p2656
I1
sS'perfume'
p2657
I1
sS'glover'
p2658
I1
sS'patriotism'
p2659
I1
sS'throwing'
p2660
I2
sS'schizophrenic'
p2661
I1
sS'manning'
p2662
I3
sS'portrait'
p2663
I1
sS'embarking'
p2664
I1
sS'mckay'
p2665
I1
sS'pictures'
p2666
I7
sS'familiarity'
p2667
I1
sS'probably'
p2668
I16
sS'pictured'
p2669
I2
sS'missing'
p2670
I4
sS'spray'
p2671
I1
sS'genre'
p2672
I8
sS'collaborators'
p2673
I3
sS'garrison'
p2674
I1
sS"wouldn't"
p2675
I9
sS'forgotten'
p2676
I3
sS'rodgers'
p2677
I1
sS'experimental'
p2678
I5
sS'liked'
p2679
I10
sS'fasttrack'
p2680
I1
sS'headed'
p2681
I2
sS'manners'
p2682
I1
sS'whatever'
p2683
I6
sS'likes'
p2684
I5
sS'linux'
p2685
I1
sS'catwalk'
p2686
I1
sS'described'
p2687
I2
sS'describes'
p2688
I2
sS'feelgood'
p2689
I1
sS'walter'
p2690
I1
sS'sanders'
p2691
I1
sS'lived'
p2692
I1
sS'storylines'
p2693
I2
sS'anthony'
p2694
I1
sS'lives'
p2695
I4
sS'compromised'
p2696
I1
sS'bidding'
p2697
I2
sS'intriguing'
p2698
I1
sS'socialist'
p2699
I1
sS'while'
p2700
I62
sS'smart'
p2701
I3
sS'animated'
p2702
I2
sS'guide'
p2703
I2
sS'erupting'
p2704
I1
sS'costly'
p2705
I1
sS'funded'
p2706
I1
sS'caravanlover'
p2707
I1
sS'ready'
p2708
I4
sS'cumbersome'
p2709
I1
sS'cottoned'
p2710
I1
sS'grant'
p2711
I1
sS'belong'
p2712
I1
sS'grand'
p2713
I7
sS'unstylish'
p2714
I1
sS'composition'
p2715
I2
sS'conflict'
p2716
I1
sS'temporary'
p2717
I1
sS'bonus'
p2718
I5
sS'banter'
p2719
I1
sS'cleaning'
p2720
I2
sS'rockabilly'
p2721
I1
sS'haunting'
p2722
I1
sS'plugs'
p2723
I1
sS'beowulf'
p2724
I14
sS'underlies'
p2725
I1
sS'obviously'
p2726
I11
sS'dryer'
p2727
I1
sS'chronicles'
p2728
I2
sS'crispin'
p2729
I1
sS'chore'
p2730
I1
sS'chord'
p2731
I1
sS'silence8217'
p2732
I1
sS'teenage'
p2733
I1
sS'reviewed'
p2734
I2
sS'guaranteed'
p2735
I1
sS'exercising'
p2736
I1
sS'barkin'
p2737
I1
sS'guarantees'
p2738
I1
sS'denison'
p2739
I2
sS'cheryl'
p2740
I4
sS'march'
p2741
I3
sS'lacking'
p2742
I1
sS'showing'
p2743
I2
sS'galatos'
p2744
I1
sS'wings'
p2745
I1
sS'outright'
p2746
I1
sS'finnish'
p2747
I1
sS'donny'
p2748
I1
sS"sedate'"
p2749
I2
sS'translated'
p2750
I1
sS'airedand'
p2751
I1
sS'mathematical'
p2752
I1
sS'perked'
p2753
I1
sS'sketch'
p2754
I1
sS'parade'
p2755
I1
sS'farkin'
p2756
I1
sS'showgrounds'
p2757
I1
sS'economic'
p2758
I1
sS'pathetically'
p2759
I1
sS'lifelike'
p2760
I1
sS'delivered'
p2761
I1
sS'describing'
p2762
I1
sS"two's"
p2763
I1
sS'slash'
p2764
I1
sS'slapstick'
p2765
I1
sS'psycroptic'
p2766
I4
sS'eating'
p2767
I2
sS'booklet'
p2768
I1
sS'nelly'
p2769
I2
sS'become'
p2770
I6
sS'plots'
p2771
I2
sS'abroad'
p2772
I1
sS'shine'
p2773
I2
sS'faith'
p2774
I12
sS'wouldnt'
p2775
I8
sS'deepandmeaningfuls'
p2776
I1
sS'shins'
p2777
I1
sS'messaging'
p2778
I1
sS'classics'
p2779
I2
sS'shiny'
p2780
I1
sS'bloch'
p2781
I1
sS'silence'
p2782
I1
sS'seeing'
p2783
I10
sS'kanter'
p2784
I1
sS'within'
p2785
I4
sS'withit'
p2786
I1
sS'carlton'
p2787
I1
sS'alison'
p2788
I1
sS'statistics'
p2789
I1
sS'badfeelingsgone'
p2790
I1
sS'bangladesh'
p2791
I1
sS'thirtyeighth'
p2792
I1
sS'footage'
p2793
I6
sS'himself'
p2794
I5
sS'wondering'
p2795
I3
sS'collapsed'
p2796
I1
sS'frost'
p2797
I1
sS'properly'
p2798
I1
sS'puzzel'
p2799
I1
sS'authority'
p2800
I5
sS'russian'
p2801
I2
sS'amateurish'
p2802
I1
sS'ceremonies'
p2803
I1
sS'skull'
p2804
I1
sS'restarted'
p2805
I1
sS'grinch'
p2806
I1
sS'politic'
p2807
I1
sS'loving'
p2808
I2
sS'chelsea'
p2809
I1
sS'ordered'
p2810
I2
sS'mindful'
p2811
I1
sS'willed'
p2812
I1
sS'there39s'
p2813
I1
sS'wutang'
p2814
I1
sS'psychopath'
p2815
I1
sS'amounts'
p2816
I2
sS'fears'
p2817
I1
sS'nabbed'
p2818
I1
sS'application'
p2819
I2
sS'politicians'
p2820
I1
sS'department'
p2821
I2
sS'apparent'
p2822
I1
sS'fleshnbsp'
p2823
I1
sS'william'
p2824
I3
sS"metal'"
p2825
I2
sS'restrained'
p2826
I1
sS'practically'
p2827
I1
sS'evilly'
p2828
I1
sS'youtube'
p2829
I5
sS'clenched'
p2830
I1
sS'depth'
p2831
I2
sS'heats'
p2832
I1
sS'bribe'
p2833
I1
sS"she's"
p2834
I12
sS'underrated'
p2835
I1
sS'requires'
p2836
I1
sS'sounded'
p2837
I1
sS'mores'
p2838
I2
sS'aquires'
p2839
I1
sS'cheerful'
p2840
I2
sS'sexualitynbsp'
p2841
I1
sS'baron'
p2842
I1
sS'wizard'
p2843
I1
sS"mimpson's"
p2844
I1
sS'suite'
p2845
I3
sS'friendly'
p2846
I3
sS"crime'theme"
p2847
I1
sS'duelling'
p2848
I1
sS'assuming'
p2849
I1
sS'felicity'
p2850
I1
sS'facebook'
p2851
I2
sS'telling'
p2852
I5
sS'positions'
p2853
I1
sS'button'
p2854
I3
sS'michael'
p2855
I11
sS'queen'
p2856
I3
sS'assignments'
p2857
I1
sS'kinski'
p2858
I2
sS'hutchence'
p2859
I2
sS'pepper'
p2860
I6
sS'boots'
p2861
I2
sS'decreed'
p2862
I1
sS'picked'
p2863
I2
sS'pornography'
p2864
I1
sS'8220madagascar8221'
p2865
I1
sS'click'
p2866
I4
sS'clich'
p2867
I1
sS'cupcakes'
p2868
I1
sS'plays'
p2869
I7
sS'opaque'
p2870
I1
sS'colonel'
p2871
I1
sS'marketed'
p2872
I1
sS'vampire'
p2873
I1
sS'harmonious'
p2874
I1
sS'rotted'
p2875
I1
sS"jangles'"
p2876
I1
sS'completion'
p2877
I1
sS'createspace'
p2878
I1
sS'commercial'
p2879
I2
sS'rowles'
p2880
I1
sS'hasbeen'
p2881
I1
sS'buskers'
p2882
I1
sS'chant'
p2883
I1
sS'products'
p2884
I3
sS"kollias'"
p2885
I1
sS'clark'
p2886
I1
sS'claim'
p2887
I1
sS'pitch'
p2888
I1
sS"ramone's"
p2889
I1
sS'gimmick'
p2890
I3
sS'singing'
p2891
I9
sS'imaginary'
p2892
I1
sS'manipulate'
p2893
I1
sS'remains'
p2894
I1
sS'camera'
p2895
I12
sS'agreeable'
p2896
I1
sS'simpler'
p2897
I2
sS'reflects'
p2898
I1
sS'bnets'
p2899
I1
sS'formally'
p2900
I1
sS"christie's"
p2901
I1
sS'started'
p2902
I14
sS'becomes'
p2903
I3
sS'charming'
p2904
I1
sS'agent'
p2905
I1
sS'hardened'
p2906
I1
sS'salad'
p2907
I1
sS"'sacrifice"
p2908
I3
sS'crossed'
p2909
I1
sS'that8217s'
p2910
I2
sS'drops'
p2911
I1
sS"lavoe's"
p2912
I1
sS'wharf'
p2913
I1
sS'links'
p2914
I1
sS'whalley'
p2915
I1
sS'escaped'
p2916
I1
sS'pulling'
p2917
I1
sS'frenchstyled'
p2918
I1
sS'documenting'
p2919
I1
sS'wonderful'
p2920
I5
sS'hidey'
p2921
I1
sS'meanwhile'
p2922
I2
sS'arrangement'
p2923
I1
sS'compiled'
p2924
I1
sS"dieman's"
p2925
I1
sS'immoral'
p2926
I1
sS'chiefs'
p2927
I7
sS'spelling'
p2928
I1
sS"thunder'"
p2929
I1
sS'scoop'
p2930
I4
sS'claire'
p2931
I1
sS'agenda'
p2932
I1
sS'favourites'
p2933
I3
sS'executives'
p2934
I1
sS"cuban's"
p2935
I1
sS'lostpediacom'
p2936
I1
sS'offences'
p2937
I1
sS'including'
p2938
I8
sS'cruise'
p2939
I1
sS'mentioned'
p2940
I7
sS'subversive'
p2941
I1
sS'phair'
p2942
I1
sS'tieup'
p2943
I1
sS'masses'
p2944
I1
sS'youngster'
p2945
I1
sS'stenciled'
p2946
I1
sS'wellknown'
p2947
I1
sS"rosemary's"
p2948
I1
sS'hctor'
p2949
I1
sS'instrumented'
p2950
I1
sS'hands'
p2951
I5
sS'front'
p2952
I14
sS'documented'
p2953
I2
sS'handy'
p2954
I1
sS'storyboard'
p2955
I1
sS'fundraisers'
p2956
I1
sS'university'
p2957
I4
sS'crossing'
p2958
I1
sS'shaking'
p2959
I1
sS'legions'
p2960
I1
sS'prevailing'
p2961
I1
sS'zanemmokel'
p2962
I1
sS'globe'
p2963
I3
sS'joyce'
p2964
I1
sS'exceeded'
p2965
I1
sS'gingas'
p2966
I1
sS'special'
p2967
I12
sS'entertainment'
p2968
I11
sS'mrbrown'
p2969
I1
sS'islamist'
p2970
I1
sS'ricky'
p2971
I1
sS'remiss'
p2972
I1
sS'ceylon'
p2973
I1
sS'shambles'
p2974
I1
sS'messedup'
p2975
I2
sS'cause'
p2976
I2
sS'convinient'
p2977
I1
sS"one's"
p2978
I1
sS'achievements'
p2979
I2
sS'attending'
p2980
I3
sS'completely'
p2981
I4
sS'princess'
p2982
I2
sS'timer'
p2983
I1
sS'times'
p2984
I17
sS'shred'
p2985
I2
sS'austin'
p2986
I2
sS'evans'
p2987
I1
sS'swapped'
p2988
I1
sS'blogger'
p2989
I6
sS'confuse'
p2990
I1
sS'warcraft'
p2991
I1
sS'quality'
p2992
I5
sS"you're"
p2993
I20
sS'playlist'
p2994
I1
sS'privacy'
p2995
I1
sS'bears'
p2996
I2
sS'achieved'
p2997
I1
sS'adopted'
p2998
I1
sS'attack'
p2999
I3
sS'wrapped'
p3000
I1
sS'perfectly'
p3001
I6
sS'saltolive'
p3002
I1
sS'final'
p3003
I21
sS'sternberg'
p3004
I2
sS'exactly'
p3005
I5
sS'lists'
p3006
I2
sS'slobdition'
p3007
I1
sS'mine8221'
p3008
I1
sS"that'll"
p3009
I1
sS'herself'
p3010
I1
sS'heartedly'
p3011
I1
sS'selfimposed'
p3012
I1
sS'mantra'
p3013
I1
sS'submitted'
p3014
I1
sS'rhythmic'
p3015
I1
sS'what8217s'
p3016
I1
sS'horrors'
p3017
I2
sS'close'
p3018
I13
sS'instrumentation'
p3019
I2
sS'microphone'
p3020
I2
sS'homeboy'
p3021
I1
sS'bourne'
p3022
I8
sS'romances'
p3023
I2
sS'battled'
p3024
I1
sS'singh'
p3025
I1
sS'medals'
p3026
I1
sS'mileage'
p3027
I1
sS'tshirts'
p3028
I1
sS'hiphop'
p3029
I7
sS'stereo'
p3030
I3
sS'eject'
p3031
I1
sS'brought'
p3032
I1
sS'astonishing'
p3033
I2
sS'proceedings'
p3034
I2
sS'lowered'
p3035
I1
sS'undeniably'
p3036
I1
sS'nailed'
p3037
I1
sS'affair'
p3038
I7
sS'emerging'
p3039
I1
sS'qualms'
p3040
I1
sS'crate'
p3041
I1
sS'anyway'
p3042
I11
sS'prelaunch'
p3043
I1
sS'shoes'
p3044
I1
sS'partners'
p3045
I1
sS'based'
p3046
I8
sS'miniseries'
p3047
I2
sS'winner'
p3048
I5
sS'employed'
p3049
I1
sS'achieve'
p3050
I1
sS'overall'
p3051
I2
sS'legitimate'
p3052
I1
sS'joins'
p3053
I1
sS'durst'
p3054
I1
sS'buyer'
p3055
I1
sS'starred'
p3056
I2
sS'bibulous'
p3057
I1
sS'elsewe'
p3058
I1
sS'curvesnbsp'
p3059
I1
sS'places'
p3060
I5
sS'contain'
p3061
I1
sS'tunes'
p3062
I7
sS'dunedin'
p3063
I11
sS'spotted'
p3064
I1
sS'conmsider'
p3065
I1
sS'spinoff'
p3066
I1
sS'accused'
p3067
I1
sS'pubrock'
p3068
I1
sS'desperate'
p3069
I2
sS'portent'
p3070
I1
sS'stats'
p3071
I1
sS'nightmare'
p3072
I4
sS'written'
p3073
I6
sS'horrible'
p3074
I2
sS'flicks'
p3075
I3
sS'comparable'
p3076
I1
sS'kicking'
p3077
I4
sS'amadou'
p3078
I1
sS'merry'
p3079
I1
sS'group'
p3080
I10
sS'problem'
p3081
I7
sS'interpretations'
p3082
I1
sS'limits'
p3083
I1
sS'career'
p3084
I2
sS'minds'
p3085
I1
sS'admit'
p3086
I2
sS'ghesquire'
p3087
I1
sS'jersey'
p3088
I1
sS'tuesday'
p3089
I4
sS'franchise'
p3090
I1
sS'kings'
p3091
I2
sS"finch's"
p3092
I1
sS'addition'
p3093
I2
sS'immense'
p3094
I1
sS'whedon'
p3095
I1
sS'slowly'
p3096
I2
sS'treat'
p3097
I4
sS'gouger'
p3098
I1
sS'shoulders'
p3099
I2
sS'senses'
p3100
I1
sS'releasing'
p3101
I1
sS'ghoulish'
p3102
I1
sS'kicks'
p3103
I1
sS'titter'
p3104
I1
sS'shameless'
p3105
I1
sS'novel'
p3106
I2
sS'harder'
p3107
I2
sS'harden'
p3108
I1
sS'dynamism'
p3109
I1
sS'powells'
p3110
I1
sS'resident'
p3111
I2
sS'hearted'
p3112
I1
sS'began'
p3113
I2
sS'autism'
p3114
I1
sS'parts'
p3115
I1
sS'eclectic'
p3116
I1
sS'party'
p3117
I7
sS'togetherdied'
p3118
I1
sS'unconventional'
p3119
I1
sS'sprey'
p3120
I1
sS'fireman'
p3121
I1
sS"lanegan's"
p3122
I1
sS'effect'
p3123
I4
sS'spree'
p3124
I5
sS'magician'
p3125
I1
sS'endearing'
p3126
I1
sS'8216cultural'
p3127
I1
sS'reflection'
p3128
I2
sS'wwwmotivemarketingbiz'
p3129
I1
sS'corporation'
p3130
I2
sS'laupers'
p3131
I1
sS'publiclyfunded'
p3132
I1
sS'spastic'
p3133
I1
sS'sourced'
p3134
I1
sS'increasingly'
p3135
I2
sS"kids'"
p3136
I1
sS'duplicities'
p3137
I1
sS'sources'
p3138
I2
sS'mistakes'
p3139
I1
sS'virtual'
p3140
I3
sS'skill'
p3141
I1
sS'lately'
p3142
I2
sS'trude'
p3143
I1
sS'killed'
p3144
I1
sS'runners'
p3145
I1
sS'miramar'
p3146
I2
sS'details'
p3147
I6
sS'sonic'
p3148
I1
sS'definitive'
p3149
I1
sS'immediately'
p3150
I1
sS'bukowski'
p3151
I1
sS'necessary'
p3152
I2
sS'tvnzrsquos'
p3153
I1
sS'starry'
p3154
I1
sS'christchurchrsquos'
p3155
I1
sS'candy'
p3156
I1
sS'sized'
p3157
I1
sS'martin'
p3158
I1
sS'brash'
p3159
I1
sS'library'
p3160
I1
sS'motive'
p3161
I4
sS'francisco'
p3162
I2
sS'warmer'
p3163
I1
sS'peter'
p3164
I5
sS'broad'
p3165
I2
sS'mutation'
p3166
I1
sS'fanny'
p3167
I1
sS'reaching'
p3168
I2
sS'journal'
p3169
I1
sS'outlets'
p3170
I1
sS'poignant'
p3171
I1
sS"stoppard's"
p3172
I1
sS'freedom'
p3173
I7
sS'persuades'
p3174
I1
sS'cleans'
p3175
I1
sS'nightclub'
p3176
I1
sS'beige'
p3177
I1
sS'puppies'
p3178
I2
sS'tongue'
p3179
I1
sS'accapella'
p3180
I1
sS'equally'
p3181
I2
sS'celebrations'
p3182
I1
sS'meglamaniac'
p3183
I1
sS'glenn'
p3184
I1
sS'previously'
p3185
I2
sS'washington'
p3186
I2
sS'interstellar'
p3187
I1
sS'8220oodles'
p3188
I1
sS'artists'
p3189
I10
sS'couldnt'
p3190
I2
sS'pointless'
p3191
I3
sS"times'"
p3192
I1
sS'doubtless'
p3193
I1
sS'weepy'
p3194
I1
sS'networking'
p3195
I1
sS'polarising'
p3196
I1
sS'relegated'
p3197
I1
sS'funnily'
p3198
I1
sS'noticed'
p3199
I1
sS'inner'
p3200
I1
sS'north'
p3201
I5
sS'blaming'
p3202
I1
sS'once8230'
p3203
I1
sS'wingtip'
p3204
I1
sS'signed'
p3205
I4
sS'stories'
p3206
I8
sS'piece'
p3207
I5
sS'display'
p3208
I3
sS'urging'
p3209
I1
sS'marketplace'
p3210
I2
sS'mishears'
p3211
I1
sS'coolcharm'
p3212
I1
sS'horsewhip'
p3213
I1
sS'exceptionaly'
p3214
I1
sS'beats'
p3215
I5
sS'education'
p3216
I3
sS'balcony'
p3217
I1
sS'diego'
p3218
I1
sS'contest'
p3219
I2
sS'onwards'
p3220
I1
sS'acrylic'
p3221
I2
sS'chemist'
p3222
I1
sS'fodder'
p3223
I2
sS'treadmills'
p3224
I1
sS'inescapable'
p3225
I1
sS'backstage'
p3226
I1
sS'friends'
p3227
I15
sS"'wait"
p3228
I2
sS'atheist'
p3229
I1
sS'blogs'
p3230
I1
sS'roseneath'
p3231
I1
sS'extras'
p3232
I2
sS'secondly'
p3233
I1
sS'todays'
p3234
I2
sS'demand'
p3235
I8
sS'andre'
p3236
I3
sS'protest'
p3237
I2
sS'asian'
p3238
I2
sS'lowcost'
p3239
I1
sS'captain'
p3240
I2
sS'whose'
p3241
I4
sS'buddy'
p3242
I1
sS'segments'
p3243
I1
sS'seriously'
p3244
I7
sS'bimbos'
p3245
I1
sS'trousers'
p3246
I1
sS'teaching'
p3247
I2
sS'sorry'
p3248
I7
sS'characterised'
p3249
I1
sS'onstage'
p3250
I2
sS'fists'
p3251
I1
sS'collaborate'
p3252
I1
sS'updates'
p3253
I2
sS'skillz'
p3254
I1
sS'skills'
p3255
I2
sS'companies'
p3256
I4
sS'solution'
p3257
I2
sS"chisel's"
p3258
I1
sS'washout'
p3259
I1
sS'heading'
p3260
I3
sS'clothes'
p3261
I3
sS'uncovers'
p3262
I3
sS'force'
p3263
I4
sS'likely'
p3264
I4
sS'streamripping'
p3265
I1
sS'helluva'
p3266
I1
sS'orchestra'
p3267
I3
sS'lights'
p3268
I1
sS'deemed'
p3269
I1
sS'never'
p3270
I45
sS'plunket'
p3271
I1
sS'deposition'
p3272
I1
sS"aren't"
p3273
I3
sS'interpret'
p3274
I1
sS'luther'
p3275
I1
sS'credit'
p3276
I1
sS'buckley'
p3277
I3
sS"someone's"
p3278
I1
sS'parlane'
p3279
I1
sS'astute'
p3280
I1
sS'moray'
p3281
I1
sS'fantastic'
p3282
I9
sS'fantomas'
p3283
I4
sS'campaign'
p3284
I6
sS'specifics'
p3285
I1
sS'moral'
p3286
I2
sS'guests'
p3287
I4
sS'darwinian'
p3288
I2
sS'broadcasters'
p3289
I4
sS'10000'
p3290
I1
sS'tertiary'
p3291
I1
sS'recommend'
p3292
I7
sS'survive'
p3293
I2
sS'midmarch'
p3294
I1
sS'posting'
p3295
I3
sS'lungs'
p3296
I1
sS'oscar'
p3297
I2
sS'dogma'
p3298
I1
sS'berlin'
p3299
I3
sS'poppedit'
p3300
I1
sS'frenzy'
p3301
I1
sS'adult'
p3302
I2
sS'language'
p3303
I4
sS'rights'
p3304
I4
sS'setup'
p3305
I2
sS"'punk"
p3306
I1
sS'whack'
p3307
I1
sS'movies'
p3308
I8
sS'impersonate'
p3309
I1
sS'listings'
p3310
I1
sS'climax'
p3311
I3
sS'radiostar'
p3312
I1
sS'discography'
p3313
I1
sS'wanky'
p3314
I1
sS'shesh'
p3315
I1
sS'unforgettable'
p3316
I1
sS'sideline'
p3317
I2
sS'titular'
p3318
I1
sS'toointense'
p3319
I1
sS'answer'
p3320
I5
sS'flustered'
p3321
I1
sS'becks'
p3322
I2
sS'curiosity'
p3323
I2
sS'president'
p3324
I5
sS'frusciante'
p3325
I3
sS"team's"
p3326
I1
sS'lesbian'
p3327
I2
sS'purchase'
p3328
I2
sS'attempt'
p3329
I3
sS'mastodon'
p3330
I1
sS'third'
p3331
I10
sS'looove'
p3332
I1
sS'bottum'
p3333
I1
sS"panda's"
p3334
I1
sS'pianos'
p3335
I1
sS'diddy'
p3336
I1
sS'ghastly'
p3337
I1
sS'fable'
p3338
I1
sS'before'
p3339
I37
sS'scoring'
p3340
I1
sS'personal'
p3341
I5
sS'better'
p3342
I24
sS'downtoearth'
p3343
I1
sS'carve'
p3344
I1
sS'weeks'
p3345
I8
sS'overcome'
p3346
I2
sS'combination'
p3347
I1
sS'weakness'
p3348
I1
sS'workout'
p3349
I1
sS'intimidation'
p3350
I1
sS'downright'
p3351
I1
sS'investiture'
p3352
I1
sS'curator'
p3353
I2
sS'roast'
p3354
I3
sS'acoustic'
p3355
I1
sS'adobe'
p3356
I1
sS'upstaged'
p3357
I1
sS'taught'
p3358
I2
sS'ecutioners'
p3359
I3
sS'lawyers'
p3360
I1
sS'comedies'
p3361
I1
sS'velvet'
p3362
I1
sS'realtime'
p3363
I1
sS'hushed'
p3364
I1
sS'crucial'
p3365
I5
sS'reader'
p3366
I1
sS'surprise'
p3367
I2
sS"'high"
p3368
I1
sS'bestof'
p3369
I2
sS'turning'
p3370
I5
sS'linear'
p3371
I1
sS'vettori'
p3372
I1
sS'revenge'
p3373
I1
sS'petone'
p3374
I2
sS'mistress'
p3375
I1
sS'speechwriter'
p3376
I1
sS'starts'
p3377
I4
sS'shush'
p3378
I1
sS"freddy's"
p3379
I2
sS'100000'
p3380
I1
sS'signature'
p3381
I1
sS'moving'
p3382
I2
sS'stewart'
p3383
I2
sS'naughty'
p3384
I1
sS'features'
p3385
I5
sS'windowlicker'
p3386
I1
sS'featured'
p3387
I1
sS'downside'
p3388
I1
sS'bicycle'
p3389
I1
sS'girls'
p3390
I11
sS'twisted'
p3391
I1
sS'hollywood'
p3392
I6
sS'villages'
p3393
I1
sS'fancyschmancy'
p3394
I1
sS'somewhat'
p3395
I6
sS'hadnt'
p3396
I1
sS'peculiar'
p3397
I1
sS'boarding'
p3398
I1
sS'distance'
p3399
I1
sS'dawkins'
p3400
I2
sS'older'
p3401
I3
sS'preparation'
p3402
I1
sS'matter'
p3403
I5
sS'persuade'
p3404
I1
sS'silly'
p3405
I3
sS'deserving'
p3406
I1
sS'hottie'
p3407
I1
sS'poland'
p3408
I1
sS'cheek'
p3409
I2
sS'donegan'
p3410
I1
sS'rattle'
p3411
I3
sS'modern'
p3412
I1
sS"spears'"
p3413
I1
sS'prerecorded'
p3414
I1
sS'sounding'
p3415
I2
sS'tells'
p3416
I2
sS'biographies'
p3417
I1
sS'timberlake'
p3418
I1
sS'chest'
p3419
I2
sS'ulrich'
p3420
I1
sS"lisa's"
p3421
I1
sS'plotbot'
p3422
I2
sS'satanists'
p3423
I1
sS'zealand'
p3424
I15
sS'broadcast'
p3425
I8
sS'medical'
p3426
I4
sS'sheryl'
p3427
I1
sS'points'
p3428
I5
sS'dead39'
p3429
I1
sS'consumer'
p3430
I1
sS'meaning'
p3431
I4
sS'selected'
p3432
I3
sS'lyrics'
p3433
I7
sS'jurisdiction'
p3434
I1
sS'paceman'
p3435
I1
sS'ending'
p3436
I4
sS'attempts'
p3437
I2
sS'policework'
p3438
I1
sS'skipwith'
p3439
I1
sS'judges'
p3440
I2
sS'explain'
p3441
I6
sS'jailer'
p3442
I1
sS'folded'
p3443
I2
sS"converge's"
p3444
I1
sS'gangsta'
p3445
I2
sS'wearing'
p3446
I7
sS'monica'
p3447
I1
sS'coast'
p3448
I1
sS'breakbeat'
p3449
I1
sS'centreplace'
p3450
I1
sS'fields'
p3451
I1
sS'preocess'
p3452
I1
sS'disco'
p3453
I1
sS'monumental'
p3454
I1
sS'discs'
p3455
I7
sS'architecture'
p3456
I2
sS'cofounder'
p3457
I1
sS'flagged'
p3458
I1
sS'humanly'
p3459
I1
sS'decides'
p3460
I1
sS'fascinating'
p3461
I3
sS'light'
p3462
I8
sS'decided'
p3463
I5
sS'juliet'
p3464
I1
sS'inappropriate'
p3465
I1
sS'continent'
p3466
I1
sS'ruloff'
p3467
I2
sS'terrance'
p3468
I1
sS'sorts'
p3469
I4
sS'wears'
p3470
I1
sS'morgage'
p3471
I1
sS'weary'
p3472
I1
sS'harvard'
p3473
I1
sS'motto'
p3474
I1
sS'suggested'
p3475
I3
sS'against'
p3476
I6
sS'contribution'
p3477
I1
sS'appeared'
p3478
I2
sS'kissozzy'
p3479
I1
sS'lullaby'
p3480
I1
sS'offerings'
p3481
I1
sS'targeting'
p3482
I1
sS'three'
p3483
I38
sS'milieu'
p3484
I1
sS'nycwireless'
p3485
I1
sS'recognised'
p3486
I1
sS'interest'
p3487
I7
sS'basic'
p3488
I5
sS'basin'
p3489
I8
sS'enron'
p3490
I1
sS'ellington'
p3491
I2
sS'website'
p3492
I8
sS'shiteytights'
p3493
I1
sS'900mb'
p3494
I1
sS'gumboots'
p3495
I1
sS'tapping'
p3496
I1
sS'personally'
p3497
I3
sS'exception'
p3498
I2
sS'remakes'
p3499
I2
sS'spontaneously'
p3500
I1
sS'newdowse'
p3501
I1
sS'auction'
p3502
I7
sS'lizard'
p3503
I1
sS'suppose'
p3504
I1
sS'adele'
p3505
I1
sS'seven'
p3506
I2
sS'mexico'
p3507
I2
sS'sushi'
p3508
I1
sS'shame'
p3509
I4
sS'gervais'
p3510
I1
sS'colosseum'
p3511
I1
sS'mouse'
p3512
I1
sS'disappear'
p3513
I1
sS'grown'
p3514
I1
sS'growl'
p3515
I1
sS'quand'
p3516
I1
sS'stein'
p3517
I7
sS'undergarment'
p3518
I1
sS"france's"
p3519
I2
sS'zemeckis'
p3520
I3
sS'unfortunate'
p3521
I1
sS'grows'
p3522
I1
sS'entitled'
p3523
I1
sS'meets'
p3524
I6
sS'transvestites'
p3525
I1
sS'dillinger'
p3526
I1
sS'delight'
p3527
I1
sS'newsquot'
p3528
I1
sS'opportunity'
p3529
I2
sS'thoughts'
p3530
I6
sS'butter'
p3531
I1
sS'emissary'
p3532
I1
sS'programs'
p3533
I1
sS'youre'
p3534
I6
sS'hobbyinterest'
p3535
I1
sS'numbbum'
p3536
I1
sS'materials'
p3537
I1
sS'reese'
p3538
I1
sS'claims'
p3539
I4
sS'slutty'
p3540
I1
sS'consciousness'
p3541
I1
sS"dream'"
p3542
I1
sS'unfair'
p3543
I2
sS'assigned'
p3544
I1
sS'macguyver'
p3545
I1
sS'bandwidth'
p3546
I1
sS'human'
p3547
I5
sS'facts'
p3548
I2
sS'impending'
p3549
I1
sS'nicolas'
p3550
I1
sS'character'
p3551
I11
sS'motherfckers'
p3552
I1
sS'squad'
p3553
I1
sS'bailey'
p3554
I1
sS'background'
p3555
I2
sS'depicts'
p3556
I1
sS'dreams'
p3557
I5
sS'vanity'
p3558
I1
sS'shoulder'
p3559
I1
sS'performing'
p3560
I2
sS'unnecessary'
p3561
I1
sS'isnbsp'
p3562
I1
sS'egoyan'
p3563
I1
sS'kontinent'
p3564
I1
sS'somehow'
p3565
I4
sS'elderly'
p3566
I1
sS"nothing's"
p3567
I3
sS'teamtraining'
p3568
I1
sS'sprawl'
p3569
I1
sS'dense'
p3570
I1
sS'trace'
p3571
I1
sS'normal'
p3572
I1
sS'daytime'
p3573
I1
sS'arguing'
p3574
I2
sS'extraordinaire'
p3575
I1
sS'extreem'
p3576
I1
sS'winona'
p3577
I1
sS'popular'
p3578
I6
sS'confrontation'
p3579
I1
sS'keeper'
p3580
I1
sS'super'
p3581
I1
sS'empowerment'
p3582
I3
sS'clichs'
p3583
I1
sS'yelling'
p3584
I3
sS'magazine'
p3585
I1
sS'afternoon'
p3586
I2
sS'islands'
p3587
I2
sS'carting'
p3588
I1
sS'motivate'
p3589
I1
sS'whats'
p3590
I4
sS'intellectual'
p3591
I1
sS"world's"
p3592
I3
sS'1990s'
p3593
I1
sS'frightened'
p3594
I1
sS'flying'
p3595
I2
sS'editor'
p3596
I2
sS'fraction'
p3597
I1
sS'lurid'
p3598
I1
sS'offering'
p3599
I1
sS'genrebending'
p3600
I1
sS'analyse'
p3601
I1
sS'failure'
p3602
I2
sS'itchyhilliary'
p3603
I1
sS'conchords'
p3604
I2
sS'syndicate'
p3605
I1
sS'streaming'
p3606
I1
sS'attached'
p3607
I2
sS'trends'
p3608
I2
sS'terabithia'
p3609
I1
sS'daddy'
p3610
I2
sS'propaganda'
p3611
I2
sS'classic'
p3612
I7
sS'covers'
p3613
I9
sS'scrawl'
p3614
I1
sS'can8217t'
p3615
I3
sS'fashioned'
p3616
I1
sS'mediocre'
p3617
I2
sS'adelaide'
p3618
I2
sS'nightwish'
p3619
I3
sS'tossing'
p3620
I1
sS'digital'
p3621
I8
sS'sectionsong'
p3622
I1
sS'unrewarded'
p3623
I1
sS"stick'"
p3624
I1
sS'journey'
p3625
I5
sS'weekend'
p3626
I25
sS"whitchelo's"
p3627
I1
sS'billion'
p3628
I2
sS'happening'
p3629
I1
sS'assume'
p3630
I2
sS'daily'
p3631
I2
sS'gorilla'
p3632
I1
sS'premiums'
p3633
I1
sS'studiodistributorexhibitor'
p3634
I1
sS'teeth'
p3635
I2
sS'restored'
p3636
I1
sS'daaaaamon'
p3637
I1
sS'customary'
p3638
I1
sS'themed'
p3639
I1
sS'peruse'
p3640
I1
sS'manages'
p3641
I5
sS'primes'
p3642
I1
sS'suicide'
p3643
I1
sS'depend'
p3644
I1
sS'editors'
p3645
I1
sS'gutless'
p3646
I1
sS'finally'
p3647
I13
sS'unpleasant'
p3648
I1
sS'marks'
p3649
I1
sS'string'
p3650
I1
sS'8220nancy'
p3651
I1
sS'billionaire'
p3652
I1
sS'sappy'
p3653
I1
sS'advised'
p3654
I1
sS'screenplays'
p3655
I1
sS'excellence'
p3656
I1
sS'overlaid'
p3657
I1
sS'round'
p3658
I9
sS"it'll"
p3659
I2
sS'olympic'
p3660
I1
sS'talked'
p3661
I3
sS'nineties'
p3662
I2
sS'dealing'
p3663
I1
sS'targets'
p3664
I1
sS'norris'
p3665
I19
sS'filler'
p3666
I1
sS'encrusted'
p3667
I1
sS'favour'
p3668
I3
sS'suspect'
p3669
I4
sS"rahme's"
p3670
I1
sS'international'
p3671
I4
sS'filled'
p3672
I3
sS'bloke'
p3673
I1
sS'makeup'
p3674
I1
sS'french'
p3675
I1
sS'tangent'
p3676
I1
sS'canadian'
p3677
I1
sS'shift'
p3678
I1
sS'diagnosed'
p3679
I2
sS'bellowing'
p3680
I2
sS'creeting'
p3681
I2
sS'genuinely'
p3682
I1
sS'breathtaking'
p3683
I1
sS'useful'
p3684
I2
sS'defile'
p3685
I1
sS'verge'
p3686
I1
sS'everybody'
p3687
I2
sS'haven8217t'
p3688
I1
sS'visit'
p3689
I2
sS'france'
p3690
I1
sS'insides'
p3691
I1
sS'sharing'
p3692
I2
sS'emoting'
p3693
I1
sS'labyrinth'
p3694
I1
sS'olive'
p3695
I1
sS'effort'
p3696
I1
sS'simpletons'
p3697
I1
sS'reviews'
p3698
I7
sS'drags'
p3699
I1
sS'growing'
p3700
I1
sS'making'
p3701
I13
sS'arrive'
p3702
I4
sS'deceased'
p3703
I1
sS'nearest'
p3704
I1
sS'crazy'
p3705
I8
sS'predict'
p3706
I1
sS'winston'
p3707
I1
sS'confused'
p3708
I1
sS'boxoffice'
p3709
I3
sS'forerunners'
p3710
I1
sS'guarded'
p3711
I1
sS'council'
p3712
I3
sS'redness'
p3713
I1
sS'complainant'
p3714
I1
sS'bassline'
p3715
I1
sS'pervy'
p3716
I1
sS'sunday'
p3717
I4
sS'swore'
p3718
I1
sS'sworn'
p3719
I1
sS'designer'
p3720
I2
sS'swayed'
p3721
I1
sS'strokes'
p3722
I1
sS'designed'
p3723
I4
sS'thumbtips'
p3724
I1
sS'partway'
p3725
I1
sS'childrenaged'
p3726
I1
sS'maybe'
p3727
I24
sS'avant'
p3728
I1
sS'switch'
p3729
I1
sS'lanegan'
p3730
I2
sS'african'
p3731
I1
sS'bungle'
p3732
I7
sS'shield'
p3733
I3
sS'wishing'
p3734
I2
sS'lyric'
p3735
I2
sS'flayed'
p3736
I1
sS'shake'
p3737
I1
sS'differs'
p3738
I1
sS'hirst'
p3739
I1
sS'police'
p3740
I11
sS'thank'
p3741
I5
sS'interesting'
p3742
I16
sS'yorkshire'
p3743
I1
sS'drummer'
p3744
I2
sS'grey8217s'
p3745
I1
sS'emailed'
p3746
I2
sS'views'
p3747
I1
sS'killer'
p3748
I3
sS'soulful'
p3749
I2
sS'lunch'
p3750
I2
sS'tvnbsp'
p3751
I1
sS'bullshit'
p3752
I2
sS'workload'
p3753
I1
sS'elephants'
p3754
I1
sS'conventions'
p3755
I2
sS'preaching'
p3756
I1
sS'elizabeth'
p3757
I1
sS'gonzalez'
p3758
I2
sS'living'
p3759
I5
sS'jackson'
p3760
I3
sS'fanboy'
p3761
I1
sS'doonesbury'
p3762
I1
sS'miles'
p3763
I3
sS'pamela'
p3764
I1
sS'emerged'
p3765
I1
sS'nudes'
p3766
I1
sS'brimming'
p3767
I1
sS'earlier'
p3768
I15
sS'monster'
p3769
I4
sS'sideways'
p3770
I1
sS'california'
p3771
I2
sS'vinyl'
p3772
I2
sS'keith'
p3773
I4
sS'watts'
p3774
I1
sS'ummagumma'
p3775
I1
sS'headphones'
p3776
I1
sS'thing'
p3777
I27
sS'liveaction'
p3778
I2
sS'think'
p3779
I59
sS'first'
p3780
I62
sS'cheese'
p3781
I5
sS'rachel'
p3782
I4
sS'americans'
p3783
I1
sS'rattus'
p3784
I3
sS'carry'
p3785
I2
sS'sounds'
p3786
I7
sS'cheesy'
p3787
I3
sS'little'
p3788
I45
sS'slept'
p3789
I2
sS'anyone'
p3790
I19
sS'plains'
p3791
I1
sS'escort'
p3792
I1
sS'speaking'
p3793
I4
sS'accurately'
p3794
I1
sS'massages'
p3795
I1
sS'sequels'
p3796
I1
sS'undoubtedly'
p3797
I1
sS"here's"
p3798
I22
sS'relative'
p3799
I1
sS'cracks'
p3800
I1
sS'sabotages'
p3801
I1
sS'nzers'
p3802
I1
sS'victorian'
p3803
I2
sS'knives'
p3804
I1
sS'venture'
p3805
I1
sS'coldflu'
p3806
I1
sS'coconut'
p3807
I1
sS'alston'
p3808
I2
sS'topics'
p3809
I1
sS'winding'
p3810
I2
sS'narrator'
p3811
I2
sS'comedian'
p3812
I1
sS'spectacle'
p3813
I1
sS'hellraiser'
p3814
I1
sS'occupied'
p3815
I1
sS'kevin'
p3816
I1
sS'speakers'
p3817
I1
sS'efficient'
p3818
I1
sS'potential'
p3819
I1
sS'shocker'
p3820
I1
sS'performance'
p3821
I5
sS'switching'
p3822
I1
sS'channel'
p3823
I6
sS'theatre'
p3824
I9
sS'roster'
p3825
I1
sS'track'
p3826
I13
sS'insanity'
p3827
I2
sS'shotties'
p3828
I2
sS'complaints'
p3829
I4
sS'supremely'
p3830
I1
sS'proxies'
p3831
I5
sS'queens'
p3832
I1
sS'chipin'
p3833
I1
sS'cuban'
p3834
I1
sS'especially'
p3835
I7
sS'voodoo'
p3836
I1
sS'repeatedly'
p3837
I1
sS'corner'
p3838
I1
sS'businessisabella'
p3839
I1
sS'enough'
p3840
I25
sS'lauded'
p3841
I1
sS'black'
p3842
I19
sS'travesty'
p3843
I1
sS'enthusiasm'
p3844
I2
sS'canibus'
p3845
I2
sS'unimportant'
p3846
I1
sS'killers'
p3847
I2
sS'nearly'
p3848
I8
sS'lankans'
p3849
I1
sS'secondary'
p3850
I1
sS'frampton'
p3851
I1
sS'morning'
p3852
I7
sS'medias'
p3853
I1
sS'stupid'
p3854
I3
sS'finishing'
p3855
I1
sS'declared'
p3856
I1
sS'honesty'
p3857
I1
sS'blimmin'
p3858
I1
sS'cocktails'
p3859
I1
sS'kermit'
p3860
I1
sS'calendar'
p3861
I1
sS'wonder'
p3862
I4
sS'stoppard'
p3863
I1
sS'label'
p3864
I5
sS'whereabouts'
p3865
I2
sS'behind'
p3866
I14
sS'diamonds'
p3867
I3
sS'ramones'
p3868
I3
sS'reading'
p3869
I9
sS'across'
p3870
I11
sS'whispered'
p3871
I1
sS'august'
p3872
I6
sS'killing'
p3873
I5
sS'countenance'
p3874
I1
sS'singers'
p3875
I3
sS'dates'
p3876
I1
sS'similar'
p3877
I7
sS'according'
p3878
I6
sS'blasts'
p3879
I1
sS'disappointment'
p3880
I2
sS'remake'
p3881
I1
sS'dwellers'
p3882
I1
sS'longshot'
p3883
I1
sS'traded'
p3884
I1
sS'among'
p3885
I5
sS'stretches'
p3886
I1
sS'cancer'
p3887
I1
sS'venues'
p3888
I3
sS'accusation'
p3889
I1
sS'cyndi'
p3890
I1
sS'pacifier'
p3891
I2
sS'unassuming'
p3892
I1
sS'considering'
p3893
I2
sS"patton's"
p3894
I11
sS'unusual'
p3895
I3
sS'capable'
p3896
I1
sS'workshop'
p3897
I4
sS'judging'
p3898
I2
sS'swooning'
p3899
I2
sS'shopping'
p3900
I1
sS'tangelo'
p3901
I2
sS'graveyard'
p3902
I2
sS'offered'
p3903
I1
sS'dramatic'
p3904
I5
sS'freethinking'
p3905
I1
sS'hardcore'
p3906
I6
sS'sound'
p3907
I17
sS'invigorate'
p3908
I1
sS'compile'
p3909
I1
sS'ongoing'
p3910
I5
sS'promising'
p3911
I2
sS'cancelled'
p3912
I1
sS'investigating'
p3913
I1
sS'awakened'
p3914
I1
sS'muralitharan'
p3915
I1
sS'sincere'
p3916
I2
sS'sleeping'
p3917
I2
sS'middle'
p3918
I7
sS'sudden'
p3919
I2
sS'rally'
p3920
I1
sS'uninspiring'
p3921
I1
sS'everyday'
p3922
I1
sS'movements'
p3923
I1
sS'different'
p3924
I9
sS'doctor'
p3925
I2
sS'enquiries'
p3926
I1
sS'speech'
p3927
I1
sS"o'brien"
p3928
I1
sS'meaningfully'
p3929
I1
sS'extended'
p3930
I1
sS'seagulls'
p3931
I1
sS'running'
p3932
I9
sS'totally'
p3933
I8
sS'largely'
p3934
I2
sS'wellington'
p3935
I16
sS'solve'
p3936
I1
sS'amazed'
p3937
I1
sS'parody'
p3938
I2
sS'gates'
p3939
I3
sS'money'
p3940
I15
sS'unofficial'
p3941
I2
sS'aspect'
p3942
I3
sS'cueing'
p3943
I1
sS'bowie'
p3944
I3
sS'crocodiles'
p3945
I1
sS'astonishment'
p3946
I1
sS'gasbagging'
p3947
I1
sS'extensive'
p3948
I1
sS'heavier'
p3949
I2
sS'careers'
p3950
I1
sS'borat'
p3951
I1
sS'schwarzenegger'
p3952
I1
sS'pleaaaaase'
p3953
I1
sS'secrecy'
p3954
I1
sS'credentials'
p3955
I1
sS'disappointed'
p3956
I3
sS'christina'
p3957
I1
sS'adams'
p3958
I3
sS'indisputable'
p3959
I1
sS'lightning'
p3960
I1
sS'audience'
p3961
I13
sS'laughing'
p3962
I2
sS'served'
p3963
I1
sS'passionate'
p3964
I1
sS'tatou'
p3965
I2
sS'climactic'
p3966
I2
sS'hysterics'
p3967
I1
sS"'people's"
p3968
I1
sS'images'
p3969
I4
sS'explode'
p3970
I1
sS'stages'
p3971
I2
sS'extensively'
p3972
I1
sS'yoursquove'
p3973
I1
sS'inject'
p3974
I1
sS'expressing'
p3975
I2
sS'aussie'
p3976
I3
sS'songstress'
p3977
I1
sS'highbrow'
p3978
I1
sS'knife'
p3979
I3
sS'specializing'
p3980
I1
sS'skeet'
p3981
I1
sS'seconds'
p3982
I2
sS'manufactured'
p3983
I1
sS'notable'
p3984
I1
sS'notably'
p3985
I1
sS'broken'
p3986
I3
sS'drums'
p3987
I6
sS'refers'
p3988
I1
sS'it39s'
p3989
I1
sS'island'
p3990
I20
sS'bonding'
p3991
I1
sS'mixer'
p3992
I1
sS'practical'
p3993
I1
sS'youve'
p3994
I1
sS'mixed'
p3995
I4
sS'provisional'
p3996
I1
sS'zapstein'
p3997
I1
sS'quietly'
p3998
I1
sS'lands'
p3999
I2
sS'spreading'
p4000
I1
sS'skilled'
p4001
I1
sS'osmond'
p4002
I1
sS'references'
p4003
I1
sS'dreaming'
p4004
I2
sS"jimmy's"
p4005
I1
sS'decisive'
p4006
I1
sS'redbull'
p4007
I3
sS'downes'
p4008
I1
sS'delilah'
p4009
I9
sS'buggy'
p4010
I1
sS'strikes'
p4011
I1
sS'sophisticated'
p4012
I1
sS'swabs'
p4013
I1
sS'arranged'
p4014
I2
sS'romantic'
p4015
I1
sS"wasn't"
p4016
I13
sS"brother's"
p4017
I1
sS'peeking'
p4018
I1
sS'embed'
p4019
I1
sS'leaked'
p4020
I2
sS'videos'
p4021
I4
sS'fellow'
p4022
I6
sS"princess'"
p4023
I1
sS"she'd"
p4024
I1
sS'girlfriend'
p4025
I1
sS'tedious'
p4026
I2
sS'again'
p4027
I47
sS'30000'
p4028
I2
sS"dunedin's"
p4029
I1
sS'students'
p4030
I2
sS'carpathian'
p4031
I2
sS'important'
p4032
I15
sS'chris'
p4033
I3
sS'awkwardly'
p4034
I1
sS'moneytime'
p4035
I1
sS'resembled'
p4036
I1
sS'fraught'
p4037
I1
sS"filmmaker's"
p4038
I1
sS"life's"
p4039
I1
sS'resembles'
p4040
I1
sS'alright'
p4041
I1
sS'sicko'
p4042
I2
sS'represent'
p4043
I3
sS'forget'
p4044
I5
sS'grassroots'
p4045
I2
sS'dollar'
p4046
I1
sS'worms'
p4047
I1
sS'talks'
p4048
I7
sS'plodding'
p4049
I1
sS'slunk'
p4050
I1
sS'reluctant'
p4051
I1
sS'opensource'
p4052
I2
sS'enjoying'
p4053
I2
sS'cinephilia'
p4054
I2
sS'hattip'
p4055
I1
sS'straightforward'
p4056
I1
sS'returning'
p4057
I1
sS'billie'
p4058
I2
sS'bestie'
p4059
I1
sS'difference'
p4060
I2
sS'taihape'
p4061
I3
sS'alien'
p4062
I2
sS'forth'
p4063
I2
sS'celebrity'
p4064
I4
sS'reminding'
p4065
I1
sS'motherf'
p4066
I1
sS'economically'
p4067
I1
sS'titled'
p4068
I1
sS'andor'
p4069
I9
sS'titles'
p4070
I1
sS'perspective'
p4071
I1
sS'lawyer'
p4072
I1
sS'further'
p4073
I6
sS'material'
p4074
I6
sS'stood'
p4075
I2
sS'opted'
p4076
I2
sS'sweetly'
p4077
I1
sS'tribute'
p4078
I7
sS'public'
p4079
I11
sS'movement'
p4080
I1
sS'cohorts'
p4081
I1
sS'baywatch'
p4082
I1
sS'component'
p4083
I1
sS'disastrous'
p4084
I1
sS'threads'
p4085
I1
sS'candylike'
p4086
I1
sS'fantasies'
p4087
I1
sS'campaigns'
p4088
I2
sS'search'
p4089
I4
sS'aceveda'
p4090
I1
sS'atodd'
p4091
I1
sS'mejier'
p4092
I1
sS'published'
p4093
I1
sS'mentions'
p4094
I1
sS'narrow'
p4095
I2
sS'africa'
p4096
I1
sS'extinction'
p4097
I1
sS'armed'
p4098
I1
sS"'bain"
p4099
I1
sS'internets'
p4100
I2
sS'comparing'
p4101
I1
sS'tacky'
p4102
I1
sS'achieving'
p4103
I1
sS"ain't"
p4104
I1
sS'wasn8217t'
p4105
I3
sS'particular'
p4106
I5
sS'snouter'
p4107
I1
sS'nineteen'
p4108
I1
sS"season's"
p4109
I1
sS'chardonnay'
p4110
I1
sS'recall'
p4111
I2
sS'estefan'
p4112
I1
sS'guards'
p4113
I1
sS'remain'
p4114
I1
sS'paragraph'
p4115
I1
sS'mediums'
p4116
I1
sS'specialized'
p4117
I1
sS'fashionas'
p4118
I1
sS'shark'
p4119
I5
sS'overthemoon'
p4120
I1
sS'storyist'
p4121
I1
sS'share'
p4122
I6
sS'sphere'
p4123
I1
sS'minimum'
p4124
I2
sS'numbers'
p4125
I1
sS'sharp'
p4126
I5
sS'toasties'
p4127
I1
sS'unappreciated'
p4128
I1
sS'needs'
p4129
I15
sS'obnoxious'
p4130
I1
sS'comfort'
p4131
I2
sS'patton'
p4132
I30
sS'civilisation'
p4133
I1
sS'ivanja'
p4134
I4
sS"genius'"
p4135
I1
sS'advice'
p4136
I1
sS'questioning'
p4137
I1
sS'blood'
p4138
I7
sS'countering'
p4139
I1
sS'coming'
p4140
I15
sS'bloom'
p4141
I1
sS'response'
p4142
I6
sS'bleak'
p4143
I1
sS'8216conspiracy'
p4144
I1
sS'crowded'
p4145
I5
sS'dragon'
p4146
I1
sS'deserted'
p4147
I4
sS'hatton'
p4148
I1
sS'pleasure'
p4149
I3
sS'playing'
p4150
I31
sS'stains'
p4151
I4
sS'industrial'
p4152
I1
sS'through'
p4153
I53
sS'noirish'
p4154
I1
sS'drinking'
p4155
I4
sS'arrogant'
p4156
I1
sS'sharpay'
p4157
I1
sS'percussionists'
p4158
I1
sS'reuters'
p4159
I1
sS'dolly'
p4160
I1
sS'hurting'
p4161
I1
sS'someone'
p4162
I21
sS'cinematic'
p4163
I3
sS'detour'
p4164
I1
sS'walls'
p4165
I1
sS'newsflash'
p4166
I1
sS'aussiebased'
p4167
I1
sS'complain'
p4168
I1
sS'viewers'
p4169
I4
sS'youknow'
p4170
I1
sS'mystery'
p4171
I2
sS'wwwipecaccom'
p4172
I1
sS'roadies'
p4173
I2
sS'148000'
p4174
I1
sS'suprise'
p4175
I1
sS'ashes'
p4176
I2
sS'goofy'
p4177
I1
sS'exquisite'
p4178
I1
sS'launche'
p4179
I1
sS'everyone'
p4180
I16
sS'callum'
p4181
I3
sS'mental'
p4182
I1
sS'house'
p4183
I15
sS'energy'
p4184
I6
sS'monks'
p4185
I3
sS'engaging'
p4186
I1
sS'connect'
p4187
I1
sS'bittersweetsymphonyrolling'
p4188
I1
sS'maneesh'
p4189
I1
sS'thick'
p4190
I1
sS'8220jericho8217s8221'
p4191
I1
sS'initiatives'
p4192
I1
sS'lovers'
p4193
I1
sS'funding'
p4194
I4
sS'childish'
p4195
I1
sS'acting'
p4196
I1
sS'longtime'
p4197
I1
sS"they'll"
p4198
I1
sS'print'
p4199
I1
sS'pathetic'
p4200
I1
sS'commits'
p4201
I1
sS'pleasant'
p4202
I2
sS'extraordinary'
p4203
I2
sS'disneyland'
p4204
I1
sS'members'
p4205
I10
sS'backed'
p4206
I1
sS'dorset'
p4207
I1
sS'beginning'
p4208
I5
sS'updatenbsp'
p4209
I1
sS'recast'
p4210
I1
sS'computers'
p4211
I2
sS'sainsbury'
p4212
I1
sS'edges'
p4213
I1
sS'mistakenly'
p4214
I1
sS'kirchher'
p4215
I1
sS'embraced'
p4216
I1
sS'copped'
p4217
I1
sS'razor'
p4218
I2
sS'twenty'
p4219
I2
sS'rankles'
p4220
I1
sS'least'
p4221
I15
sS'obligatory'
p4222
I3
sS'statement'
p4223
I5
sS'rates'
p4224
I3
sS'gilhooley'
p4225
I1
sS'needle'
p4226
I1
sS'country39s'
p4227
I1
sS'dentist'
p4228
I1
sS'scantily'
p4229
I2
sS'doctors'
p4230
I1
sS'believe'
p4231
I17
sS'carnage'
p4232
I1
sS'incision'
p4233
I4
sS'knapp'
p4234
I1
sS'intermittent'
p4235
I1
sS'recording'
p4236
I8
sS'supposed'
p4237
I9
sS'interactive'
p4238
I1
sS'lilting'
p4239
I1
sS'roughly'
p4240
I2
sS'ardent'
p4241
I1
sS'smirking'
p4242
I2
sS"monster's"
p4243
I1
sS'confirms'
p4244
I1
sS'fading'
p4245
I1
sS'ditched'
p4246
I2
sS'mountain'
p4247
I10
sS'dotcom'
p4248
I1
sS'cardigan'
p4249
I1
sS'built'
p4250
I3
sS'dancing'
p4251
I10
sS'couch'
p4252
I1
sS'onset'
p4253
I1
sS'majority'
p4254
I2
sS'antibalas'
p4255
I1
sS'build'
p4256
I3
sS'highestranking'
p4257
I1
sS'godfather'
p4258
I1
sS'chordstab'
p4259
I1
sS'leaking'
p4260
I2
sS'flute'
p4261
I2
sS'chart'
p4262
I2
sS'depths'
p4263
I1
sS'wylie'
p4264
I1
sS'popfolk'
p4265
I1
sS'significant'
p4266
I3
sS'services'
p4267
I2
sS'silkyvoiced'
p4268
I1
sS'extremely'
p4269
I5
sS'fundable'
p4270
I1
sS'pocketing'
p4271
I1
sS'goodwill'
p4272
I1
sS'humanitarian'
p4273
I1
sS'storyline'
p4274
I1
sS'consisted'
p4275
I1
sS'joining'
p4276
I1
sS'particularly'
p4277
I3
sS'sparrow'
p4278
I1
sS'ditribution'
p4279
I1
sS'scattered'
p4280
I2
sS'converge'
p4281
I1
sS'pratchett'
p4282
I6
sS'carefully'
p4283
I3
sS'headlines'
p4284
I1
sS'networks'
p4285
I5
sS'giant'
p4286
I4
sS'sluggishly'
p4287
I1
sS'8220series'
p4288
I1
sS'experiment'
p4289
I1
sS'credulous'
p4290
I1
sS'gills'
p4291
I1
sS'villian'
p4292
I1
sS'express'
p4293
I3
sS'pristine'
p4294
I1
sS'breast'
p4295
I4
sS"episode's"
p4296
I1
sS'resolve'
p4297
I1
sS'roles'
p4298
I5
sS'selfindulgence'
p4299
I1
sS'common'
p4300
I4
sS'cynical'
p4301
I2
sS'individual'
p4302
I4
sS'forthcoming'
p4303
I2
sS'wyndham'
p4304
I2
sS'degree'
p4305
I2
sS'visiting'
p4306
I1
sS'malkovich'
p4307
I1
sS'please'
p4308
I6
sS'hoyts'
p4309
I1
sS'champagne'
p4310
I1
sS'complement'
p4311
I1
sS'premise'
p4312
I7
sS'encapsulate'
p4313
I1
sS'marilyn'
p4314
I4
sS'pissed'
p4315
I1
sS'defunct'
p4316
I1
sS'reverse'
p4317
I1
sS'patheticness'
p4318
I1
sS'cubey'
p4319
I1
sS'annual'
p4320
I3
sS'foreign'
p4321
I1
sS'faggots'
p4322
I1
sS'danced'
p4323
I1
sS'point'
p4324
I18
sS'simple'
p4325
I5
sS'gypsy'
p4326
I1
sS'dancer'
p4327
I2
sS'simply'
p4328
I7
sS"student's"
p4329
I1
sS'openness'
p4330
I1
sS'throughout'
p4331
I6
sS'expensive'
p4332
I3
sS'patiently'
p4333
I1
sS"'it's"
p4334
I1
sS'create'
p4335
I5
sS'singaporersquos'
p4336
I1
sS'mikey'
p4337
I1
sS'screened'
p4338
I3
sS'secret'
p4339
I9
sS'dropping'
p4340
I3
sS'peppers'
p4341
I2
sS'slips'
p4342
I2
sS'addison'
p4343
I1
sS'understand'
p4344
I1
sS'chatter'
p4345
I1
sS'nukem'
p4346
I1
sS'pierce'
p4347
I1
sS'hitchcock'
p4348
I1
sS'solid'
p4349
I1
sS'sexuality'
p4350
I2
sS'replaced'
p4351
I1
sS'century'
p4352
I3
sS'mystic'
p4353
I1
sS'itself'
p4354
I3
sS"darcy's"
p4355
I1
sS'leaving'
p4356
I3
sS'aches'
p4357
I1
sS'engrossed'
p4358
I1
sS'corridor'
p4359
I1
sS"weren't"
p4360
I3
sS'development'
p4361
I4
sS'assignment'
p4362
I1
sS'yesterday'
p4363
I7
sS'moment'
p4364
I10
sS'purpose'
p4365
I3
sS'peachy'
p4366
I1
sS'muttiah'
p4367
I1
sS'timid'
p4368
I2
sS'thunderously'
p4369
I1
sS'spent'
p4370
I5
sS'flags'
p4371
I1
sS'floyds'
p4372
I1
sS'entry'
p4373
I3
sS'spend'
p4374
I5
sS'echoing'
p4375
I2
sS'botticelli'
p4376
I1
sS'shape'
p4377
I1
sS'atomic'
p4378
I2
sS"radius'"
p4379
I3
sS'alternative'
p4380
I1
sS'rundown'
p4381
I4
sS'superficial'
p4382
I1
sS'hated'
p4383
I5
sS'danger'
p4384
I1
sS'source'
p4385
I2
sS'punter'
p4386
I1
sS'dixon'
p4387
I1
sS'excited'
p4388
I3
sS'hates'
p4389
I1
sS'ridiculously'
p4390
I1
sS'suffocation'
p4391
I8
sS"bono's"
p4392
I3
sS'matters'
p4393
I3
sS'cognitive'
p4394
I1
sS'follows'
p4395
I2
sS'instrumentdriven'
p4396
I1
sS'indication'
p4397
I1
sS'mediocrity'
p4398
I2
sS'bamboo'
p4399
I1
sS'google'
p4400
I5
sS'often'
p4401
I9
sS'absolutely'
p4402
I15
sS'brent'
p4403
I2
sS'scrums'
p4404
I1
sS'scale'
p4405
I1
sS'contacts'
p4406
I1
sS'bogun'
p4407
I1
sS'columbusthats'
p4408
I1
sS'decision'
p4409
I1
sS'i8217d'
p4410
I1
sS'othercountries'
p4411
I1
sS'commentator'
p4412
I1
sS'either'
p4413
I8
sS'patient'
p4414
I1
sS'rapping'
p4415
I1
sS'wayward'
p4416
I1
sS'continuing'
p4417
I2
sS'costumes'
p4418
I2
sS"'this"
p4419
I2
sS'blockbusters'
p4420
I1
sS'flanks'
p4421
I1
sS'stomps'
p4422
I1
sS'raymer'
p4423
I2
sS'goods'
p4424
I1
sS'piles'
p4425
I1
sS'goody'
p4426
I2
sS'setlist'
p4427
I1
sS'drama'
p4428
I6
sS'beans'
p4429
I1
sS'pollution'
p4430
I1
sS'jimmy'
p4431
I8
sS'lesson'
p4432
I4
sS'mccartney'
p4433
I1
sS'forward'
p4434
I6
sS'24th26th'
p4435
I1
sS'bored'
p4436
I7
sS'invite'
p4437
I2
sS'motivational'
p4438
I1
sS'juxtaposed'
p4439
I1
sS'hopes'
p4440
I1
sS"prince's"
p4441
I1
sS'groovy'
p4442
I1
sS'styris'
p4443
I1
sS'clips'
p4444
I6
sS"hopes'"
p4445
I1
sS'planes'
p4446
I2
sS'groove'
p4447
I3
sS'constant'
p4448
I1
sS'stripped'
p4449
I1
sS'mckinnon'
p4450
I1
sS'single'
p4451
I10
sS"town's"
p4452
I1
sS'freddys'
p4453
I1
sS'nonhiphop'
p4454
I1
sS'bubblegum'
p4455
I1
sS'plugged'
p4456
I1
sS'ellen'
p4457
I1
sS'explaining'
p4458
I1
sS'favourite'
p4459
I24
sS'winstone'
p4460
I5
sS'gulag'
p4461
I1
sS'prepared'
p4462
I1
sS'desert'
p4463
I12
sS'rallied'
p4464
I1
sS'scouting'
p4465
I2
sS'strolled'
p4466
I1
sS'httpwwwbreakcomindexzeroesaheroesparodyhtml'
p4467
I1
sS'cooked'
p4468
I4
sS'implied'
p4469
I1
sS'rinse'
p4470
I1
sS'aguilera'
p4471
I1
sS'lotto'
p4472
I1
sS'jason'
p4473
I5
sS'rants'
p4474
I1
sS'lagerfeld'
p4475
I2
sS'disintegration'
p4476
I1
sS'overpriced'
p4477
I4
sS'suavo'
p4478
I3
sS'compose'
p4479
I1
sS'slickness'
p4480
I1
sS'peanut'
p4481
I1
sS'literary'
p4482
I1
sS'maddie'
p4483
I1
sS'masculine'
p4484
I1
sS'mowed'
p4485
I1
sS'random'
p4486
I12
sS'putting'
p4487
I5
sS'265bpm'
p4488
I1
sS'entire'
p4489
I8
sS'respectful'
p4490
I1
sS'shock'
p4491
I3
sS'harpercollins'
p4492
I2
sS'havent'
p4493
I2
sS'unsatisfied'
p4494
I1
sS'educators'
p4495
I2
sS'carly'
p4496
I2
sS'uncomfortable'
p4497
I1
sS'scientific'
p4498
I4
sS'superbestfriends'
p4499
I1
sS'giving'
p4500
I5
sS'piper'
p4501
I6
sS'paddle'
p4502
I1
sS'access'
p4503
I2
sS"director's"
p4504
I1
sS'toast'
p4505
I1
sS'backstory'
p4506
I1
sS"partner's"
p4507
I1
sS'angsty'
p4508
I1
sS'packing'
p4509
I1
sS'objects'
p4510
I4
sS'napolean'
p4511
I1
sS'others'
p4512
I4
sS'safer'
p4513
I1
sS'irritating'
p4514
I3
sS'mindset'
p4515
I1
sS'talent'
p4516
I2
sS'conceit'
p4517
I2
sS'resurrect'
p4518
I1
sS'situations'
p4519
I1
sS'proof'
p4520
I2
sS'teenybopper'
p4521
I1
sS'control'
p4522
I5
sS'named'
p4523
I4
sS'private'
p4524
I3
sS'names'
p4525
I2
sS'composer'
p4526
I2
sS'festivals'
p4527
I1
sS'themselves'
p4528
I10
sS'upcoming'
p4529
I3
sS'train'
p4530
I1
sS'pathos'
p4531
I1
sS'subscription'
p4532
I1
sS'britney'
p4533
I5
sS'tunnel'
p4534
I1
sS'obvious'
p4535
I7
sS'oneoff'
p4536
I1
sS'praise'
p4537
I1
sS'smear'
p4538
I1
sS'crocker'
p4539
I1
sS'didnt'
p4540
I3
sS'overtly'
p4541
I1
sS'native'
p4542
I1
sS'varied'
p4543
I3
sS'democracy'
p4544
I3
sS'8220being'
p4545
I1
sS'holds'
p4546
I2
sS'hampshire'
p4547
I1
sS'regions'
p4548
I1
sS'winners'
p4549
I1
sS'forest'
p4550
I1
sS'whiteboys'
p4551
I1
sS'reqason'
p4552
I1
sS'stock'
p4553
I4
sS'profile'
p4554
I2
sS'waters'
p4555
I1
sS'collection'
p4556
I6
sS"tizard's"
p4557
I1
sS'bluff'
p4558
I1
sS'bombers'
p4559
I1
sS'lines'
p4560
I5
sS'killswitch'
p4561
I1
sS'chief'
p4562
I1
sS'furious'
p4563
I1
sS'solos'
p4564
I1
sS'addiction'
p4565
I2
sS'despite'
p4566
I8
sS'looping'
p4567
I1
sS'grendel'
p4568
I1
sS'felttastic'
p4569
I1
sS'austrian'
p4570
I1
sS'mcgrath'
p4571
I2
sS'nasty'
p4572
I2
sS'bunch'
p4573
I4
sS'anastacia'
p4574
I1
sS'reids'
p4575
I1
sS'winning'
p4576
I6
sS'seige'
p4577
I1
sS'whocreated'
p4578
I1
sS'blatant'
p4579
I1
sS'criminal'
p4580
I2
sS'greater'
p4581
I2
sS'hiphopantecedent'
p4582
I1
sS'occasions'
p4583
I1
sS'mention'
p4584
I7
sS'cutting'
p4585
I1
sS'letterbox'
p4586
I2
sS'preschool'
p4587
I1
sS'orgasmically'
p4588
I1
sS'february'
p4589
I4
sS'lipsyncing'
p4590
I1
sS'jiggling'
p4591
I1
sS'maydecember'
p4592
I1
sS'spokesperson'
p4593
I1
sS'disregard'
p4594
I1
sS'gazing'
p4595
I1
sS'filmmaking'
p4596
I2
sS'programmer'
p4597
I1
sS'programmes'
p4598
I3
sS'sexual'
p4599
I3
sS"heretic'"
p4600
I1
sS'popping'
p4601
I1
sS'culture'
p4602
I2
sS'announces'
p4603
I1
sS'oriental'
p4604
I2
sS'socalled'
p4605
I1
sS'lecture'
p4606
I1
sS'announced'
p4607
I7
sS'approached'
p4608
I3
sS'frank'
p4609
I5
sS'approaches'
p4610
I2
sS'poprock'
p4611
I1
sS'homages'
p4612
I1
sS'bleed'
p4613
I1
sS'quotwhoar'
p4614
I1
sS'retail'
p4615
I1
sS"dvd's"
p4616
I1
sS'south'
p4617
I4
sS'finest'
p4618
I2
sS'justine'
p4619
I1
sS'tributes'
p4620
I1
sS'strategic'
p4621
I1
sS'embarrassed'
p4622
I1
sS'reached'
p4623
I3
sS'ancient'
p4624
I3
sS'sadly'
p4625
I4
sS'monkey'
p4626
I1
sS'blindspott'
p4627
I2
sS'unspecified'
p4628
I1
sS'realistically'
p4629
I2
sS'pakistani'
p4630
I1
sS'eavesdrop'
p4631
I1
sS'explanation'
p4632
I1
sS'nobody'
p4633
I3
sS'spiegel'
p4634
I1
sS'oaktown'
p4635
I1
sS'loved'
p4636
I9
sS'slack'
p4637
I1
sS'morph'
p4638
I1
sS'dianas'
p4639
I1
sS'loves'
p4640
I1
sS'lover'
p4641
I1
sS'mackey'
p4642
I4
sS'visited'
p4643
I2
sS'7continent'
p4644
I1
sS'kubrick'
p4645
I2
sS'lyset'
p4646
I1
sS'comfortable'
p4647
I2
sS'comfortably'
p4648
I1
sS'unlikely'
p4649
I1
sS'throat'
p4650
I1
sS'httpwwwimdbcomtitlett0449088'
p4651
I1
sS'apparently'
p4652
I4
sS'catapults'
p4653
I1
sS'haywire'
p4654
I1
sS'congratz'
p4655
I1
sS"'smart'"
p4656
I1
sS'ratarse'
p4657
I1
sS'unless'
p4658
I2
sS'eight'
p4659
I2
sS'munter'
p4660
I3
sS'hostesses'
p4661
I3
sS'heartening'
p4662
I1
sS'enthusiastic'
p4663
I2
sS'request'
p4664
I1
sS'disease'
p4665
I3
sS'kennedyflairs'
p4666
I1
sS'workspace'
p4667
I2
sS'skinny'
p4668
I3
sS'normally'
p4669
I3
sS'selection'
p4670
I2
sS'charles'
p4671
I2
sS'kaylee'
p4672
I1
sS'underappreciated'
p4673
I2
sS'service8211but'
p4674
I1
sS'inspiring'
p4675
I2
sS'communism'
p4676
I1
sS'uncurious'
p4677
I1
sS'knowledge'
p4678
I1
sS'controls'
p4679
I1
sS'bernard'
p4680
I1
sS'prancing'
p4681
I1
sS'spice'
p4682
I2
sS'regularly'
p4683
I1
sS'exceptional'
p4684
I1
sS'photography'
p4685
I2
sS'reputations'
p4686
I1
sS"luhrman's"
p4687
I1
sS'aforementioned'
p4688
I2
sS'timing'
p4689
I1
sS'lifestyles'
p4690
I1
sS'intersting'
p4691
I1
sS'teams'
p4692
I6
sS"won't"
p4693
I6
sS'gibson'
p4694
I1
sS'puddle'
p4695
I1
sS'intensity'
p4696
I2
sS'australaisia'
p4697
I1
sS'terms'
p4698
I3
sS'maynard'
p4699
I1
sS'phases'
p4700
I1
sS'exploited'
p4701
I1
sS'strawberry'
p4702
I1
sS'pattern'
p4703
I1
sS'progress'
p4704
I5
sS'rocketboom'
p4705
I2
sS'dominatrix'
p4706
I1
sS'pratchett39s'
p4707
I2
sS'reproduced'
p4708
I1
sS'anonymously'
p4709
I1
sS'willing'
p4710
I1
sS'maaaaatt'
p4711
I1
sS"complainant's"
p4712
I1
sS'synced'
p4713
I1
sS'instant'
p4714
I1
sS'taking'
p4715
I8
sS'longwinded'
p4716
I1
sS'otherwise'
p4717
I1
sS'comment'
p4718
I4
sS'relevant'
p4719
I2
sS'laugh'
p4720
I4
sS'tremendous'
p4721
I1
sS'bumblebee'
p4722
I2
sS'copies'
p4723
I2
sS'proposal'
p4724
I1
sS'finishes'
p4725
I1
sS'exhelmet'
p4726
I1
sS'essentially'
p4727
I3
sS'finished'
p4728
I6
sS'tense'
p4729
I1
sS'general'
p4730
I6
sS'mourning'
p4731
I3
sS'volunteer'
p4732
I1
sS'quotphantom'
p4733
I1
sS'atmospheric'
p4734
I2
sS'imagination'
p4735
I1
sS'plain'
p4736
I3
sS'appearance'
p4737
I1
sS'value'
p4738
I1
sS'sensationalistic'
p4739
I1
sS'almost'
p4740
I23
sS'dissent'
p4741
I1
sS'delusion'
p4742
I1
sS'helped'
p4743
I3
sS'arrangements'
p4744
I4
sS"winstone's"
p4745
I1
sS'claimed'
p4746
I2
sS'partner'
p4747
I1
sS'arabic'
p4748
I2
sS'riproaring'
p4749
I1
sS'another'
p4750
I44
sS'slammed'
p4751
I1
sS'eugenie'
p4752
I1
sS'frivolous'
p4753
I1
sS'tarja'
p4754
I5
sS'novels'
p4755
I1
sS'reporting'
p4756
I2
sS'corkers'
p4757
I1
sS'sisters'
p4758
I1
sS'dvcam'
p4759
I1
sS"writer's"
p4760
I1
sS'center'
p4761
I2
sS'nevertheless'
p4762
I1
sS'antonio'
p4763
I1
sS'thought'
p4764
I19
sS'exceedingly'
p4765
I1
sS'position'
p4766
I1
sS'creators'
p4767
I2
sS'soviet'
p4768
I5
sS'usual'
p4769
I7
sS'pricegrabber'
p4770
I1
sS'fixated'
p4771
I1
sS'coaster'
p4772
I1
sS'executive'
p4773
I1
sS'wagner'
p4774
I1
sS'storey'
p4775
I1
sS'interim'
p4776
I1
sS'seats'
p4777
I2
sS'hanksrobert'
p4778
I1
sS'raves'
p4779
I1
sS'podcast'
p4780
I1
sS'demographic'
p4781
I1
sS'recommending'
p4782
I1
sS'hippies'
p4783
I1
sS'raved'
p4784
I1
sS'voila'
p4785
I1
sS'match'
p4786
I4
sS'resolved'
p4787
I1
sS'royalty'
p4788
I4
sS'audibly'
p4789
I1
sS'success'
p4790
I2
sS'journalism'
p4791
I1
sS'journalist'
p4792
I1
sS'chick'
p4793
I1
sS'works'
p4794
I5
sS'suffo'
p4795
I1
sS'italian'
p4796
I3
sS'accessible'
p4797
I1
sS'classical'
p4798
I2
sS'webbased'
p4799
I2
sS'interludes'
p4800
I1
sS'alive'
p4801
I1
sS'proper'
p4802
I3
sS'happens'
p4803
I6
sS"'actors'"
p4804
I1
sS'taika'
p4805
I2
sS'tucks'
p4806
I1
sS'act0ring'
p4807
I1
sS'noise'
p4808
I1
sS'beatbox'
p4809
I1
sS'hoohaa'
p4810
I1
sS'although'
p4811
I6
sS'worthy'
p4812
I1
sS'outbox'
p4813
I1
sS'loveletter'
p4814
I1
sS'kollias'
p4815
I1
sS'panel'
p4816
I2
sS'seriousness'
p4817
I1
sS'actual'
p4818
I6
sS'justin'
p4819
I1
sS'flatmates'
p4820
I1
sS'introduced'
p4821
I1
sS'smarts'
p4822
I1
sS'childrens'
p4823
I1
sS'unbox'
p4824
I1
sS"noone's"
p4825
I1
sS'chemists'
p4826
I1
sS'doesnt'
p4827
I4
sS'female'
p4828
I6
sS"santa'"
p4829
I1
sS'sadlydeparted'
p4830
I1
sS'alistair'
p4831
I1
sS'demeanour'
p4832
I1
sS'mescalin'
p4833
I1
sS'biggest'
p4834
I7
sS'totempole'
p4835
I1
sS'brand'
p4836
I3
sS'sequel'
p4837
I1
sS'reminds'
p4838
I2
sS'repeated'
p4839
I1
sS'disasterit'
p4840
I1
sS'editing'
p4841
I8
sS'versatile'
p4842
I1
sS'partially'
p4843
I1
sS'misty'
p4844
I1
sS'princes'
p4845
I2
sS'glory'
p4846
I4
sS'dangerous'
p4847
I1
sS'shades'
p4848
I2
sS'minutes'
p4849
I20
sS'domine'
p4850
I1
sS'supreme'
p4851
I7
sS'supremo'
p4852
I1
sS'domino'
p4853
I1
sS'shooting'
p4854
I4
sS'proceeds'
p4855
I1
sS'tellquot'
p4856
I1
sS'dressed'
p4857
I3
sS'detail'
p4858
I4
sS'patsy'
p4859
I1
sS'surreal'
p4860
I3
sS'jeeps'
p4861
I1
sS"barrett's"
p4862
I1
sS'dresses'
p4863
I2
sS'conveys'
p4864
I1
sS'bailter'
p4865
I2
sS'detractors'
p4866
I1
sS'variation'
p4867
I2
sS'dictaphone'
p4868
I1
sS"'technical"
p4869
I1
sS'bitsy'
p4870
I1
sS'leggings'
p4871
I1
sS'astronomy'
p4872
I1
sS'choicelinks'
p4873
I3
sS'resolution'
p4874
I1
sS'cookbook'
p4875
I1
sS'limited'
p4876
I1
sS'sleep'
p4877
I8
sS'warthemed'
p4878
I1
sS'ridiculous'
p4879
I9
sS"tonight's"
p4880
I1
sS'assembled'
p4881
I1
sS'paris'
p4882
I7
sS'bureaucrats'
p4883
I1
sS'midseason'
p4884
I2
sS'supported'
p4885
I3
sS'under'
p4886
I13
sS'schizophrenically'
p4887
I1
sS'shellac'
p4888
I2
sS'louder'
p4889
I2
sS'bosoms'
p4890
I1
sS'every'
p4891
I25
sS"hardcore'"
p4892
I1
sS'trailer'
p4893
I2
sS'school'
p4894
I11
sS'calif'
p4895
I1
sS'loneliness'
p4896
I1
sS'venue'
p4897
I7
sS'soundtracks'
p4898
I2
sS'glued'
p4899
I1
sS'enjoy'
p4900
I8
sS'banderas'
p4901
I1
sS'leaders'
p4902
I2
sS'direct'
p4903
I2
sS'antithe'
p4904
I1
sS'surrounding'
p4905
I1
sS'street'
p4906
I9
sS'emptiness'
p4907
I1
sS'christ'
p4908
I3
sS'zombielike'
p4909
I1
sS'beaten'
p4910
I1
sS'revolver'
p4911
I1
sS'children'
p4912
I4
sS'endorse'
p4913
I1
sS'getawaygotaway'
p4914
I1
sS"gman's"
p4915
I1
sS'disney'
p4916
I5
sS"apreda's"
p4917
I1
sS'kicked'
p4918
I2
sS'studio'
p4919
I8
sS"wedding'"
p4920
I1
sS'forum'
p4921
I3
sS'stevie'
p4922
I2
sS'changed'
p4923
I4
sS'allready'
p4924
I1
sS'changes'
p4925
I3
sS'midway'
p4926
I1
sS'swearing'
p4927
I1
sS'ridiculed'
p4928
I1
sS'visibly'
p4929
I1
sS'feelings'
p4930
I1
sS'outro'
p4931
I1
sS'forums'
p4932
I2
sS'would'
p4933
I96
sS'hospital'
p4934
I1
sS'mcphun'
p4935
I2
sS'distributing'
p4936
I1
sS'asses'
p4937
I1
sS'asset'
p4938
I2
sS'spike'
p4939
I2
sS'preserved'
p4940
I1
sS'mystical'
p4941
I1
sS'phony'
p4942
I1
sS'grief'
p4943
I2
sS'phone'
p4944
I3
sS'excellent'
p4945
I4
sS'shoot'
p4946
I4
sS'entertained'
p4947
I2
sS'henry'
p4948
I2
sS'carmen'
p4949
I2
sS'shook'
p4950
I1
sS'watertight'
p4951
I1
sS'razhel'
p4952
I1
sS'estate'
p4953
I2
sS'paparazzi'
p4954
I1
sS'scheduling'
p4955
I1
sS'jumble'
p4956
I1
sS'santana'
p4957
I1
sS'sitting'
p4958
I7
sS'astronomers'
p4959
I1
sS'writers'
p4960
I10
sS'aching'
p4961
I1
sS'lastfm'
p4962
I1
sS'widespread'
p4963
I1
sS'charging'
p4964
I1
sS'eyeballs'
p4965
I1
sS'badly'
p4966
I2
sS'poker'
p4967
I3
sS'description'
p4968
I1
sS'imaginable'
p4969
I1
sS'demanding'
p4970
I1
sS'sparkles'
p4971
I1
sS'appearancist'
p4972
I1
sS'danny'
p4973
I3
sS'shrek'
p4974
I4
sS'summing'
p4975
I1
sS'hypnotic'
p4976
I2
sS'patent'
p4977
I1
sS'complexity'
p4978
I1
sS'ultimate'
p4979
I7
sS'enter'
p4980
I1
sS'plumbing'
p4981
I1
sS'london'
p4982
I4
sS'forehead'
p4983
I2
sS'assassinatedn'
p4984
I1
sS'22nbsp'
p4985
I1
sS'expectations'
p4986
I3
sS'writing'
p4987
I11
sS'destroyed'
p4988
I1
sS'compelling'
p4989
I2
sS'sophocles'
p4990
I1
sS'diseases'
p4991
I2
sS'powerful'
p4992
I4
sS'manicure'
p4993
I1
sS'stinking'
p4994
I1
sS'chuck'
p4995
I26
sS'choir'
p4996
I1
sS'lauer'
p4997
I1
sS'drugged'
p4998
I1
sS"complaint's"
p4999
I1
sS'diana'
p5000
I2
sS'practising'
p5001
I1
sS'saturday'
p5002
I14
sS'revisions'
p5003
I1
sS'islanders'
p5004
I1
sS'driving'
p5005
I1
sS'trumpeter'
p5006
I1
sS'washed'
p5007
I1
sS'donovan'
p5008
I1
sS'millennium'
p5009
I1
sS'heavenly'
p5010
I1
sS'washer'
p5011
I1
sS'jasmax'
p5012
I3
sS'associate'
p5013
I2
sS'eternal'
p5014
I1
sS"'suffering'"
p5015
I1
sS'masterpiece'
p5016
I5
sS'chuckers'
p5017
I1
sS'wanted'
p5018
I3
sS'screwedlisten'
p5019
I1
sS'turntables'
p5020
I1
sS'outfits'
p5021
I2
sS'recite'
p5022
I1
sS'artistry'
p5023
I1
sS'already'
p5024
I16
sS'attractions'
p5025
I2
sS'encouraging'
p5026
I2
sS'hearing'
p5027
I1
sS'lovable'
p5028
I1
sS'fantasy'
p5029
I4
sS'sober'
p5030
I1
sS'scissors'
p5031
I1
sS'mercury'
p5032
I1
sS'revival'
p5033
I2
sS'guinness'
p5034
I1
sS'fiction'
p5035
I1
sS'hyperneotenic'
p5036
I1
sS'urban'
p5037
I2
sS'ceiling'
p5038
I2
sS'murder'
p5039
I3
sS'esoteric'
p5040
I1
sS'pondering'
p5041
I1
sS'western'
p5042
I1
sS'erickson'
p5043
I1
sS'frankly'
p5044
I2
sS'150mm'
p5045
I2
sS'edmonds'
p5046
I1
sS'flame'
p5047
I2
sS'tassler'
p5048
I2
sS'honourable'
p5049
I1
sS'screenplay'
p5050
I3
sS'bridge'
p5051
I3
sS'fashion'
p5052
I8
sS"'boobs"
p5053
I1
sS'talking'
p5054
I9
sS'lunchtime'
p5055
I1
sS'beckett'
p5056
I1
sS'relatively'
p5057
I1
sS'traditionally'
p5058
I1
sS'fashionforward'
p5059
I1
sS'stoneybridge'
p5060
I2
sS'thoroughly'
p5061
I2
sS'rebroadcasting'
p5062
I1
sS'brandon'
p5063
I2
sS'laughed'
p5064
I3
sS'rides'
p5065
I2
sS'kickstarting'
p5066
I1
sS'inured'
p5067
I1
sS'though'
p5068
I26
sS'mother'
p5069
I8
sS'i8217m'
p5070
I4
sS'plenty'
p5071
I6
sS'prostitute'
p5072
I1
sS'promotions'
p5073
I2
sS'treats'
p5074
I1
sS'xfiles'
p5075
I2
sS'metal'
p5076
I32
sS'shellnecklaces'
p5077
I1
sS'entertaining'
p5078
I3
sS'amphitheatre'
p5079
I1
sS'inspire'
p5080
I2
sS'contacted'
p5081
I2
sS'reductions'
p5082
I1
sS'labels'
p5083
I2
sS'stringent'
p5084
I1
sS'radio'
p5085
I16
sS'earth'
p5086
I6
sS'spite'
p5087
I2
sS"'comfort"
p5088
I2
sS'wwwpremisemediacom'
p5089
I1
sS'knuckle'
p5090
I1
sS'lodge'
p5091
I1
sS'announce'
p5092
I3
sS"musical'"
p5093
I1
sS'mixture'
p5094
I1
sS'watch'
p5095
I33
sS'blinking'
p5096
I1
sS'baffle'
p5097
I1
sS'exthe'
p5098
I1
sS'amazon'
p5099
I6
sS'ultimatum'
p5100
I1
sS'wedding'
p5101
I3
sS'report'
p5102
I1
sS'interrogated'
p5103
I1
sS'countries'
p5104
I1
sS'absolutelyandy'
p5105
I1
sS'happeningwell'
p5106
I1
sS'bluesrock'
p5107
I1
sS'idiotic'
p5108
I1
sS'twice'
p5109
I2
sS'shots'
p5110
I2
sS'resist'
p5111
I1
sS'demented'
p5112
I1
sS'173000'
p5113
I1
sS'corrupt'
p5114
I3
sS'disturbing'
p5115
I4
sS'fennesz'
p5116
I1
sS"c'mon"
p5117
I2
sS'capacity'
p5118
I2
sS'interviewing'
p5119
I1
sS'grandmother'
p5120
I1
sS'deceptively'
p5121
I1
sS'slottet'
p5122
I1
sS'discovers'
p5123
I1
sS'hopefully'
p5124
I3
sS'knobbing'
p5125
I1
sS'herding'
p5126
I2
sS'criedso'
p5127
I2
sS'confusion'
p5128
I1
sS'incarnation'
p5129
I2
sS'however'
p5130
I22
sS'blasted'
p5131
I1
sS'faced'
p5132
I1
sS'protect'
p5133
I2
sS'fault'
p5134
I1
sS'players'
p5135
I4
sS'games'
p5136
I1
sS'mildly'
p5137
I1
sS'faces'
p5138
I1
sS'compilations'
p5139
I2
sS'don8217t'
p5140
I6
sS'rounders'
p5141
I1
sS'enforced'
p5142
I1
sS'epidemic'
p5143
I1
sS'karen'
p5144
I1
sS'comprehension'
p5145
I1
sS'organisor'
p5146
I1
sS'trust'
p5147
I1
sS'yoursquoll'
p5148
I1
sS'bathroom'
p5149
I3
sS'rubgy'
p5150
I1
sS'quickly'
p5151
I4
sS'expected'
p5152
I2
sS'publisher'
p5153
I1
sS'drugs'
p5154
I1
sS'craft'
p5155
I1
sS'catch'
p5156
I4
sS'unaccredited'
p5157
I1
sS'heartland'
p5158
I1
sS'lesser'
p5159
I1
sS'teachers'
p5160
I1
sS'penultimate'
p5161
I1
sS'cracked'
p5162
I1
sS'darwins'
p5163
I1
sS'meave'
p5164
I1
sS'experts'
p5165
I2
sS'experience'
p5166
I6
sS'nameof'
p5167
I1
sS"'whogivesa'"
p5168
I1
sS'pyrotechnics'
p5169
I1
sS'suggest'
p5170
I5
sS'beside'
p5171
I1
sS'complex'
p5172
I3
sS'freedomloving'
p5173
I1
sS'several'
p5174
I9
sS'satellite'
p5175
I1
sS'pampering'
p5176
I1
sS'peaks'
p5177
I1
sS'screw'
p5178
I1
sS'greeted'
p5179
I1
sS'suburb'
p5180
I4
sS'riffs'
p5181
I8
sS'characters'
p5182
I16
sS'squeezing'
p5183
I1
sS'dylan'
p5184
I3
sS'shortly'
p5185
I2
sS'paralysed'
p5186
I1
sS'charlie'
p5187
I4
sS'ocean'
p5188
I2
sS'kristy'
p5189
I1
sS'hearty'
p5190
I1
sS'greatest'
p5191
I13
sS'incapable'
p5192
I1
sS'webcasters'
p5193
I2
sS'hearts'
p5194
I2
sS'ccile'
p5195
I1
sS'proposed'
p5196
I1
sS'laptop'
p5197
I1
sS'starting'
p5198
I5
sS"syndicate's"
p5199
I1
sS'bugged'
p5200
I1
sS'campbell'
p5201
I2
sS'shorthand'
p5202
I1
sS'rhythmically'
p5203
I1
sS'zealand8217s'
p5204
I2
sS'defrosted'
p5205
I1
sS'humanity'
p5206
I4
sS'actresses'
p5207
I1
sS'casting'
p5208
I5
sS'salacious'
p5209
I2
sS'metaphorical'
p5210
I1
sS'bands'
p5211
I16
sS'cultural'
p5212
I2
sS'judge'
p5213
I3
sS'popmart'
p5214
I2
sS'apart'
p5215
I7
sS'intertwined'
p5216
I1
sS'orlando'
p5217
I2
sS'specific'
p5218
I1
sS'broadcaster'
p5219
I1
sS'offices'
p5220
I1
sS'overrated'
p5221
I2
sS'we8217re'
p5222
I2
sS'incumbents'
p5223
I1
sS'frustrations'
p5224
I1
sS'successfully'
p5225
I1
sS'gillhooley'
p5226
I1
sS'clubs'
p5227
I2
sS'election'
p5228
I1
sS'displeasure'
p5229
I1
sS'escape'
p5230
I2
sS'24hour'
p5231
I2
sS'theyre'
p5232
I2
sS'cooper'
p5233
I3
sS'geekness'
p5234
I1
sS"'crap"
p5235
I1
sS'oneman'
p5236
I2
sS'everything'
p5237
I11
sS'ditty'
p5238
I1
sS'mondayitis'
p5239
I1
sS'mystifies'
p5240
I1
sS'christmas'
p5241
I7
sS'flaps'
p5242
I2
sS'disappeared'
p5243
I1
sS'discount'
p5244
I1
sS'featurelength'
p5245
I1
sS'cowboy'
p5246
I1
sS'furtado'
p5247
I2
sS'dinner'
p5248
I8
sS'ensure'
p5249
I1
sS'logistical'
p5250
I1
sS'efforts'
p5251
I5
sS'nooooooo'
p5252
I1
sS'curry'
p5253
I1
sS'dials'
p5254
I1
sS'froze'
p5255
I1
sS'civic'
p5256
I2
sS'delve'
p5257
I1
sS'cubicle'
p5258
I1
sS'rounds'
p5259
I1
sS'transform'
p5260
I1
sS'stuck'
p5261
I1
sS'striding'
p5262
I1
sS'minter'
p5263
I1
sS'nbspnbsp'
p5264
I8
sS'rivate'
p5265
I1
sS'questionable'
p5266
I1
sS'medium'
p5267
I1
sS'litanies'
p5268
I1
sS'polyphonic'
p5269
I2
sS'removes'
p5270
I1
sS'plumber'
p5271
I2
sS'heinous'
p5272
I1
sS'uncle'
p5273
I1
sS'ivorytinkling'
p5274
I1
sS'faders'
p5275
I1
sS'backbeat'
p5276
I2
sS'versions'
p5277
I4
sS'muster'
p5278
I1
sS'ruined'
p5279
I3
sS'brightly'
p5280
I1
sS'knees'
p5281
I2
sS'sometime'
p5282
I1
sS'perez'
p5283
I1
sS'shines'
p5284
I1
sS'annoying'
p5285
I2
sS'check'
p5286
I13
sS'blatantly'
p5287
I1
sS'outstretched'
p5288
I1
sS'faithful'
p5289
I1
sS'whereas'
p5290
I1
sS'fitzgerald'
p5291
I1
sS'setting'
p5292
I3
sS'papers'
p5293
I1
sS'meowy'
p5294
I1
sS'eternity'
p5295
I1
sS'picture'
p5296
I6
sS'phoenix'
p5297
I2
sS'trailers'
p5298
I1
sS'younger'
p5299
I1
sS'portends'
p5300
I1
sS'faster'
p5301
I1
sS'bullet'
p5302
I2
sS'australians'
p5303
I1
sS'ryder'
p5304
I1
sS'withhold'
p5305
I1
sS'uncovered'
p5306
I1
sS'serious'
p5307
I5
sS'premeditated'
p5308
I1
sS'remarkable'
p5309
I4
sS'impression'
p5310
I2
sS'celebs'
p5311
I3
sS'focus'
p5312
I4
sS'extremities'
p5313
I1
sS'romcom'
p5314
I1
sS'netball'
p5315
I1
sS'categorised'
p5316
I1
sS'environment'
p5317
I2
sS'charge'
p5318
I1
sS"band's"
p5319
I1
sS'advantage'
p5320
I1
sS'frequencies'
p5321
I2
sS'chooks'
p5322
I1
sS'landreth'
p5323
I1
sS'sponsors'
p5324
I2
sS'unfamiliar'
p5325
I2
sS'screenwriting'
p5326
I5
sS'untenable'
p5327
I1
sS'tanks'
p5328
I2
sS'impressive'
p5329
I3
sS'level'
p5330
I5
sS'posts'
p5331
I1
sS'brother'
p5332
I2
sS'culminating'
p5333
I1
sS'standards'
p5334
I5
sS'science'
p5335
I5
sS'quick'
p5336
I2
sS'svelte'
p5337
I1
sS'trend'
p5338
I3
sS'farted'
p5339
I2
sS'invaded'
p5340
I1
sS'substitute'
p5341
I1
sS'drinks'
p5342
I3
sS'stands'
p5343
I2
sS'deluded'
p5344
I1
sS'contracted'
p5345
I1
sS'pleased'
p5346
I2
sS'angelina'
p5347
I2
sS'morgan'
p5348
I3
sS'water'
p5349
I7
sS'witch'
p5350
I1
sS'standout'
p5351
I1
sS'thirty'
p5352
I2
sS'automator'
p5353
I1
sS'healthy'
p5354
I1
sS'muscleman'
p5355
I1
sS'proud'
p5356
I1
sS'christchurch'
p5357
I7
sS'weird'
p5358
I6
sS'humour'
p5359
I5
sS'tweak'
p5360
I1
sS'compare'
p5361
I1
sS"nzer's"
p5362
I1
sS'crisis'
p5363
I1
sS'ipecac'
p5364
I1
sS'russell'
p5365
I1
sS'australias'
p5366
I1
sS'onthe'
p5367
I1
sS'memory'
p5368
I6
sS'australian'
p5369
I3
sS'nobrainer'
p5370
I1
sS'today'
p5371
I16
sS'sessions'
p5372
I2
sS'clicking'
p5373
I1
sS'reaquire'
p5374
I1
sS'chocolate'
p5375
I1
sS'teaser'
p5376
I1
sS'drown'
p5377
I1
sS'beers'
p5378
I1
sS'8220better8221'
p5379
I1
sS'cases'
p5380
I4
sS'arthouse'
p5381
I1
sS'thousands'
p5382
I3
sS'modified'
p5383
I1
sS'ferry'
p5384
I1
sS'laughter'
p5385
I1
sS'geeky'
p5386
I1
sS'figure'
p5387
I4
sS'amazons'
p5388
I2
sS'geeks'
p5389
I2
sS'stroke'
p5390
I1
sS'celsius'
p5391
I1
sS'dropped'
p5392
I1
sS'hippydippy'
p5393
I1
sS'counting'
p5394
I1
sS'reece'
p5395
I1
sS'dress'
p5396
I8
sS'midperiod'
p5397
I1
sS'vital'
p5398
I1
sS'biography'
p5399
I4
sS'fourth'
p5400
I1
sS'springfield'
p5401
I2
sS'copeland'
p5402
I1
sS'disappearednbsp'
p5403
I1
sS'paramount'
p5404
I4
sS'crashes'
p5405
I1
sS'clone'
p5406
I2
sS'siren'
p5407
I1
sS"pulman's"
p5408
I1
sS'birthday'
p5409
I9
sS'eighth'
p5410
I1
sS'unbelievably'
p5411
I2
sS'liquid'
p5412
I1
sS'inform'
p5413
I1
sS'shinning'
p5414
I1
sS'words'
p5415
I15
sS'ludacris'
p5416
I1
sS"radiolina'"
p5417
I1
sS'werent'
p5418
I1
sS'dilemma'
p5419
I1
sS'rumoured'
p5420
I1
sS'presence'
p5421
I2
sS'shortland'
p5422
I2
sS'platform'
p5423
I1
sS'offers'
p5424
I1
sS'farmer'
p5425
I1
sS'coordinated'
p5426
I1
sS'incorectly'
p5427
I1
sS'happened'
p5428
I7
sS'lonely'
p5429
I4
sS'underneath'
p5430
I2
sS'qualified'
p5431
I1
sS'hamilton'
p5432
I3
sS'reflexs'
p5433
I1
sS'boozing'
p5434
I1
sS'superlatives'
p5435
I2
sS'inheriting'
p5436
I1
sS'opera'
p5437
I3
sS'sensibilities'
p5438
I1
sS'debating'
p5439
I1
sS'possibilities'
p5440
I1
sS'realise'
p5441
I5
sS'weighted'
p5442
I1
sS'populated'
p5443
I1
sS'begun'
p5444
I1
sS'distributor'
p5445
I3
sS'suzanne'
p5446
I8
sS'obsession'
p5447
I1
sS'reckons'
p5448
I2
sS'plans'
p5449
I2
sS'ultimately'
p5450
I4
sS"america's"
p5451
I1
sS'profit'
p5452
I1
sS'classy'
p5453
I2
sS'factory'
p5454
I2
sS'treading'
p5455
I1
sS'attracted'
p5456
I1
sS'leviathan'
p5457
I5
sS"shouldn't"
p5458
I2
sS'eagle'
p5459
I4
sS'attended'
p5460
I5
sS'karori'
p5461
I1
sS'theory'
p5462
I3
sS'boobs'
p5463
I3
sS'octopz'
p5464
I2
sS'flyer'
p5465
I1
sS'sophistication'
p5466
I1
sS'motion'
p5467
I5
sS'strange'
p5468
I3
sS'place'
p5469
I19
sS'swing'
p5470
I1
sS'motherfuckers'
p5471
I2
sS'soderbergh'
p5472
I1
sS'moneymaker'
p5473
I2
sS'revenue'
p5474
I1
sS'symbolic'
p5475
I1
sS'intone'
p5476
I1
sS'george'
p5477
I4
sS'tingling'
p5478
I1
sS'given'
p5479
I7
sS'necessarily'
p5480
I2
sS'district'
p5481
I1
sS'returns'
p5482
I3
sS'legally'
p5483
I1
sS'white'
p5484
I10
sS'live365'
p5485
I1
sS'gives'
p5486
I3
sS'chiklis'
p5487
I1
sS'season'
p5488
I46
sS"creative's"
p5489
I1
sS"jackson's"
p5490
I1
sS'released'
p5491
I14
sS'population'
p5492
I1
sS'unfortunately'
p5493
I3
sS'require'
p5494
I1
sS'modelled'
p5495
I1
sS'officials'
p5496
I2
sS'aesthetic'
p5497
I2
sS'cards'
p5498
I2
sS'worcester'
p5499
I1
sS'mates'
p5500
I4
sS'favoutite'
p5501
I1
sS'michels'
p5502
I1
sS'superman'
p5503
I1
sS'corbett'
p5504
I1
sS'exploratory'
p5505
I1
sS'ideas'
p5506
I3
sS'wandered'
p5507
I2
sS'emphasis'
p5508
I1
sS'animation'
p5509
I4
sS'blunt'
p5510
I1
sS'more8230'
p5511
I3
sS"j'tais"
p5512
I1
sS'multiple'
p5513
I1
sS'printable'
p5514
I1
sS'falls'
p5515
I2
sS'connor'
p5516
I1
sS'freshman'
p5517
I1
sS'thinknbsp'
p5518
I1
sS'considered'
p5519
I3
sS'yelped'
p5520
I1
sS'hungry'
p5521
I2
sS'chanteur'
p5522
I1
sS'senior'
p5523
I1
sS'cheat'
p5524
I1
sS'year8217s'
p5525
I1
sS'recipe'
p5526
I1
sS'sustained'
p5527
I2
sS'nadir'
p5528
I1
sS'tenminute'
p5529
I1
sS'state'
p5530
I9
sS'crime'
p5531
I6
sS'crims'
p5532
I1
sS'zealanders'
p5533
I3
sS'expectation'
p5534
I1
sS'treachery'
p5535
I2
sS'freaking'
p5536
I1
sS'beastie'
p5537
I1
sS'reveal'
p5538
I3
sS'pinnacle'
p5539
I1
sS'joked'
p5540
I1
sS'team8217s'
p5541
I1
sS'naked'
p5542
I1
sS'jokes'
p5543
I2
sS'embassy'
p5544
I1
sS'mapped'
p5545
I1
sS'bought'
p5546
I12
sS'discussing'
p5547
I2
sS'reveals'
p5548
I3
sS'beethoven'
p5549
I1
sS'signs'
p5550
I1
sS'connections'
p5551
I1
sS'dickhead'
p5552
I1
sS"siren'"
p5553
I1
sS'collects'
p5554
I1
sS'divisionthemed'
p5555
I1
sS'encouraged'
p5556
I3
sS"'hearts"
p5557
I1
sS'managing'
p5558
I1
sS'review'
p5559
I18
sS'commitments'
p5560
I1
sS'spoons'
p5561
I1
sS'outside'
p5562
I4
sS'199596'
p5563
I1
sS'arrival'
p5564
I2
sS'tania'
p5565
I1
sS'rumours'
p5566
I2
sS'hovered'
p5567
I1
sS'reaction'
p5568
I1
sS'spared'
p5569
I1
sS'successes'
p5570
I2
sS'jericho'
p5571
I10
sS'gimmicks'
p5572
I1
sS'quiet'
p5573
I4
sS'contract'
p5574
I1
sS"nzers'"
p5575
I2
sS'railway'
p5576
I1
sS'afterwards'
p5577
I2
sS'armchair'
p5578
I1
sS'period'
p5579
I4
sS'sampling'
p5580
I1
sS'walden'
p5581
I1
sS'nicola'
p5582
I1
sS'tropes'
p5583
I1
sS'nicole'
p5584
I1
sS'turkey'
p5585
I1
sS'howard'
p5586
I3
sS'filmmakers'
p5587
I1
sS'lapdance'
p5588
I1
sS'featuring'
p5589
I3
sS'hardly'
p5590
I3
sS'enraptured'
p5591
I1
sS'schoolboy'
p5592
I1
sS'engine'
p5593
I1
sS'tasteless'
p5594
I4
sS'andrew'
p5595
I5
sS'mocking'
p5596
I1
sS"frost's"
p5597
I1
sS'careful'
p5598
I3
sS'pilot'
p5599
I2
sS'paying'
p5600
I1
sS'shaft'
p5601
I1
sS'myself'
p5602
I20
sS'spiderman'
p5603
I1
sS'henin'
p5604
I1
sS'punches'
p5605
I2
sS'isfun'
p5606
I1
sS'pippa'
p5607
I1
sS'ellison'
p5608
I1
sS'findsounds'
p5609
I1
sS'believable'
p5610
I1
sS'ironic'
p5611
I3
sS'astrobiologist'
p5612
I1
sS'downers'
p5613
I1
sS'author'
p5614
I8
sS'granted'
p5615
I1
sS'reminded'
p5616
I3
sS'shifts'
p5617
I1
sS'breathless'
p5618
I1
sS'reminder'
p5619
I1
sS'events'
p5620
I8
sS'status'
p5621
I2
sS'applaud'
p5622
I1
sS'downloads'
p5623
I2
sS'producers'
p5624
I2
sS'persons'
p5625
I2
sS'decently'
p5626
I1
sS'rocknroll'
p5627
I1
sS'delicate'
p5628
I1
sS'changing'
p5629
I2
sS'cartoon'
p5630
I4
sS'westpac'
p5631
I3
sS'magical'
p5632
I1
sS'melodramatic'
p5633
I1
sS'without'
p5634
I11
sS'model'
p5635
I2
sS'bodies'
p5636
I2
sS'justify'
p5637
I2
sS'guided'
p5638
I1
sS'actions'
p5639
I2
sS'violent'
p5640
I1
sS'guygirl'
p5641
I1
sS'polish'
p5642
I1
sS'rewatch'
p5643
I1
sS'satin'
p5644
I2
sS'captured'
p5645
I2
sS'announcement'
p5646
I6
sS'tonys'
p5647
I1
sS'feminist'
p5648
I3
sS"we've"
p5649
I1
sS"everyone's"
p5650
I1
sS'seems'
p5651
I19
sS'except'
p5652
I2
sS'heliogabalus'
p5653
I1
sS'association'
p5654
I2
sS'samples'
p5655
I1
sS'reformed'
p5656
I1
sS'scheduled'
p5657
I1
sS'kills'
p5658
I1
sS'easily'
p5659
I3
sS'virginia'
p5660
I1
sS'loaned'
p5661
I1
sS'predetermined'
p5662
I1
sS'styled'
p5663
I1
sS'accepted'
p5664
I2
sS'gorier'
p5665
I1
sS'towel'
p5666
I1
sS'photographs'
p5667
I2
sS'twostorey'
p5668
I1
sS'oddly'
p5669
I2
sS'reduced'
p5670
I1
sS'predicition'
p5671
I1
sS'rammstein'
p5672
I1
sS'competition'
p5673
I11
sS'bantha'
p5674
I1
sS'confronts'
p5675
I1
sS"victoria's"
p5676
I1
sS"bach's"
p5677
I2
sS'slice'
p5678
I1
sS'caribbean'
p5679
I4
sS'prolific'
p5680
I1
sS'sitta'
p5681
I1
sS'slick'
p5682
I3
sS'legal'
p5683
I2
sS'habits'
p5684
I1
sS'provides'
p5685
I1
sS'insecuritiesnbsp'
p5686
I1
sS'nails'
p5687
I3
sS'slaughter'
p5688
I1
sS'freedv'
p5689
I2
sS'zealous'
p5690
I1
sS'discussed'
p5691
I1
sS'stand'
p5692
I6
sS'stank'
p5693
I1
sS'8220jericho8221'
p5694
I5
sS'instruments'
p5695
I3
sS'spinal'
p5696
I1
sS'lastly'
p5697
I2
sS'theoretically'
p5698
I1
sS'alleged'
p5699
I2
sS'ferris'
p5700
I3
sS'coltranes'
p5701
I1
sS'sylar'
p5702
I1
sS'grunge'
p5703
I1
sS'tranquility'
p5704
I1
sS'amongst'
p5705
I1
sS'grungy'
p5706
I1
sS'promote'
p5707
I1
sS'longer'
p5708
I3
sS'internationals'
p5709
I1
sS'goshamazing'
p5710
I1
sS'egomaniac'
p5711
I1
sS'grass'
p5712
I4
sS'djing'
p5713
I1
sS'cinema'
p5714
I8
sS'taste'
p5715
I3
sS'intro'
p5716
I2
sS'tasty'
p5717
I1
sS"'deep'"
p5718
I1
sS'politics'
p5719
I1
sS'stumbled'
p5720
I1
sS'piracy'
p5721
I1
sS'deserve'
p5722
I2
sS'halfwhispered'
p5723
I1
sS'rubber'
p5724
I1
sS'roses'
p5725
I8
sS'hotelpast'
p5726
I1
sS'announcements'
p5727
I1
sS'papps'
p5728
I1
sS'requested'
p5729
I1
sS'briefly'
p5730
I3
sS'championship'
p5731
I1
sS'oneself'
p5732
I1
sS'baroque'
p5733
I1
sS'spoilers'
p5734
I2
sS'finale'
p5735
I9
sS'includes'
p5736
I4
sS'flower'
p5737
I1
sS'recognise'
p5738
I4
sS'included'
p5739
I3
sS'finals'
p5740
I3
sS'calls'
p5741
I1
sS'invest'
p5742
I1
sS'curve'
p5743
I2
sS'exhausting'
p5744
I1
sS'directors'
p5745
I2
sS'freerange'
p5746
I1
sS'chinese'
p5747
I3
sS'thatquot'
p5748
I1
sS'follow'
p5749
I6
sS'everyones'
p5750
I1
sS'glimpse'
p5751
I1
sS'homage'
p5752
I3
sS'subjected'
p5753
I1
sS'balenciaga'
p5754
I1
sS'thursday'
p5755
I8
sS'aaron'
p5756
I2
sS'program'
p5757
I1
sS'piqued'
p5758
I1
sS'presentation'
p5759
I1
sS'flowed'
p5760
I1
sS'lifesize'
p5761
I1
sS'global'
p5762
I3
sS'worse'
p5763
I6
sS'egyptian'
p5764
I4
sS'simpsons'
p5765
I5
sS'worst'
p5766
I10
sS'awful'
p5767
I1
sS'lesbians'
p5768
I1
sS'flick'
p5769
I4
sS'robyn'
p5770
I2
sS'invention'
p5771
I1
sS'wheni'
p5772
I1
sS"gloom's"
p5773
I1
sS'functioning'
p5774
I1
sS'link8221'
p5775
I1
sS'deeply'
p5776
I1
sS'anniversary'
p5777
I1
sS'crush'
p5778
I1
sS'version'
p5779
I6
sS"sinatra's"
p5780
I2
sS'christian'
p5781
I2
sS'eligibility'
p5782
I1
sS'fugue'
p5783
I1
sS'supposedly'
p5784
I1
sS'overactive'
p5785
I1
sS'behaviour'
p5786
I3
sS'directions'
p5787
I1
sS'siamese'
p5788
I2
sS'allows'
p5789
I4
sS'extremes'
p5790
I1
sS'options'
p5791
I3
sS'soonish'
p5792
I1
sS'thankfully'
p5793
I2
sS'suddenly'
p5794
I5
sS'solitude'
p5795
I1
sS'celebrityvicarious'
p5796
I1
sS'screens'
p5797
I2
sS'kaada'
p5798
I1
sS'cooed'
p5799
I1
sS'theatrical'
p5800
I2
sS'8220not'
p5801
I1
sS'hermes'
p5802
I1
sS"'appearance"
p5803
I1
sS'shits'
p5804
I1
sS'branded'
p5805
I2
sS'minor'
p5806
I1
sS'horses'
p5807
I3
sS'wretched'
p5808
I1
sS'knows'
p5809
I7
sS'definition'
p5810
I1
sS'grabbing'
p5811
I1
sS'floyd'
p5812
I5
sS'basically'
p5813
I6
sS'known'
p5814
I8
sS'karajoz'
p5815
I5
sS'debates'
p5816
I1
sS'salvador'
p5817
I2
sS'equation'
p5818
I1
sS'sanath'
p5819
I1
sS'audiences'
p5820
I3
sS"pepper's"
p5821
I1
sS'matchmaking'
p5822
I1
sS'embarrassing'
p5823
I1
sS'challenging'
p5824
I1
sS'brown'
p5825
I2
sS'joints'
p5826
I1
sS'coltrane'
p5827
I3
sS'imitation'
p5828
I1
sS'libertarian'
p5829
I1
sS'regentonmanners'
p5830
I1
sS'meandered'
p5831
I1
sS'hobbits'
p5832
I1
sS'rather'
p5833
I18
sS'breaking'
p5834
I7
sS'occasionally'
p5835
I2
sS'lowlevel'
p5836
I1
sS'explains'
p5837
I1
sS'guttural'
p5838
I1
sS'musicianship'
p5839
I1
sS'reflect'
p5840
I1
sS'spots8221'
p5841
I1
sS'lighting'
p5842
I3
sS'unsurprising'
p5843
I1
sS'softball'
p5844
I1
sS'ballads'
p5845
I1
sS'short'
p5846
I17
sS'departure'
p5847
I1
sS'supervision'
p5848
I1
sS'shore'
p5849
I1
sS'element'
p5850
I1
sS'out8230'
p5851
I1
sS'september'
p5852
I7
sS'essence'
p5853
I1
sS'entries'
p5854
I2
sS"zealand's"
p5855
I1
sS'mission'
p5856
I1
sS'outraged'
p5857
I1
sS'logan'
p5858
I1
sS'scientist'
p5859
I2
sS'sloon'
p5860
I2
sS'penned'
p5861
I1
sS'50000'
p5862
I3
sS'style'
p5863
I17
sS'8220welcome'
p5864
I1
sS'sarena'
p5865
I1
sS'abbey'
p5866
I2
sS'resort'
p5867
I1
sS'harmonies'
p5868
I1
sS'stephen'
p5869
I1
sS'might'
p5870
I20
sS'wouldn'
p5871
I1
sS'return'
p5872
I7
sS'generously'
p5873
I1
sS'hunter'
p5874
I2
sS'number'
p5875
I17
sS'underground'
p5876
I1
sS'communities'
p5877
I2
sS'vaughn'
p5878
I1
sS'bigger'
p5879
I2
sS'cubicles'
p5880
I1
sS'debacle'
p5881
I1
sS'difficult'
p5882
I4
sS'soundexchange'
p5883
I4
sS'pirates'
p5884
I5
sS'weight'
p5885
I2
sS'needless'
p5886
I1
sS'musicmuzak'
p5887
I1
sS'pirated'
p5888
I1
sS'tiltes'
p5889
I1
sS'falsetto'
p5890
I1
sS'expect'
p5891
I7
sS'wondered'
p5892
I2
sS'jowan'
p5893
I1
sS'adhere'
p5894
I1
sS'goneski'
p5895
I1
sS'health'
p5896
I5
sS'monotone'
p5897
I1
sS'friday'
p5898
I15
sS'guess'
p5899
I12
sS'hepburn'
p5900
I1
sS'girlyness'
p5901
I1
sS'teach'
p5902
I2
sS'generate'
p5903
I2
sS'unique'
p5904
I6
sS'thread'
p5905
I2
sS"year's"
p5906
I3
sS'circuit'
p5907
I1
sS'diller'
p5908
I1
sS'fancy'
p5909
I1
sS'sympathy'
p5910
I3
sS'blank'
p5911
I1
sS'bland'
p5912
I1
sS'download'
p5913
I5
sS'passes'
p5914
I1
sS'story'
p5915
I28
sS'impeccable'
p5916
I1
sS'touchstones'
p5917
I1
sS'temperature'
p5918
I1
sS'script'
p5919
I1
sS'leading'
p5920
I6
sS'interviews'
p5921
I3
sS"drmmen'"
p5922
I1
sS'erroll'
p5923
I1
sS'swarm'
p5924
I1
sS'steals'
p5925
I1
sS'passed'
p5926
I4
sS'milieu8217'
p5927
I1
sS'store'
p5928
I1
sS'option'
p5929
I6
sS'hotel'
p5930
I1
sS'scooby'
p5931
I1
sS'treasures'
p5932
I1
sS'tentpole'
p5933
I1
sS'convinced'
p5934
I4
sS'albeit'
p5935
I1
sS'punters'
p5936
I6
sS'nagging'
p5937
I1
sS'double'
p5938
I5
sS'slowed'
p5939
I1
sS'outrageous'
p5940
I3
sS'architect'
p5941
I1
sS'motivation'
p5942
I1
sS'storytelling'
p5943
I2
sS'outstanding'
p5944
I1
sS'suspicious'
p5945
I1
sS'decadent'
p5946
I1
sS"architect'"
p5947
I1
sS'wilson'
p5948
I2
sS'nights'
p5949
I2
sS'moist'
p5950
I1
sS'sandwiches'
p5951
I1
sS'musos'
p5952
I1
sS'finding'
p5953
I1
sS'unremarkable'
p5954
I1
sS'added'
p5955
I3
sS'critics'
p5956
I1
sS'electric'
p5957
I1
sS'reckon'
p5958
I2
sS'goldman'
p5959
I1
sS'reach'
p5960
I4
sS'screenings'
p5961
I1
sS'nothing'
p5962
I17
sS'seasons'
p5963
I3
sS'achievement'
p5964
I1
sS'windows'
p5965
I2
sS'highpitched'
p5966
I1
sS'goodtimefunpants'
p5967
I1
sS'traditional'
p5968
I8
sS'jamiroquai'
p5969
I3
sS'notch'
p5970
I1
sS'institutions'
p5971
I1
sS'stones'
p5972
I1
sS'stoner'
p5973
I1
sS'routinely'
p5974
I1
sS'melody'
p5975
I1
sS'endlessly'
p5976
I1
sS'oohwahoohs'
p5977
I1
sS'stirs'
p5978
I2
sS'nickie'
p5979
I1
sS'publicity'
p5980
I1
sS'gains'
p5981
I1
sS'birkin'
p5982
I1
sS'frumpy'
p5983
I1
sS'fastest'
p5984
I1
sS'fullservice'
p5985
I1
sS'encore'
p5986
I3
sS"floyd's"
p5987
I3
sS'emails'
p5988
I2
sS'jayohbe'
p5989
I1
sS'keenest'
p5990
I1
sS'brendan'
p5991
I1
sS'rangatahi'
p5992
I1
sS'cartoons'
p5993
I1
sS'gotten'
p5994
I3
sS'vincent'
p5995
I1
sS'wrote'
p5996
I11
sS'loveliness'
p5997
I1
sS'canwest'
p5998
I1
sS'choreographer'
p5999
I1
sS'mischievously'
p6000
I1
sS'intelligence'
p6001
I3
sS'choreographed'
p6002
I1
sS'biologist'
p6003
I2
sS'christmikkah'
p6004
I1
sS'explosion'
p6005
I1
sS"channel's"
p6006
I1
sS'youth'
p6007
I2
sS'threats'
p6008
I1
sS"opera'"
p6009
I2
sS'distinctive'
p6010
I1
sS'various'
p6011
I2
sS'viewership'
p6012
I1
sS'numerous'
p6013
I5
sS'recently'
p6014
I11
sS'creating'
p6015
I6
sS'lindelof'
p6016
I1
sS'initially'
p6017
I2
sS'attention'
p6018
I6
sS'confiscated'
p6019
I1
sS'outfit'
p6020
I2
sS'rapid'
p6021
I2
sS'rarer'
p6022
I1
sS'competent'
p6023
I1
sS'lyrical'
p6024
I1
sS'movers'
p6025
I1
sS"'once"
p6026
I1
sS'promires'
p6027
I1
sS'became'
p6028
I4
sS'context'
p6029
I5
sS'baseball'
p6030
I2
sS'blissfully'
p6031
I1
sS'reduce'
p6032
I1
sS'reasons'
p6033
I6
sS'sweet'
p6034
I6
sS'dudes'
p6035
I2
sS'forfears'
p6036
I1
sS'village'
p6037
I1
sS"rockin'"
p6038
I1
sS'startling'
p6039
I1
sS'firefighter8211his'
p6040
I1
sS'scented'
p6041
I1
sS'hamhanded'
p6042
I1
sS'political'
p6043
I2
sS'appears'
p6044
I4
sS'referee'
p6045
I1
sS'flight'
p6046
I2
sS'1950s'
p6047
I1
sS'precision'
p6048
I1
sS'vaguely'
p6049
I3
sS'goodly'
p6050
I1
sS'repocussions'
p6051
I1
sS'rocking'
p6052
I2
sS'they8217re'
p6053
I4
sS'ingenueish'
p6054
I1
sS'conception'
p6055
I2
sS'shove'
p6056
I3
sS'sandiego'
p6057
I2
sS'frozen'
p6058
I1
sS'batch'
p6059
I2
sS'pitchfork'
p6060
I1
sS"star's"
p6061
I1
sS'disappointing'
p6062
I1
sS'ecstasy'
p6063
I1
sS'realised'
p6064
I1
sS'mansons'
p6065
I1
sS'ethnicity'
p6066
I1
sS'panasonic'
p6067
I1
sS'songvideo'
p6068
I1
sS'shirt'
p6069
I1
sS'retroactively'
p6070
I1
sS'theremin'
p6071
I1
sS'viola'
p6072
I1
sS'peoples'
p6073
I1
sS'spears'
p6074
I1
sS'daughters'
p6075
I1
sS'higher'
p6076
I1
sS'straightjacket'
p6077
I2
sS'flown'
p6078
I1
sS'arrived'
p6079
I5
sS'misfitsnbsp'
p6080
I1
sS'apartmentsflatslarge'
p6081
I1
sS'lower'
p6082
I1
sS'depending'
p6083
I1
sS'anybody'
p6084
I1
sS'analysis'
p6085
I1
sS'musicalopening'
p6086
I1
sS'stating'
p6087
I1
sS'exgirlfriend'
p6088
I1
sS'pater'
p6089
I1
sS'httpdiggcomsubmitphase2url'
p6090
I1
sS'questions'
p6091
I3
sS'patel'
p6092
I1
sS'prince'
p6093
I1
sS'meanest'
p6094
I2
sS'profitable'
p6095
I1
sS'tables'
p6096
I1
sS'morals'
p6097
I1
sS'exclusively'
p6098
I1
sS'pressing'
p6099
I2
sS'exhibition'
p6100
I1
sS'complaint'
p6101
I1
sS'slowgroove'
p6102
I1
sS'vendor'
p6103
I1
sS'complains'
p6104
I1
sS'unlimited'
p6105
I1
sS'aggregation'
p6106
I1
sS'stagehands'
p6107
I1
sS'mariah'
p6108
I1
sS'mariam'
p6109
I1
sS'shaped'
p6110
I1
sS'separately'
p6111
I1
sS'collect'
p6112
I1
sS'entice'
p6113
I1
sS'educational8221'
p6114
I1
sS"campbell's"
p6115
I1
sS'anzac'
p6116
I8
sS'antianimation'
p6117
I1
sS'fucking'
p6118
I24
sS'understood'
p6119
I2
sS'grenades'
p6120
I1
sS'wonderland'
p6121
I1
sS'alphonse'
p6122
I1
sS'gradually'
p6123
I2
sS'nauseating'
p6124
I1
sS'firsthand'
p6125
I1
sS'lorraine'
p6126
I1
sS'retro'
p6127
I1
sS'zombie'
p6128
I1
sS'meshuggah'
p6129
I1
sS'intense'
p6130
I4
sS'violins'
p6131
I1
sS'firing'
p6132
I1
sS'lifeless'
p6133
I1
sS'range'
p6134
I3
sS'charm'
p6135
I2
sS'wanna'
p6136
I1
sS'parton'
p6137
I1
sS'sports'
p6138
I1
sS'stench'
p6139
I1
sS'impressed'
p6140
I4
sS'question'
p6141
I4
sS"we're"
p6142
I12
sS'impresses'
p6143
I1
sS'sections'
p6144
I2
sS'waterrace'
p6145
I1
sS'lemmon'
p6146
I1
sS'criteria'
p6147
I2
sS'hiringwatching'
p6148
I1
sS'usurp'
p6149
I1
sS'junior'
p6150
I1
sS'raising'
p6151
I1
sS'attribute'
p6152
I1
sS'patriot'
p6153
I1
sS'antiamerican'
p6154
I1
sS'fulfilling'
p6155
I1
sS'apricot'
p6156
I1
sS'caller'
p6157
I2
sS"hasn't"
p6158
I2
sS'diagrams'
p6159
I2
sS'highlight'
p6160
I3
sS'253200'
p6161
I1
sS'called'
p6162
I16
sS"constructionit's"
p6163
I1
sS'worthwhile'
p6164
I3
sS'stick'
p6165
I5
sS'warning'
p6166
I2
sS'ingredients'
p6167
I1
sS'minispectacular'
p6168
I1
sS'graham'
p6169
I1
sS'rainy'
p6170
I1
sS'lemon'
p6171
I3
sS'peace'
p6172
I2
sS'backs'
p6173
I1
sS'fendi'
p6174
I1
sS'users'
p6175
I2
sS'smitten'
p6176
I1
sS'band8217s'
p6177
I1
sS'problems'
p6178
I1
sS'develops'
p6179
I1
sS'suffers'
p6180
I1
sS'foundry'
p6181
I1
sS'microsoft'
p6182
I2
sS'impatient'
p6183
I1
sS'dodging'
p6184
I1
sS'rules1'
p6185
I1
sS'issues'
p6186
I2
sS'simon'
p6187
I4
sS'roshan'
p6188
I1
sS'languages'
p6189
I2
sS'repackage'
p6190
I1
sS'breach'
p6191
I1
sS'include'
p6192
I8
sS'steinlager'
p6193
I1
sS'mainstream'
p6194
I3
sS'shoppingcom'
p6195
I1
sS'talons'
p6196
I1
sS'spoof'
p6197
I1
sS'thelonious'
p6198
I1
sS'romanticcomedies'
p6199
I1
sS'notes'
p6200
I2
sS'daptone'
p6201
I2
sS'deals'
p6202
I2
sS"week's"
p6203
I2
sS'alltime'
p6204
I2
sS'noted'
p6205
I1
sS'disclaimer'
p6206
I2
sS'concluded'
p6207
I1
sS'smaller'
p6208
I1
sS"you'd"
p6209
I4
sS'goodies'
p6210
I1
sS'sensation'
p6211
I1
sS'o8217'
p6212
I1
sS'enamoured'
p6213
I1
sS"gillespie's"
p6214
I1
sS'manipulating'
p6215
I1
sS'abominable'
p6216
I1
sS'makers'
p6217
I2
sS'universities'
p6218
I1
sS'developed'
p6219
I1
sS"man's"
p6220
I1
sS'waiting'
p6221
I10
sS'unmercifully'
p6222
I1
sS'capital'
p6223
I3
sS'ginny'
p6224
I1
sS'chose'
p6225
I4
sS'desires'
p6226
I1
sS'youngest'
p6227
I1
sS'explore'
p6228
I3
sS'lyrically'
p6229
I2
sS'astrid'
p6230
I3
sS'larger'
p6231
I1
sS'httpdeliciouspostv4nouijumpclose'
p6232
I1
sS'rhombus'
p6233
I1
sS'goofball'
p6234
I1
sS"ocean's"
p6235
I1
sS'jangles'
p6236
I2
sS'smugfest'
p6237
I1
sS'apple'
p6238
I4
sS'soundcheck'
p6239
I2
sS'skipit'
p6240
I1
sS'motor'
p6241
I1
sS'summation'
p6242
I1
sS'apply'
p6243
I3
sS'lottery'
p6244
I1
sS'stream'
p6245
I1
sS'stonedover'
p6246
I1
sS'expanding'
p6247
I1
sS'clever'
p6248
I2
sS'journalists'
p6249
I1
sS'musician'
p6250
I7
sS'posturing'
p6251
I1
sS'shostakovich'
p6252
I2
sS'women'
p6253
I6
sS'topic'
p6254
I2
sS'heard'
p6255
I18
sS'dusted'
p6256
I2
sS'wildest'
p6257
I2
sS'backstagecom'
p6258
I1
sS'performed'
p6259
I4
sS'patrol'
p6260
I4
sS'spying'
p6261
I1
sS'forays'
p6262
I1
sS'hilton'
p6263
I3
sS'something'
p6264
I56
sS'serial'
p6265
I3
sS'autobiography'
p6266
I1
sS'united'
p6267
I2
sS"alzheimer's"
p6268
I2
sS'struggles'
p6269
I1
sS'plyer'
p6270
I1
sS'instead'
p6271
I8
sS'mccoy'
p6272
I2
sS'taylors'
p6273
I1
sS'monosyllabic'
p6274
I1
sS'cliched'
p6275
I1
sS'tension'
p6276
I1
sS'hurdles'
p6277
I2
sS'attend'
p6278
I2
sS'abuse'
p6279
I2
sS'bassdrop'
p6280
I1
sS'disproved'
p6281
I1
sS'martins'
p6282
I1
sS'amount'
p6283
I4
sS'nerida'
p6284
I1
sS'budge'
p6285
I1
sS'honestly'
p6286
I4
sS'tenure'
p6287
I2
sS'stakes'
p6288
I1
sS'jolie'
p6289
I3
sS'starlets'
p6290
I1
sS"'woggy'"
p6291
I1
sS'interpreted'
p6292
I1
sS'whilst'
p6293
I2
sS'mathematicians'
p6294
I1
sS'looks'
p6295
I10
sS'badges'
p6296
I1
sS'superior'
p6297
I1
sS'thuggery'
p6298
I1
sS'nostalgia'
p6299
I2
sS'choose'
p6300
I4
sS'researchers'
p6301
I1
sS'holiday'
p6302
I3
sS'crowds'
p6303
I1
sS"'cast"
p6304
I1
sS'crash'
p6305
I3
sS'citrus'
p6306
I5
sS'practice'
p6307
I1
sS'attains'
p6308
I1
sS'untouchable'
p6309
I1
sS'successor'
p6310
I1
sS'worlds'
p6311
I1
sS'mashupa'
p6312
I1
sS'drummers'
p6313
I1
sS'feast'
p6314
I1
sS'mashups'
p6315
I3
sS'unpredictable'
p6316
I1
sS'cocker'
p6317
I1
sS'fiddle'
p6318
I1
sS'bills'
p6319
I1
sS'prizewinning'
p6320
I1
sS'albumits'
p6321
I1
sS'unbelievable'
p6322
I1
sS'related'
p6323
I2
sS'category'
p6324
I3
sS'respects'
p6325
I1
sS'chaos'
p6326
I1
sS'performs'
p6327
I1
sS'exporting'
p6328
I1
sS'utility'
p6329
I1
sS'compositions'
p6330
I1
sS'organic'
p6331
I1
sS'musculature'
p6332
I1
sS'conversation'
p6333
I3
sS'osborne'
p6334
I1
sS'boymeetsgirlboylosesgirlboygetsgirlback'
p6335
I1
sS'hence'
p6336
I1
sS'approaching'
p6337
I1
sS'iorek'
p6338
I1
sS'undie'
p6339
I1
sS'dated'
p6340
I1
sS'puppyfreefortwomoredays'
p6341
I1
sS'publication'
p6342
I1
sS'myspace'
p6343
I3
sS'montreux'
p6344
I2
sS"god's"
p6345
I1
sS'nightdreaming'
p6346
I1
sS'girlygirl'
p6347
I1
sS'shelf'
p6348
I1
sS'reversed'
p6349
I1
sS'shallow'
p6350
I2
sS'mmmmwhat'
p6351
I1
sS'intonation'
p6352
I1
sS'institution'
p6353
I1
sS'lsquoblogfatherrsquo'
p6354
I1
sS'slowmo'
p6355
I1
sS'swimming'
p6356
I1
sS'holland'
p6357
I1
sS'boring'
p6358
I9
sS'creditors'
p6359
I1
sS'cohen'
p6360
I1
sS'teenagers'
p6361
I5
sS'immoralnbsp'
p6362
I1
sS'sincerity'
p6363
I1
sS'writhed'
p6364
I1
sS'linked'
p6365
I4
sS'catholic'
p6366
I1
sS'afraid'
p6367
I2
sS'rearranged'
p6368
I1
sS'scone'
p6369
I1
sS'florid'
p6370
I3
sS'agency'
p6371
I1
sS'iswas'
p6372
I1
sS'ahold'
p6373
I1
sS'patchy'
p6374
I1
sS'25000'
p6375
I1
sS'clash'
p6376
I1
sS'centre'
p6377
I4
sS'collaboration'
p6378
I4
sS'cracking'
p6379
I1
sS'fortieth'
p6380
I1
sS'highschool'
p6381
I1
sS'class'
p6382
I7
sS'academy'
p6383
I2
sS'looked'
p6384
I12
sS'chances'
p6385
I2
sS'sceptical'
p6386
I1
sS'spanking'
p6387
I1
sS'purely'
p6388
I1
sS'planning'
p6389
I3
sS'seaweed'
p6390
I1
sS'dorothy'
p6391
I1
sS'chicken'
p6392
I6
sS'debate'
p6393
I5
sS'chanced'
p6394
I1
sS'filmed'
p6395
I2
sS'29august'
p6396
I1
sS"many'"
p6397
I1
sS'spruance'
p6398
I2
sS'clutching'
p6399
I1
sS'reminisce'
p6400
I1
sS'herald'
p6401
I1
sS'wowsers'
p6402
I1
sS'local'
p6403
I6
sS'fabulous'
p6404
I1
sS'hornby'
p6405
I2
sS'watching'
p6406
I20
sS'massacre'
p6407
I1
sS'gleeson'
p6408
I1
sS'presley'
p6409
I2
sS'chips'
p6410
I1
sS'stitching'
p6411
I1
sS'cotter'
p6412
I1
sS"'don't"
p6413
I1
sS'married'
p6414
I4
sS'australianism'
p6415
I1
sS'ripley'
p6416
I1
sS'cleavage'
p6417
I1
sS'laughs'
p6418
I2
sS'generations'
p6419
I2
sS'unison'
p6420
I1
sS'monteithrsquos'
p6421
I1
sS'unfairly'
p6422
I1
sS"'blood"
p6423
I1
sS'closer'
p6424
I2
sS'closes'
p6425
I1
sS'computer'
p6426
I1
sS'superb'
p6427
I2
sS'genius'
p6428
I5
sS'closed'
p6429
I2
sS'limit'
p6430
I1
sS'pants'
p6431
I5
sS'publishers'
p6432
I1
sS'brewing'
p6433
I1
sS'ability'
p6434
I2
sS'opening'
p6435
I17
sS'moshpit'
p6436
I1
sS'duane'
p6437
I2
sS'embarrassment'
p6438
I2
sS'spoil'
p6439
I1
sS'swift'
p6440
I1
sS'barrett'
p6441
I2
sS'wwwrockymtnpicturescom'
p6442
I1
sS'april'
p6443
I2
sS'queensgate'
p6444
I2
sS'hoody'
p6445
I1
sS'cheerleaders'
p6446
I1
sS'environments'
p6447
I1
sS'subscribe'
p6448
I1
sS'worldly'
p6449
I1
sS'table'
p6450
I3
sS'decent'
p6451
I9
sS'hunters'
p6452
I1
sS'trademark'
p6453
I2
sS'window'
p6454
I2
sS'traveling'
p6455
I1
sS'liverpool'
p6456
I1
sS'interrupts'
p6457
I1
sS'jaded'
p6458
I2
sS'present'
p6459
I2
sS'twist'
p6460
I2
sS'unlike'
p6461
I4
sS'stunning'
p6462
I3
sS'i8217ll'
p6463
I2
sS'scarfies'
p6464
I1
sS'tainui'
p6465
I1
sS'pandasport'
p6466
I1
sS'whore'
p6467
I2
sS'terrorised'
p6468
I1
sS'kissed'
p6469
I1
sS'perhaps'
p6470
I11
sS'vintage'
p6471
I1
sS'buddhist'
p6472
I1
sS'radiation'
p6473
I1
sS'cross'
p6474
I3
sS'member'
p6475
I4
sS'retailing'
p6476
I2
sS'largest'
p6477
I3
sS'hammering'
p6478
I1
sS'saloncom'
p6479
I1
sS'slave'
p6480
I2
sS'promo'
p6481
I2
sS'premiere'
p6482
I3
sS'conceived'
p6483
I1
sS'romeo'
p6484
I1
sS'beast'
p6485
I1
sS'student'
p6486
I3
sS'realises'
p6487
I1
sS'enamored'
p6488
I1
sS'banging'
p6489
I3
sS'fighting'
p6490
I2
sS'scissor'
p6491
I1
sS'tangelolemon'
p6492
I1
sS'english'
p6493
I3
sS'firstly'
p6494
I2
sS'contenders'
p6495
I1
sS'excessive'
p6496
I1
sS'cried'
p6497
I1
sS'heavily'
p6498
I2
sS"should've"
p6499
I1
sS'batteries'
p6500
I2
sS'rocked'
p6501
I2
sS'siebente'
p6502
I1
sS'maddening'
p6503
I1
sS'happiness'
p6504
I3
sS'buellers'
p6505
I1
sS'penchant'
p6506
I1
sS'smith'
p6507
I2
sS'readymade'
p6508
I1
sS'haneke'
p6509
I1
sS'unprecedented'
p6510
I2
sS"who's"
p6511
I3
sS'press'
p6512
I8
sS'toomath'
p6513
I1
sS'helpful'
p6514
I2
sS'loses'
p6515
I1
sS'hosts'
p6516
I3
sS'repressed'
p6517
I1
sS'morrisson'
p6518
I2
sS'because'
p6519
I55
sS'norvegus'
p6520
I1
sS'smoothly'
p6521
I1
sS'flagrant'
p6522
I1
sS'searching'
p6523
I1
sS'platforms'
p6524
I1
sS'export'
p6525
I2
sS'empire'
p6526
I1
sS'meatloaf'
p6527
I1
sS'jeremy'
p6528
I3
sS"gettin'"
p6529
I1
sS'frickin8217'
p6530
I1
sS'cafepress'
p6531
I2
sS'bosses'
p6532
I1
sS'leader'
p6533
I1
sS'locate'
p6534
I2
sS'ripped'
p6535
I1
sS'ripper'
p6536
I3
sS'ezboard'
p6537
I1
sS'kitsch'
p6538
I1
sS'throng'
p6539
I1
sS'carried'
p6540
I3
sS'getting'
p6541
I15
sS'universe'
p6542
I7
sS'carries'
p6543
I1
sS'swear'
p6544
I2
sS'urges'
p6545
I1
sS'10000000'
p6546
I1
sS'wilderness'
p6547
I1
sS'creativity'
p6548
I1
sS'fundraiser'
p6549
I1
sS'weather'
p6550
I2
sS'promise'
p6551
I1
sS'besmirches'
p6552
I1
sS'prompted'
p6553
I1
sS'effeminate'
p6554
I1
sS"'dimanche"
p6555
I1
sS'trenches'
p6556
I1
sS'dynamite'
p6557
I2
sS'fundy'
p6558
I1
sS'redmond'
p6559
I1
sS'triggered'
p6560
I1
sS'volume'
p6561
I1
sS'whether'
p6562
I5
sS'flashtrash'
p6563
I1
sS"lauren's"
p6564
I1
sS'distract'
p6565
I1
sS'record'
p6566
I18
sS'below'
p6567
I6
sS'ruling'
p6568
I1
sS'stirring'
p6569
I2
sS'jenny'
p6570
I1
sS'horrific'
p6571
I1
sS'humbling'
p6572
I1
sS'buffy'
p6573
I3
sS'goodness'
p6574
I7
sS'sargeant'
p6575
I1
sS'avoided'
p6576
I1
sS'incredible'
p6577
I7
sS'guitarist'
p6578
I1
sS'illinois'
p6579
I2
sS'other'
p6580
I61
sS'branch'
p6581
I1
sS'incredibly'
p6582
I4
sS'mundanely'
p6583
I1
sS'conclusion'
p6584
I1
sS'kinds'
p6585
I1
sS'manray'
p6586
I1
sS'kinda'
p6587
I1
sS'sandler'
p6588
I1
sS'cliff'
p6589
I1
sS'mairangi'
p6590
I1
sS'coincidentally'
p6591
I1
sS'hardboiled'
p6592
I1
s.