(dp1
S'perspectivecheck'
p2
I1
sS'jihad'
p3
I2
sS'hanging'
p4
I1
sS'towns'
p5
I1
sS'aggression'
p6
I3
sS'sevens'
p7
I1
sS'looking'
p8
I7
sS'electricity'
p9
I7
sS'scold'
p10
I1
sS'unanswered'
p11
I1
sS'regional'
p12
I3
sS'bringing'
p13
I1
sS'internally'
p14
I1
sS'andre'
p15
I1
sS'wooden'
p16
I1
sS'commenter'
p17
I2
sS'wednesday'
p18
I4
sS"fiji's"
p19
I6
sS'you8217d'
p20
I1
sS'tired'
p21
I1
sS'sailer'
p22
I2
sS'second'
p23
I9
sS'scoopu003cbr'
p24
I1
sS'ruthless'
p25
I1
sS'warmongering'
p26
I1
sS'fossil'
p27
I1
sS'increasing'
p28
I3
sS'avert'
p29
I1
sS'splinter'
p30
I3
sS'reported'
p31
I13
sS'china'
p32
I21
sS'who8217s'
p33
I2
sS'substance'
p34
I2
sS'elaborate'
p35
I2
sS'deferring'
p36
I1
sS'reports'
p37
I9
sS'controversy'
p38
I3
sS'undermanning'
p39
I1
sS'military'
p40
I37
sS'cancellation'
p41
I1
sS'pairings'
p42
I1
sS'criticism'
p43
I2
sS'golden'
p44
I1
sS'projection'
p45
I2
sS'explained'
p46
I2
sS'hamas'
p47
I7
sS'brought'
p48
I8
sS'breechloading'
p49
I1
sS'opponents'
p50
I1
sS'spoke'
p51
I1
sS'music'
p52
I2
sS'telegraph'
p53
I4
sS'passport'
p54
I1
sS'strike'
p55
I12
sS'until'
p56
I13
sS'populations'
p57
I1
sS'successful'
p58
I5
sS'brings'
p59
I2
sS'menaced'
p60
I1
sS'circumstances'
p61
I4
sS'locked'
p62
I2
sS'pursue'
p63
I1
sS'plunged'
p64
I1
sS'imperialism'
p65
I1
sS'temperatures'
p66
I2
sS'example'
p67
I19
sS'unjust'
p68
I2
sS'artillery'
p69
I1
sS'currency'
p70
I3
sS'provincial'
p71
I1
sS'knows'
p72
I4
sS'complaining'
p73
I2
sS'travel'
p74
I7
sS'damage'
p75
I4
sS'machine'
p76
I2
sS'significance'
p77
I1
sS'disgrace'
p78
I1
sS'preferable'
p79
I1
sS'1870s'
p80
I1
sS'oceans'
p81
I2
sS'outlawed'
p82
I2
sS'wrong'
p83
I10
sS'japan8217s'
p84
I1
sS'types'
p85
I1
sS'effective'
p86
I2
sS'scourge'
p87
I1
sS'youths'
p88
I1
sS'headquarters'
p89
I1
sS'winmaildat'
p90
I1
sS'democratic'
p91
I2
sS'restriction'
p92
I1
sS'feedback'
p93
I2
sS'welcomed'
p94
I1
sS'romania'
p95
I3
sS'wrought'
p96
I1
sS'welcomes'
p97
I1
sS'disabilitiesscore'
p98
I1
sS'occupations'
p99
I1
sS'pritchard'
p100
I2
sS'survivors'
p101
I1
sS'hidden'
p102
I1
sS'easier'
p103
I1
sS'slate'
p104
I1
sS'effects'
p105
I4
sS'schools'
p106
I2
sS'sixteen'
p107
I1
sS'represents'
p108
I1
sS'castigating'
p109
I1
sS'clothed'
p110
I1
sS'expectancy'
p111
I1
sS'preceded'
p112
I1
sS'series'
p113
I7
sS'distillery'
p114
I1
sS'substantially'
p115
I2
sS"spokesperson's"
p116
I1
sS'encourage'
p117
I1
sS'engineer'
p118
I1
sS'sheep'
p119
I1
sS'eighteenyearolds'
p120
I2
sS'threatened'
p121
I5
sS'managerial'
p122
I1
sS'enormous'
p123
I1
sS'shelves'
p124
I1
sS'waned'
p125
I1
sS"today's"
p126
I2
sS'1970s'
p127
I4
sS'unflappable'
p128
I1
sS'sallied'
p129
I1
sS'basketball'
p130
I1
sS'service'
p131
I8
sS'similarly'
p132
I1
sS'needed'
p133
I10
sS'hypothetical'
p134
I2
sS'gilbert'
p135
I1
sS'bitter'
p136
I1
sS'ranging'
p137
I3
sS'listen'
p138
I3
sS'collapse'
p139
I7
sS"torygraph's"
p140
I1
sS'crawl'
p141
I2
sS'showed'
p142
I2
sS'saeed'
p143
I1
sS'outlaw'
p144
I1
sS'nations'
p145
I10
sS'project'
p146
I1
sS'pneumonia'
p147
I1
sS'zimbabwean'
p148
I2
sS'acquisition'
p149
I1
sS'highpressure'
p150
I1
sS'spectrum'
p151
I4
sS'dozen'
p152
I1
sS'affairs'
p153
I2
sS'person'
p154
I10
sS'soaked'
p155
I2
sS'recommended'
p156
I1
sS'causing'
p157
I3
sS'amusing'
p158
I1
sS'kremlin'
p159
I1
sS'shipments'
p160
I2
sS'committing'
p161
I1
sS'transactions'
p162
I1
sS'object'
p163
I2
sS'cinematic'
p164
I1
sS'victoria'
p165
I2
sS'metrics'
p166
I1
sS'reverberated'
p167
I1
sS'mouth'
p168
I2
sS'letter'
p169
I2
sS'organization'
p170
I1
sS'morality'
p171
I1
sS'bradford'
p172
I1
sS'dummy'
p173
I1
sS'episode'
p174
I1
sS'professor'
p175
I2
sS'multiracial'
p176
I1
sS'nineteenth'
p177
I1
sS'saying'
p178
I8
sS'zacarias'
p179
I1
sS'fenner'
p180
I1
sS'chairmans'
p181
I1
sS'qaeda'
p182
I1
sS'participate'
p183
I3
sS'lethal'
p184
I3
sS'hungary'
p185
I1
sS'lessons'
p186
I1
sS'quaint'
p187
I1
sS'touched'
p188
I1
sS'societies'
p189
I1
sS'lurches'
p190
I1
sS'fundamentalists'
p191
I3
sS'nicely'
p192
I1
sS'release'
p193
I4
sS'respond'
p194
I2
sS'mandatory'
p195
I1
sS'disaster'
p196
I2
sS'branding'
p197
I1
sS'unexpectedly'
p198
I1
sS'result'
p199
I4
sS'resigned'
p200
I1
sS'campaigners'
p201
I1
sS'ambitions'
p202
I2
sS'score'
p203
I3
sS'occupational'
p204
I2
sS'parallels'
p205
I2
sS'extend'
p206
I1
sS'nature'
p207
I4
sS'fijians'
p208
I2
sS'posit'
p209
I1
sS'extent'
p210
I2
sS'carbon'
p211
I2
sS'tyranny'
p212
I1
sS'dribblings'
p213
I1
sS'nineteenthirties'
p214
I1
sS'country'
p215
I44
sS'himalayas'
p216
I1
sS'readers'
p217
I3
sS'adventurer'
p218
I1
sS'heating'
p219
I2
sS'demanded'
p220
I3
sS'planned'
p221
I4
sS'logic'
p222
I1
sS'argue'
p223
I5
sS'asked'
p224
I9
sS'rehash'
p225
I1
sS'irresponsible'
p226
I1
sS'rednecks'
p227
I2
sS'semisane'
p228
I1
sS'union'
p229
I17
sS'criticised'
p230
I1
sS'bothers'
p231
I1
sS'extraction'
p232
I1
sS'sydney'
p233
I3
sS'eastern'
p234
I6
sS'worker'
p235
I2
sS'child'
p236
I12
sS'worked'
p237
I9
sS'presidency'
p238
I2
sS'castro'
p239
I1
sS'singleparent'
p240
I2
sS'flooding'
p241
I1
sS'played'
p242
I3
sS'elicit'
p243
I1
sS'pakastani'
p244
I1
sS'peoplenbsp'
p245
I1
sS"said'"
p246
I1
sS'campaigning'
p247
I1
sS'things'
p248
I14
sS'selfreliance'
p249
I1
sS'rebellion'
p250
I2
sS'democracies'
p251
I1
sS'split'
p252
I1
sS'babies'
p253
I3
sS'zoolander'
p254
I1
sS'european'
p255
I18
sS'fairly'
p256
I2
sS'marches'
p257
I2
sS'antiwestern'
p258
I1
sS'frontbencher'
p259
I1
sS'ownership'
p260
I2
sS'lucas'
p261
I1
sS'smallness'
p262
I1
sS'academic'
p263
I4
sS'corporate'
p264
I2
sS'opinions'
p265
I1
sS'spurred'
p266
I1
sS'capitol'
p267
I1
sS'plight'
p268
I1
sS'emergence'
p269
I2
sS'previous'
p270
I3
sS'stockmen'
p271
I2
sS'spectacles'
p272
I4
sS"shield's"
p273
I1
sS'innocent'
p274
I3
sS'prison'
p275
I4
sS'espoused'
p276
I1
sS'survival'
p277
I2
sS'possible'
p278
I13
sS'possibly'
p279
I4
sS'bushs'
p280
I2
sS'i8217ve'
p281
I2
sS'occurring'
p282
I2
sS'desire'
p283
I1
sS'misled'
p284
I1
sS'steps'
p285
I6
sS"court's"
p286
I1
sS'attorney'
p287
I2
sS'right'
p288
I35
sS'creek'
p289
I1
sS'crowd'
p290
I1
sS'people'
p291
I70
sS'czech'
p292
I2
sS'mosques'
p293
I1
sS'enemies'
p294
I3
sS'bottom'
p295
I2
sS'continue'
p296
I11
sS'nubbins'
p297
I1
sS'shifting'
p298
I1
sS'defensive'
p299
I1
sS'losing'
p300
I3
sS'reviled'
p301
I1
sS'manufacturing'
p302
I1
sS'filipino'
p303
I1
sS'dollars'
p304
I1
sS'citizens'
p305
I4
sS'interbreeding'
p306
I1
sS'bandai'
p307
I1
sS'palestinians'
p308
I11
sS'slightly'
p309
I4
sS'nixon'
p310
I1
sS'raised'
p311
I3
sS'statements'
p312
I1
sS'facility'
p313
I1
sS'neocon'
p314
I3
sS'beings'
p315
I2
sS'despised'
p316
I1
sS'abstractions'
p317
I1
sS'support'
p318
I27
sS'solicitors'
p319
I1
sS'raped'
p320
I1
sS'joseph'
p321
I1
sS"boy's"
p322
I1
sS'obliged'
p323
I1
sS'rapes'
p324
I1
sS'halls'
p325
I1
sS'launching'
p326
I2
sS'catstephenssharesthe'
p327
I1
sS'underestimated'
p328
I1
sS'insurrection'
p329
I1
sS'offer'
p330
I9
sS'manmade'
p331
I1
sS'talents'
p332
I2
sS'reinventing'
p333
I1
sS'tasmania'
p334
I2
sS'safeguard'
p335
I2
sS'extremist'
p336
I2
sS"else's"
p337
I2
sS'myopic'
p338
I1
sS'prosecutions'
p339
I2
sS'devices'
p340
I1
sS'belorussia'
p341
I1
sS'httpwwwstuffconz4319922a11html'
p342
I1
sS'passenger'
p343
I3
sS'berezovsky'
p344
I1
sS'cuddles'
p345
I1
sS'proved'
p346
I2
sS'mideast'
p347
I1
sS'implications'
p348
I2
sS'tournament'
p349
I1
sS'proven'
p350
I1
sS'exist'
p351
I2
sS'accounting'
p352
I2
sS'negotiations'
p353
I4
sS'supporters'
p354
I2
sS'floor'
p355
I2
sS'cambodia'
p356
I2
sS'interestsnbsp'
p357
I1
sS'republic'
p358
I5
sS'ambitious'
p359
I1
sS'becuase'
p360
I1
sS'twentyfive'
p361
I3
sS'models'
p362
I1
sS'muslims'
p363
I3
sS'invested'
p364
I1
sS'persecution'
p365
I1
sS'explosions'
p366
I1
sS"workers'"
p367
I1
sS'banners'
p368
I1
sS'chain'
p369
I1
sS'whoever'
p370
I1
sS'chair'
p371
I1
sS"minister's"
p372
I2
sS'veterans'
p373
I2
sS'choice'
p374
I2
sS'8216good8217'
p375
I1
sS'gloomy'
p376
I1
sS'unpleasent'
p377
I1
sS'exact'
p378
I2
sS'minute'
p379
I1
sS"venezuela's"
p380
I1
sS'blogsu003cbr'
p381
I1
sS'nineteentwenties'
p382
I1
sS'leave'
p383
I9
sS'settle'
p384
I1
sS'unaware'
p385
I1
sS'trotskyist'
p386
I5
sS'thinkers'
p387
I1
sS'hindered'
p388
I1
sS'shirts'
p389
I2
sS'jailwhich'
p390
I1
sS'celebrated'
p391
I1
sS'current'
p392
I6
sS'falling'
p393
I4
sS'boost'
p394
I4
sS'piclink'
p395
I1
sS'totalling'
p396
I1
sS'grandparents'
p397
I1
sS'funeral'
p398
I1
sS'address'
p399
I2
sS'alone'
p400
I2
sS'along'
p401
I7
sS'longdistance'
p402
I1
sS'passengers'
p403
I2
sS'neville'
p404
I1
sS'brilliant'
p405
I1
sS'commonly'
p406
I1
sS'studies'
p407
I2
sS"flood's"
p408
I2
sS'logical'
p409
I2
sS'bloody'
p410
I3
sS'logically'
p411
I1
sS'working'
p412
I13
sS'positive'
p413
I1
sS'nuclearcapable'
p414
I1
sS'opposed'
p415
I2
sS'wondering'
p416
I2
sS'prosecutor'
p417
I2
sS'wicked'
p418
I1
sS'alastair'
p419
I1
sS'afford'
p420
I4
sS'apparent'
p421
I1
sS'assimilation'
p422
I1
sS'8216france'
p423
I1
sS'terman'
p424
I1
sS'ignorant'
p425
I1
sS'scratches'
p426
I1
sS'behalf'
p427
I2
sS'icefree'
p428
I3
sS'hussey'
p429
I1
sS'pretend'
p430
I1
sS'abortion'
p431
I2
sS'believer'
p432
I1
sS'believes'
p433
I2
sS'harmonious'
p434
I1
sS'values'
p435
I7
sS'believed'
p436
I3
sS'admired'
p437
I1
sS'awesome'
p438
I1
sS'allowed'
p439
I5
sS'galbraith'
p440
I1
sS'evidently'
p441
I2
sS'monitoring'
p442
I1
sS'savor'
p443
I1
sS'nation8217s'
p444
I1
sS'undertook'
p445
I1
sS'edinburgh'
p446
I2
sS'improving'
p447
I1
sS'unwinnable'
p448
I1
sS'revealed'
p449
I4
sS'natural'
p450
I3
sS'sectors'
p451
I2
sS'conscious'
p452
I1
sS'consequently'
p453
I1
sS'truck'
p454
I3
sS'pulled'
p455
I2
sS'warstyle'
p456
I1
sS'unacceptable'
p457
I2
sS'years'
p458
I53
sS'course'
p459
I12
sS'episodes'
p460
I1
sS'experiments'
p461
I1
sS'tendency'
p462
I2
sS'limbs'
p463
I1
sS'internationally'
p464
I1
sS"lebanon's"
p465
I1
sS'troubles'
p466
I1
sS'amazing'
p467
I1
sS'suspicion'
p468
I1
sS'constitutes'
p469
I1
sS'suspension'
p470
I1
sS'decades'
p471
I2
sS'petition'
p472
I3
sS'modestly'
p473
I1
sS'civilian'
p474
I1
sS'smarter'
p475
I2
sS'indigenous'
p476
I2
sS'sorted'
p477
I1
sS'maintaining'
p478
I1
sS'salereuters'
p479
I1
sS'asianamerican'
p480
I2
sS'revert'
p481
I1
sS'wainibuka'
p482
I1
sS'bowling'
p483
I3
sS"italy's"
p484
I1
sS'revised'
p485
I3
sS'abstraction'
p486
I1
sS'disasters'
p487
I1
sS'container'
p488
I1
sS'pradipto'
p489
I1
sS'contained'
p490
I3
sS'investigation'
p491
I2
sS'internet'
p492
I6
sS'suggesting'
p493
I2
sS'smithjjparliamentuk'
p494
I1
sS'sheffield'
p495
I4
sS'million'
p496
I9
sS'sourcestory'
p497
I1
sS'possibility'
p498
I6
sS'quite'
p499
I5
sS'complicated'
p500
I1
sS'besides'
p501
I1
sS'unnamed'
p502
I1
sS'training'
p503
I3
sS'programming'
p504
I1
sS'modest'
p505
I1
sS'routed'
p506
I1
sS'gordon'
p507
I3
sS'bumped'
p508
I1
sS'emotion'
p509
I1
sS'saving'
p510
I1
sS'spoken'
p511
I1
sS'clause'
p512
I1
sS'potter'
p513
I3
sS'specifically'
p514
I2
sS'spanish'
p515
I1
sS'indicate'
p516
I2
sS'draft'
p517
I1
sS'typing'
p518
I1
sS'lingering'
p519
I1
sS'falun'
p520
I1
sS'mirrorflip'
p521
I1
sS'proving'
p522
I1
sS'saletan'
p523
I4
sS'ridiculous'
p524
I1
sS'agreedu003cbr'
p525
I1
sS'specialists'
p526
I1
sS'photographic'
p527
I2
sS'impractical'
p528
I1
sS'8220do'
p529
I1
sS'rival'
p530
I1
sS"o'connor"
p531
I2
sS'subsaharan'
p532
I1
sS'eurosceptic'
p533
I1
sS'future'
p534
I10
sS'russia'
p535
I26
sS'prospect'
p536
I1
sS'addressing'
p537
I1
sS'nicer'
p538
I1
sS'turned'
p539
I6
sS'argument'
p540
I5
sS'haneef'
p541
I1
sS'dismissive'
p542
I1
sS'sickening'
p543
I1
sS'aside'
p544
I4
sS'peacekeeping'
p545
I1
sS'intends'
p546
I1
sS'jefferson'
p547
I2
sS"aussies'"
p548
I1
sS'roadside'
p549
I2
sS'destroy'
p550
I2
sS'concern'
p551
I2
sS'opposite'
p552
I2
sS'squalor'
p553
I1
sS'suspects'
p554
I1
sS'eightyfour'
p555
I1
sS'pages'
p556
I1
sS'maoist'
p557
I1
sS'nonlethal'
p558
I2
sS'drive'
p559
I4
sS'crooked'
p560
I1
sS'walking'
p561
I1
sS'outsourcing'
p562
I1
sS'bright'
p563
I2
sS'aggressive'
p564
I2
sS'interrogations'
p565
I1
sS'liberation'
p566
I1
sS'going'
p567
I27
sS'outrage'
p568
I1
sS'caroline'
p569
I1
sS'dispute'
p570
I4
sS'assistant'
p571
I1
sS'freezing'
p572
I1
sS'countered'
p573
I1
sS'simplistic'
p574
I1
sS'awaiting'
p575
I1
sS'prime'
p576
I11
sS'borrow'
p577
I2
sS'absurdly'
p578
I1
sS'worried'
p579
I2
sS'bombs'
p580
I4
sS'uncover'
p581
I1
sS'specificly'
p582
I1
sS'fineman'
p583
I1
sS'footbinding'
p584
I1
sS'raged'
p585
I1
sS'overengineeired'
p586
I1
sS'shimon'
p587
I1
sS'ostensibly'
p588
I1
sS'jumped'
p589
I2
sS'sites'
p590
I4
sS'sponsorship'
p591
I1
sS'bureau'
p592
I1
sS'penissaletan'
p593
I1
sS'enjoys'
p594
I2
sS'8220what'
p595
I1
sS'wechsler'
p596
I1
sS'supermarket'
p597
I3
sS'circumference'
p598
I1
sS'8216the'
p599
I1
sS'residence'
p600
I1
sS'policebasedpolicing'
p601
I1
sS'fratboy'
p602
I1
sS'grooming'
p603
I1
sS'expression'
p604
I3
sS'leadersand'
p605
I1
sS'minima'
p606
I1
sS'mccain'
p607
I2
sS'homosexuality'
p608
I1
sS'considers'
p609
I1
sS"'freedom'"
p610
I1
sS'caring'
p611
I1
sS'wearers'
p612
I1
sS'stretch'
p613
I1
sS'airliner'
p614
I1
sS'almighty'
p615
I1
sS'combined'
p616
I1
sS'reflective'
p617
I1
sS'wants'
p618
I8
sS'enable'
p619
I2
sS'influence'
p620
I3
sS'formed'
p621
I2
sS'photos'
p622
I3
sS"debate's"
p623
I1
sS'former'
p624
I9
sS'excerpted'
p625
I1
sS'consultant'
p626
I1
sS'cowboy8221'
p627
I1
sS'polls'
p628
I3
sS'single'
p629
I2
sS'corporatism'
p630
I1
sS'invoking'
p631
I1
sS'objectivist'
p632
I2
sS'policies'
p633
I6
sS'newspaper'
p634
I6
sS'situation'
p635
I8
sS'constituency'
p636
I2
sS'engaged'
p637
I1
sS'demolition'
p638
I3
sS'wingnut'
p639
I1
sS'naheed8221'
p640
I1
sS'missiles'
p641
I10
sS'threatens'
p642
I2
sS'scientifically'
p643
I1
sS'surveillance'
p644
I1
sS'warsnbsp'
p645
I1
sS'bigtimewas'
p646
I1
sS'breakdown'
p647
I1
sS'wires'
p648
I1
sS'average'
p649
I13
sS'gingrich'
p650
I1
sS'8217s'
p651
I1
sS'vacant'
p652
I1
sS'costs'
p653
I4
sS'summer'
p654
I3
sS'morons'
p655
I1
sS'being'
p656
I52
sS'exaggerating'
p657
I1
sS'safeguards'
p658
I1
sS'tasmanian'
p659
I2
sS'caracas'
p660
I1
sS'afterwards'
p661
I1
sS'occasional'
p662
I1
sS'oftenruthless'
p663
I1
sS'overthrow'
p664
I2
sS'skies'
p665
I1
sS'aspects'
p666
I1
sS'around'
p667
I32
sS'staffmember'
p668
I1
sS'traffic'
p669
I1
sS'vacuum'
p670
I1
sS'world'
p671
I42
sS'vague'
p672
I1
sS'sensational'
p673
I1
sS'discarded'
p674
I1
sS'reuters8217'
p675
I1
sS'grouping'
p676
I1
sS'laissez'
p677
I1
sS'putrefaction'
p678
I1
sS'lebanon'
p679
I2
sS'cognitive'
p680
I7
sS'elements'
p681
I1
sS'perpetrators'
p682
I1
sS'racial'
p683
I4
sS'thinks'
p684
I2
sS'editorialised'
p685
I1
sS'philosophizing'
p686
I1
sS'scientific'
p687
I8
sS'power'
p688
I24
sS'sprung'
p689
I1
sS'leadership'
p690
I3
sS'teammate'
p691
I1
sS'stone'
p692
I1
sS'origins'
p693
I1
sS'package'
p694
I1
sS'industry'
p695
I1
sS'impervious'
p696
I1
sS'neighbor'
p697
I2
sS'perturbed'
p698
I1
sS'burning'
p699
I2
sS'image'
p700
I2
sS'widower'
p701
I1
sS'parties'
p702
I1
sS'portrayal'
p703
I1
sS'poopoo'
p704
I1
sS'technically'
p705
I1
sS"dirt'"
p706
I1
sS'myths'
p707
I2
sS'bubble'
p708
I1
sS'complete'
p709
I2
sS"child's"
p710
I1
sS'mammals'
p711
I1
sS'fascists'
p712
I1
sS'october'
p713
I1
sS'1850s'
p714
I1
sS'abuses'
p715
I1
sS'politically'
p716
I3
sS'agree'
p717
I1
sS'regimes'
p718
I5
sS'detailed'
p719
I1
sS'citizenship'
p720
I2
sS'gratuitous'
p721
I1
sS'certain'
p722
I7
sS'legalising'
p723
I1
sS'vidio'
p724
I1
sS'constabulary'
p725
I1
sS'ideally'
p726
I1
sS'vocational'
p727
I1
sS'abolish'
p728
I5
sS'crofter'
p729
I1
sS"newsinger's"
p730
I1
sS'bizarrely'
p731
I1
sS'shaun'
p732
I1
sS'congress'
p733
I5
sS'brotherhood'
p734
I1
sS'toshikatsu'
p735
I1
sS'firebrand'
p736
I1
sS'original'
p737
I8
sS'consider'
p738
I4
sS'caused'
p739
I4
sS"'nest'"
p740
I1
sS'welfare'
p741
I5
sS'causes'
p742
I2
sS'hunting'
p743
I2
sS'including'
p744
I23
sS'riots'
p745
I4
sS'nineteenseventies'
p746
I5
sS'khmer'
p747
I1
sS'returned'
p748
I3
sS'puzzled'
p749
I1
sS'strategygoogle'
p750
I1
sS'detention'
p751
I1
sS'surprise'
p752
I3
sS'marvellous'
p753
I1
sS'justintime'
p754
I1
sS'large'
p755
I8
sS'adjust'
p756
I1
sS'harry'
p757
I1
sS'small'
p758
I13
sS'hoxha'
p759
I3
sS'pohiva'
p760
I1
sS'redhanded'
p761
I2
sS'czechs'
p762
I1
sS'kilocalories'
p763
I2
sS'investment'
p764
I3
sS'odaiba'
p765
I1
sS'richard'
p766
I12
sS'prevailed'
p767
I1
sS'colonists'
p768
I2
sS'scientists'
p769
I3
sS'jurist'
p770
I1
sS'contrast'
p771
I1
sS'hours'
p772
I5
sS'bloggers'
p773
I16
sS'civilians'
p774
I4
sS'november'
p775
I5
sS'way8217'
p776
I1
sS'nonrevolution'
p777
I1
sS'experience'
p778
I4
sS'prior'
p779
I1
sS'khmere'
p780
I2
sS'social'
p781
I7
sS'action'
p782
I7
sS'murdering'
p783
I1
sS'smuggle'
p784
I1
sS"day's"
p785
I1
sS'followed'
p786
I5
sS'traumatized'
p787
I1
sS'objectives'
p788
I2
sS'archives'
p789
I2
sS'company'
p790
I6
sS'spoils'
p791
I1
sS'formfitting'
p792
I1
sS'nonviolent'
p793
I1
sS'keeping'
p794
I1
sS'science'
p795
I4
sS'thickest'
p796
I1
sS'evolved'
p797
I1
sS'learn'
p798
I3
sS'stated'
p799
I1
sS'suggestions'
p800
I1
sS'accept'
p801
I2
sS'states'
p802
I31
sS'sense'
p803
I9
sS'dress'
p804
I1
sS'condemn'
p805
I2
sS'information'
p806
I6
sS'respective'
p807
I1
sS'gilliard'
p808
I1
sS'prestiege'
p809
I1
sS'batterypowered'
p810
I1
sS'dismissed'
p811
I4
sS'intended'
p812
I1
sS'blotter'
p813
I1
sS'brett'
p814
I2
sS'develop'
p815
I4
sS'ethics'
p816
I2
sS'resemble'
p817
I1
sS'fundamental'
p818
I1
sS'testsand'
p819
I1
sS'geographic'
p820
I1
sS'replied'
p821
I1
sS'mexican'
p822
I1
sS'8220they8217re'
p823
I1
sS'descisons'
p824
I1
sS'trade'
p825
I18
sS'attitude'
p826
I1
sS'embassy'
p827
I2
sS'scott'
p828
I3
sS'signs'
p829
I1
sS'roots'
p830
I2
sS'rapidly'
p831
I1
sS'ethiopia'
p832
I1
sS'xiaoping'
p833
I1
sS'bypass'
p834
I1
sS'nifty'
p835
I1
sS'categoriesthose'
p836
I1
sS'abandons'
p837
I1
sS'entire'
p838
I7
sS'snowball'
p839
I1
sS'skipper'
p840
I1
sS'sucked'
p841
I1
sS'always'
p842
I11
sS'floors'
p843
I1
sS'found'
p844
I12
sS'shocking'
p845
I1
sS'reactions'
p846
I1
sS'7yearold'
p847
I1
sS'england'
p848
I5
sS'resolute'
p849
I1
sS'reduce'
p850
I4
sS'operation'
p851
I2
sS'islamomarxist'
p852
I1
sS'really'
p853
I9
sS'repressive'
p854
I1
sS'psychology'
p855
I1
sS'blacks'
p856
I12
sS'research'
p857
I7
sS'highway'
p858
I1
sS'jiangsu'
p859
I1
sS'belief'
p860
I2
sS'risen'
p861
I2
sS'1920s'
p862
I1
sS'bungled'
p863
I1
sS'proxy'
p864
I1
sS'imagine'
p865
I4
sS'driven'
p866
I2
sS'owners'
p867
I3
sS'8216gone8217'
p868
I1
sS'excluding'
p869
I1
sS'gladwell'
p870
I2
sS'contingency'
p871
I1
sS'major'
p872
I2
sS'protectionist'
p873
I1
sS'girls'
p874
I1
sS'number'
p875
I25
sS'anonymity'
p876
I1
sS'8220us'
p877
I1
sS'protectionism'
p878
I2
sS'guess'
p879
I3
sS'heads'
p880
I1
sS'guest'
p881
I3
sS'introduction'
p882
I2
sS'threatening'
p883
I3
sS'checkpoint'
p884
I1
sS'subsidise'
p885
I1
sS'richard8217s'
p886
I1
sS'seventies'
p887
I2
sS'relationship'
p888
I6
sS'interviewed'
p889
I3
sS'immediate'
p890
I3
sS'stairs'
p891
I1
sS'evicting'
p892
I1
sS'iranian'
p893
I12
sS'underpinning'
p894
I1
sS'determined'
p895
I1
sS'marriage'
p896
I15
sS'organisations'
p897
I3
sS'swanky'
p898
I1
sS'reliance'
p899
I1
sS'internal'
p900
I4
sS'analogy'
p901
I1
sS'unequal'
p902
I1
sS'sometimes'
p903
I3
sS'cover'
p904
I6
sS'stoning'
p905
I2
sS'barred'
p906
I3
sS'barren'
p907
I1
sS'saratov'
p908
I1
sS'cruises'
p909
I1
sS'defended'
p910
I1
sS'session'
p911
I3
sS'occupation'
p912
I3
sS'impact'
p913
I4
sS'writes'
p914
I4
sS'writer'
p915
I1
sS'failed'
p916
I6
sS'wayne'
p917
I1
sS'slaves'
p918
I14
sS'dependent'
p919
I1
sS'banned'
p920
I2
sS"they'd"
p921
I3
sS'preparing'
p922
I2
sS'reporters'
p923
I1
sS'charmingly'
p924
I1
sS'frightening'
p925
I2
sS'sanitised'
p926
I1
sS'enemy'
p927
I3
sS'progressive'
p928
I1
sS'tumors'
p929
I1
sS'proclaim'
p930
I1
sS'river'
p931
I2
sS'insane'
p932
I1
sS'carrying'
p933
I1
sS'activists'
p934
I2
sS'collectively'
p935
I1
sS'barkers'
p936
I1
sS'knees'
p937
I1
sS'selfcooling'
p938
I1
sS'movie'
p939
I1
sS'currently'
p940
I4
sS'rejecting'
p941
I1
sS'europe'
p942
I37
sS'candor'
p943
I1
sS'pifeleti'
p944
I1
sS'incident'
p945
I1
sS'prospects'
p946
I2
sS'spanblather'
p947
I2
sS'connection'
p948
I1
sS'retarded'
p949
I4
sS'whole'
p950
I11
sS'chartris'
p951
I1
sS'acted'
p952
I1
sS'community'
p953
I12
sS'agents'
p954
I6
sS'novosti'
p955
I2
sS'scottish'
p956
I3
sS'ii8217s'
p957
I1
sS'laws8217'
p958
I1
sS'publishing'
p959
I1
sS'conveyor'
p960
I1
sS'convicted'
p961
I3
sS'suburbs'
p962
I1
sS"stalin's"
p963
I1
sS'rpg7mm'
p964
I1
sS'mercantilism'
p965
I8
sS"what's"
p966
I1
sS'races'
p967
I6
sS'representative'
p968
I3
sS'systematic'
p969
I1
sS'receive'
p970
I1
sS'counterintelligence'
p971
I2
sS'uncertain'
p972
I2
sS'straight'
p973
I1
sS'expanded'
p974
I1
sS'budget'
p975
I5
sS'forgetting'
p976
I4
sS'pressed'
p977
I1
sS'error'
p978
I1
sS'scheduled'
p979
I1
sS'backing'
p980
I1
sS'binding'
p981
I3
sS'triple'
p982
I1
sS'funny'
p983
I4
sS'8220when'
p984
I1
sS'elevated'
p985
I1
sS'virtually'
p986
I1
sS'offence'
p987
I1
sS'zealandu003cbr'
p988
I1
sS'comprehensive'
p989
I2
sS'pakiam'
p990
I1
sS'levels'
p991
I6
sS'nickname'
p992
I1
sS'infamous'
p993
I2
sS'recent'
p994
I10
sS'alleging'
p995
I1
sS'concrete'
p996
I1
sS'miliband'
p997
I1
sS'responsible'
p998
I5
sS'arrests'
p999
I1
sS'forrest'
p1000
I1
sS'conclusions'
p1001
I2
sS'surprises'
p1002
I1
sS'admission'
p1003
I2
sS'it8217s'
p1004
I14
sS'repopulate'
p1005
I2
sS'signals'
p1006
I1
sS'parents'
p1007
I3
sS'testimonies'
p1008
I1
sS'homeland'
p1009
I1
sS"abo's"
p1010
I3
sS'surprised'
p1011
I4
sS'lumpur'
p1012
I2
sS'australia'
p1013
I14
sS'victims'
p1014
I2
sS'emergency'
p1015
I7
sS'demands'
p1016
I2
sS'couple'
p1017
I4
sS'bureaucrat'
p1018
I1
sS'wives'
p1019
I1
sS'suffering'
p1020
I3
sS'entrenched'
p1021
I1
sS'formal'
p1022
I1
sS'citizenism'
p1023
I1
sS'fouryearold'
p1024
I1
sS'individuals'
p1025
I1
sS'suppliers'
p1026
I1
sS'lenin'
p1027
I1
sS'methods'
p1028
I3
sS'senate'
p1029
I3
sS'spring'
p1030
I2
sS'sight'
p1031
I1
sS'curious'
p1032
I2
sS'religion'
p1033
I4
sS'prosecuted'
p1034
I3
sS"russia's"
p1035
I4
sS'hiltonesk'
p1036
I1
sS'inserting'
p1037
I1
sS'limitless'
p1038
I1
sS"china's"
p1039
I2
sS'crooks'
p1040
I2
sS'agreement'
p1041
I4
sS'nowhere'
p1042
I1
sS'relating'
p1043
I1
sS'anything'
p1044
I3
sS'researchthe'
p1045
I1
sS'melbourne'
p1046
I2
sS'archbishop'
p1047
I1
sS'terrorists'
p1048
I11
sS'legalise'
p1049
I1
sS'servers'
p1050
I2
sS'osama'
p1051
I3
sS'appropriate'
p1052
I2
sS'primarily'
p1053
I1
sS'gosnells'
p1054
I1
sS'spending'
p1055
I2
sS'submit'
p1056
I1
sS'prensa'
p1057
I2
sS'8220good8221'
p1058
I1
sS'rhetorical'
p1059
I1
sS'considerably'
p1060
I1
sS'elsewhere'
p1061
I3
sS'inches'
p1062
I1
sS'jewish'
p1063
I2
sS'staffordsmith'
p1064
I1
sS'pacific'
p1065
I7
sS'realists'
p1066
I1
sS'posted'
p1067
I3
sS'burrows'
p1068
I1
sS'rostock'
p1069
I3
sS'armstrong'
p1070
I2
sS'soliders'
p1071
I1
sS'defined'
p1072
I2
sS'deadliest'
p1073
I1
sS'comming'
p1074
I1
sS'haxton'
p1075
I1
sS'8220we'
p1076
I1
sS'diverse'
p1077
I1
sS'nationalism'
p1078
I1
sS'thugs'
p1079
I2
sS'codes'
p1080
I1
sS'puzzling'
p1081
I1
sS'edwards'
p1082
I2
sS'uranium'
p1083
I1
sS'preventing'
p1084
I1
sS'scraps'
p1085
I1
sS'freighter'
p1086
I2
sS'saundra'
p1087
I1
sS'700000'
p1088
I1
sS'wrongly'
p1089
I1
sS'provided'
p1090
I5
sS'cranking'
p1091
I1
sS'katsav'
p1092
I1
sS'sides'
p1093
I1
sS'hells'
p1094
I1
sS'miles'
p1095
I3
sS'holes'
p1096
I1
sS'walked'
p1097
I2
sS'summit'
p1098
I9
sS'enrolled'
p1099
I2
sS'retardation'
p1100
I2
sS'fresh'
p1101
I3
sS'menace'
p1102
I1
sS'having'
p1103
I14
sS'essay'
p1104
I1
sS'monterey'
p1105
I1
sS'scratch'
p1106
I1
sS'results'
p1107
I4
sS'existing'
p1108
I1
sS'illustrated'
p1109
I1
sS'crying'
p1110
I2
sS'seemed'
p1111
I11
sS'trampling'
p1112
I1
sS'longstanding'
p1113
I1
sS'concerned'
p1114
I1
sS'young'
p1115
I6
sS'debunking'
p1116
I1
sS'longoverdue'
p1117
I1
sS'citing'
p1118
I1
sS'resources'
p1119
I1
sS"show's"
p1120
I1
sS'torture'
p1121
I11
sS'bodyof'
p1122
I1
sS'continues'
p1123
I4
sS'there8217s'
p1124
I1
sS'continued'
p1125
I5
sS'categories'
p1126
I5
sS'timely'
p1127
I1
sS'stepgrandfather'
p1128
I1
sS'marry'
p1129
I2
sS"they've"
p1130
I3
sS'fewer'
p1131
I1
sS'proslavery'
p1132
I2
sS'pledge'
p1133
I1
sS'thatleavesa'
p1134
I1
sS'video'
p1135
I5
sS'munitions'
p1136
I3
sS'incidentally'
p1137
I1
sS'assembly'
p1138
I2
sS'pajamas'
p1139
I1
sS'index'
p1140
I1
sS'apparatus'
p1141
I1
sS'expressed'
p1142
I1
sS'indian'
p1143
I3
sS'flowing'
p1144
I1
sS'firms'
p1145
I1
sS'harassing'
p1146
I1
sS'scenery'
p1147
I3
sS'chinas'
p1148
I1
sS'8216evil8217'
p1149
I1
sS'poverty'
p1150
I3
sS'slaughter'
p1151
I1
sS'licence'
p1152
I1
sS"history's"
p1153
I1
sS'childmolesters'
p1154
I1
sS'fifteen'
p1155
I1
sS'great'
p1156
I26
sS'technical'
p1157
I4
sS'involved'
p1158
I3
sS'resulting'
p1159
I2
sS'defeat'
p1160
I3
sS'opinion'
p1161
I3
sS'residents'
p1162
I2
sS'makes'
p1163
I9
sS'thats'
p1164
I5
sS'uliti'
p1165
I1
sS'extinctions'
p1166
I1
sS'gavel82308230had'
p1167
I1
sS'profanitys'
p1168
I1
sS'tools'
p1169
I1
sS'standing'
p1170
I2
sS'confidence'
p1171
I3
sS'recalling'
p1172
I1
sS'illegal'
p1173
I4
sS'ministers'
p1174
I5
sS'doubt'
p1175
I6
sS'doubling'
p1176
I1
sS'forefathers'
p1177
I1
sS'occurred'
p1178
I3
sS'bodily'
p1179
I1
sS'opposing'
p1180
I1
sS'labelled'
p1181
I2
sS'albanians'
p1182
I7
sS'balls'
p1183
I1
sS'animals'
p1184
I2
sS'challenge'
p1185
I3
sS'clients'
p1186
I1
sS'reproduce'
p1187
I1
sS'fulfill'
p1188
I1
sS'coffin'
p1189
I1
sS'process'
p1190
I1
sS'purposes'
p1191
I3
sS'weaken'
p1192
I1
sS'educational'
p1193
I1
sS'destroying'
p1194
I4
sS'taunisila'
p1195
I1
sS'delay'
p1196
I1
sS'reposting'
p1197
I1
sS'intelligent'
p1198
I2
sS'paler'
p1199
I1
sS'blocks'
p1200
I1
sS'halted'
p1201
I1
sS'demonstrating'
p1202
I1
sS'solidarity'
p1203
I4
sS'realized'
p1204
I3
sS'reagans'
p1205
I1
sS'counter'
p1206
I2
sS'hundredpoint'
p1207
I1
sS'allow'
p1208
I2
sS'pyramids'
p1209
I1
sS'evolutionary'
p1210
I2
sS'insight'
p1211
I2
sS'doubtful'
p1212
I1
sS'produced'
p1213
I3
sS'almaliki'
p1214
I1
sS'perfect'
p1215
I2
sS'sunmaize'
p1216
I1
sS'chosen'
p1217
I1
sS'responsibilities'
p1218
I1
sS'garnet'
p1219
I1
sS'semifeudal'
p1220
I1
sS'sabotaging'
p1221
I1
sS'animal'
p1222
I1
sS'stabilise'
p1223
I1
sS'garner'
p1224
I1
sS'pompous'
p1225
I1
sS'presidential'
p1226
I6
sS'minimalist'
p1227
I1
sS'hallmarks'
p1228
I1
sS'establishment'
p1229
I2
sS'truth'
p1230
I4
sS'shortage'
p1231
I1
sS'accounts'
p1232
I1
sS'beneath'
p1233
I1
sS'strode'
p1234
I2
sS'homogeneous'
p1235
I1
sS'otago'
p1236
I1
sS'doing'
p1237
I15
sS'society'
p1238
I6
sS'books'
p1239
I3
sS'exacerbates'
p1240
I1
sS"mohammed's"
p1241
I1
sS'agriculture'
p1242
I1
sS'wander'
p1243
I1
sS'witness'
p1244
I1
sS'fundamentally'
p1245
I1
sS'antimissile'
p1246
I1
sS'hilarious'
p1247
I1
sS'tempo'
p1248
I1
sS'inferiority'
p1249
I1
sS'surely'
p1250
I2
sS'regulatory'
p1251
I1
sS'noncombatants'
p1252
I1
sS'craving'
p1253
I1
sS'stalinism'
p1254
I2
sS'could'
p1255
I47
sS'david'
p1256
I3
sS'length'
p1257
I1
sS'assumed'
p1258
I2
sS'stalinist'
p1259
I2
sS'repeats'
p1260
I2
sS'suppliment'
p1261
I1
sS'alwaysabridesmaidneverabride'
p1262
I1
sS'scene'
p1263
I3
sS'owned'
p1264
I1
sS'jesus'
p1265
I3
sS'muhammad'
p1266
I2
sS'owner'
p1267
I3
sS'legislative'
p1268
I1
sS'erstwhile'
p1269
I1
sS'festival'
p1270
I2
sS'demonstration'
p1271
I1
sS'traveller'
p1272
I1
sS'system'
p1273
I13
sS'exhilarating'
p1274
I1
sS'travelled'
p1275
I1
sS'interests'
p1276
I4
sS'enforcement'
p1277
I1
sS'vigorous'
p1278
I1
sS'seymour'
p1279
I1
sS'beatings'
p1280
I1
sS'won8217t'
p1281
I1
sS'colleagues'
p1282
I1
sS'bother'
p1283
I2
sS'reacted'
p1284
I1
sS'tortured'
p1285
I4
sS'orchestrated'
p1286
I1
sS'precontainerisation'
p1287
I1
sS'repented'
p1288
I1
sS'false'
p1289
I4
sS'partnership'
p1290
I2
sS'defending'
p1291
I2
sS"'fabricated"
p1292
I2
sS'clearly'
p1293
I7
sS'viewed'
p1294
I1
sS'competency'
p1295
I1
sS'documents'
p1296
I2
sS'twentytwo'
p1297
I1
sS'954only'
p1298
I1
sS'latina'
p1299
I2
sS'worldwide'
p1300
I2
sS'freestanding'
p1301
I1
sS'device'
p1302
I1
sS'stronger'
p1303
I1
sS"you'll"
p1304
I1
sS'taskforce'
p1305
I1
sS'bring'
p1306
I6
sS'manchester'
p1307
I1
sS'rouge'
p1308
I3
sS'asylum'
p1309
I4
sS'economist'
p1310
I3
sS'decade'
p1311
I1
sS'principal'
p1312
I1
sS'germanness'
p1313
I1
sS'pause'
p1314
I1
sS'should'
p1315
I39
sS'riding'
p1316
I2
sS'meant'
p1317
I4
sS'means'
p1318
I14
sS'familiar'
p1319
I1
sS'muttering'
p1320
I1
sS'lucky'
p1321
I1
sS'exchanges'
p1322
I2
sS'following'
p1323
I8
sS'denmark'
p1324
I1
sS'taxes'
p1325
I7
sS'trotksyist'
p1326
I1
sS'extremists'
p1327
I3
sS'stuff'
p1328
I4
sS'basking'
p1329
I1
sS'saudifellating'
p1330
I1
sS'guessing'
p1331
I2
sS'catastrophic'
p1332
I2
sS'frame'
p1333
I1
sS'goddard'
p1334
I2
sS'insulting'
p1335
I2
sS'nuclear'
p1336
I27
sS'partisan'
p1337
I1
sS'injustice'
p1338
I2
sS'god8217s'
p1339
I1
sS'email'
p1340
I4
sS'retentive'
p1341
I1
sS'shiite'
p1342
I2
sS'explosive'
p1343
I2
sS'nbspthey'
p1344
I1
sS'historians'
p1345
I2
sS'interchangeable'
p1346
I1
sS'lawsuit'
p1347
I1
sS'restrictions'
p1348
I2
sS'tantrum'
p1349
I1
sS'pimping'
p1350
I1
sS'deficits'
p1351
I1
sS'inniemore'
p1352
I1
sS'adjusted'
p1353
I1
sS'medallion'
p1354
I1
sS'malcolm'
p1355
I1
sS'powered'
p1356
I1
sS'genetic'
p1357
I8
sS'poured'
p1358
I1
sS'homosexual'
p1359
I2
sS'regimenbsp'
p1360
I1
sS'rioting'
p1361
I1
sS'blatancy'
p1362
I1
sS'spain'
p1363
I3
sS'bankernomics'
p1364
I1
sS'middle'
p1365
I14
sS'punkreggae'
p1366
I1
sS'registered'
p1367
I1
sS'sellingpoints'
p1368
I1
sS'macedonia'
p1369
I1
sS'politics'
p1370
I14
sS'greater'
p1371
I3
sS'terrorist'
p1372
I2
sS'oldfashioned'
p1373
I1
sS'matthew'
p1374
I1
sS'buffoon'
p1375
I1
sS'outbreak'
p1376
I2
sS'terrorism'
p1377
I11
sS"citizen's"
p1378
I1
sS'electorates'
p1379
I1
sS'forecasts'
p1380
I1
sS'distinction'
p1381
I2
sS'identity'
p1382
I2
sS'sgolne'
p1383
I1
sS'colour'
p1384
I1
sS'indonesia'
p1385
I2
sS'httpwwwstuffconz4319921a12html'
p1386
I1
sS'patterns'
p1387
I2
sS'command'
p1388
I2
sS'drawing'
p1389
I2
sS'inconsistently'
p1390
I1
sS'predicts'
p1391
I1
sS'monetarist'
p1392
I2
sS'kanaya'
p1393
I1
sS'arrest'
p1394
I3
sS'neoliberal'
p1395
I1
sS'villagers'
p1396
I2
sS'increased'
p1397
I6
sS'government'
p1398
I54
sS'famously'
p1399
I1
sS'increases'
p1400
I1
sS'zimbabwe'
p1401
I10
sS'belgium'
p1402
I4
sS'enemys'
p1403
I1
sS'bigotry'
p1404
I1
sS'beasfeelgoodhugsandkissesas'
p1405
I1
sS'undertaking'
p1406
I1
sS'become'
p1407
I16
sS"tapes'"
p1408
I1
sS'indications'
p1409
I1
sS'footage'
p1410
I1
sS'mozambique'
p1411
I1
sS'transport'
p1412
I9
sS'avoid'
p1413
I1
sS'instapundit'
p1414
I2
sS'entrepreneurialism'
p1415
I1
sS'world8217s'
p1416
I2
sS'pressure'
p1417
I4
sS'imaginary'
p1418
I1
sS'counties'
p1419
I2
sS'hiding'
p1420
I1
sS'gained'
p1421
I2
sS'lifestyle'
p1422
I2
sS'blackness'
p1423
I1
sS'documentary'
p1424
I1
sS'revise'
p1425
I1
sS'letters'
p1426
I4
sS'libertarians'
p1427
I3
sS'catherine'
p1428
I1
sS'referendum'
p1429
I1
sS'theyd'
p1430
I1
sS'roads'
p1431
I3
sS'peters'
p1432
I7
sS'frustration'
p1433
I2
sS'paperandpencil'
p1434
I1
sS'troubling'
p1435
I3
sS'venezuelan'
p1436
I1
sS'flynn'
p1437
I32
sS'function'
p1438
I5
sS'maori'
p1439
I1
sS'1860s'
p1440
I1
sS'delivery'
p1441
I2
sS'construction'
p1442
I1
sS'grate'
p1443
I1
sS'grata'
p1444
I3
sS'count'
p1445
I1
sS'places'
p1446
I2
sS'official'
p1447
I8
sS'smooth'
p1448
I2
sS'excitement'
p1449
I1
sS'convince'
p1450
I1
sS'enthrone'
p1451
I1
sS'problem'
p1452
I12
sS'irish'
p1453
I7
sS"'hightech'"
p1454
I1
sS'you8217ve'
p1455
I1
sS'recognize'
p1456
I1
sS'contribute'
p1457
I1
sS"steyn's"
p1458
I1
sS'rifkind'
p1459
I1
sS'websites'
p1460
I4
sS'jesse'
p1461
I1
sS'renowned'
p1462
I1
sS'compared'
p1463
I2
sS'variety'
p1464
I2
sS'trials'
p1465
I1
sS'brandenburg'
p1466
I1
sS'stigmatizing'
p1467
I1
sS'details'
p1468
I3
sS'predominant'
p1469
I1
sS'repeat'
p1470
I2
sS'monday'
p1471
I4
sS'oppression'
p1472
I1
sS'treason'
p1473
I2
sS"blair's"
p1474
I2
sS'u003cdiv0'
p1475
I1
sS'multinationals'
p1476
I1
sS'premodern'
p1477
I1
sS'communitybased'
p1478
I1
sS'lasted'
p1479
I1
sS'rural'
p1480
I3
sS'ghosh'
p1481
I2
sS'desirable'
p1482
I1
sS'fiordland'
p1483
I1
sS'controversial'
p1484
I1
sS'oldest'
p1485
I1
sS'integrity'
p1486
I1
sS'relationships'
p1487
I1
sS'neighbours'
p1488
I2
sS'tyrannies'
p1489
I1
sS'worth'
p1490
I5
sS'compassion'
p1491
I1
sS'exception'
p1492
I1
sS"women's"
p1493
I1
sS'replication'
p1494
I1
sS'franticly'
p1495
I1
sS'wolfgang'
p1496
I1
sS'urinating'
p1497
I1
sS'abolishing'
p1498
I1
sS'reinvent'
p1499
I1
sS'1940s'
p1500
I1
sS'pragmatic'
p1501
I1
sS'wwwblogspotcom'
p1502
I1
sS'phones'
p1503
I1
sS'messy'
p1504
I1
sS'eurovision'
p1505
I1
sS'established'
p1506
I5
sS'clocked'
p1507
I1
sS'above'
p1508
I6
sS'churches'
p1509
I2
sS'officially'
p1510
I2
sS'expresident'
p1511
I1
sS'counters'
p1512
I1
sS'simultaneously'
p1513
I1
sS'festive'
p1514
I1
sS'richest'
p1515
I1
sS'conglomerate'
p1516
I1
sS'protection'
p1517
I1
sS'pursuit'
p1518
I2
sS'miscarriage'
p1519
I1
sS'obtained'
p1520
I2
sS'balance'
p1521
I2
sS'rosenmolina'
p1522
I1
sS'items'
p1523
I1
sS'study'
p1524
I3
sS'smoke'
p1525
I1
sS'stressed'
p1526
I1
sS'recommendedread'
p1527
I1
sS'secure'
p1528
I1
sS'servicemen'
p1529
I1
sS'angrily'
p1530
I1
sS'highly'
p1531
I6
sS'cheats'
p1532
I1
sS'opportunities'
p1533
I1
sS'glance'
p1534
I1
sS'total'
p1535
I5
sS"press's"
p1536
I1
sS'palestinian'
p1537
I12
sS'achieve'
p1538
I4
sS'negative'
p1539
I2
sS'insult'
p1540
I1
sS'1930s'
p1541
I1
sS'seriously'
p1542
I6
sS'8220yeh'
p1543
I1
sS'scary'
p1544
I1
sS'traceable'
p1545
I1
sS'ascribe'
p1546
I1
sS'reign'
p1547
I1
sS'aware'
p1548
I3
sS'theories'
p1549
I5
sS'genitalia'
p1550
I1
sS'cuddle'
p1551
I1
sS'renormed'
p1552
I3
sS'pollute'
p1553
I1
sS'knesset'
p1554
I2
sS'india'
p1555
I5
sS'cites'
p1556
I1
sS'provide'
p1557
I3
sS'interview'
p1558
I5
sS'resignation'
p1559
I3
sS'after'
p1560
I51
sS'chilled'
p1561
I1
sS'appreciate'
p1562
I2
sS'greet'
p1563
I1
sS'greek'
p1564
I1
sS'trvia'
p1565
I1
sS'green'
p1566
I8
sS'order'
p1567
I9
sS'greed'
p1568
I2
sS'office'
p1569
I11
sS'consent'
p1570
I1
sS'japan'
p1571
I7
sS'slimmer'
p1572
I1
sS'mayor'
p1573
I1
sS'bombing'
p1574
I2
sS'saigon'
p1575
I1
sS'somewhere'
p1576
I5
sS'highlights'
p1577
I1
sS'production'
p1578
I9
sS'securityquot'
p1579
I1
sS'versus'
p1580
I2
sS'eventually'
p1581
I2
sS'affected'
p1582
I2
sS'break'
p1583
I5
sS'hispanics'
p1584
I2
sS'roommate'
p1585
I1
sS'flatmate'
p1586
I1
sS'reasonably'
p1587
I1
sS'backgrounds'
p1588
I1
sS'slavery'
p1589
I31
sS'reasonable'
p1590
I1
sS'schemes'
p1591
I1
sS'crimes'
p1592
I2
sS'leadup'
p1593
I1
sS'trundlers'
p1594
I1
sS'strangers'
p1595
I1
sS'unkempt'
p1596
I1
sS'forth'
p1597
I1
sS'barrier'
p1598
I1
sS'standard'
p1599
I4
sS'campaigns'
p1600
I1
sS"people's"
p1601
I1
sS'forcibly'
p1602
I1
sS'delves'
p1603
I1
sS'created'
p1604
I4
sS'chirac'
p1605
I1
sS'ordering'
p1606
I2
sS'incorporated'
p1607
I1
sS'crustiedom'
p1608
I1
sS'another'
p1609
I28
sS'tongan'
p1610
I2
sS'carlyle'
p1611
I1
sS'brillig'
p1612
I1
sS'overs'
p1613
I1
sS'cambodians'
p1614
I1
sS'approximately'
p1615
I1
sS'compromise'
p1616
I1
sS'observations'
p1617
I1
sS'farming'
p1618
I1
sS'crunched'
p1619
I1
sS'streets'
p1620
I2
sS'grandchildren'
p1621
I2
sS'happily'
p1622
I1
sS'albert'
p1623
I1
sS'rejected'
p1624
I2
sS'cereal'
p1625
I2
sS'target'
p1626
I5
sS'historical'
p1627
I3
sS'powers'
p1628
I4
sS'minus'
p1629
I1
sS'fijianu003cbr'
p1630
I1
sS'stomach'
p1631
I1
sS'contents'
p1632
I1
sS'forced'
p1633
I7
sS'strength'
p1634
I1
sS'genuine'
p1635
I4
sS'laden'
p1636
I4
sS'latter'
p1637
I2
sS'materials'
p1638
I2
sS'forces'
p1639
I12
sS'strongman'
p1640
I1
sS'circles'
p1641
I1
sS'nobody'
p1642
I1
sS'hammond'
p1643
I1
sS'exercised'
p1644
I1
sS'anatomy'
p1645
I1
sS'involving'
p1646
I2
sS'germany'
p1647
I6
sS'lekima'
p1648
I1
sS'grave'
p1649
I2
sS'emambakhsh'
p1650
I4
sS'neighborhoods'
p1651
I1
sS'63yearold'
p1652
I1
sS'calculated'
p1653
I1
sS'8220weak8221'
p1654
I1
sS'notion'
p1655
I2
sS'meteours'
p1656
I1
sS"economists'"
p1657
I1
sS'lewis'
p1658
I2
sS'tailormade'
p1659
I1
sS'anniversary'
p1660
I1
sS'damming'
p1661
I1
sS'firehose'
p1662
I1
sS'enjoyed'
p1663
I2
sS'appended'
p1664
I1
sS'600000'
p1665
I1
sS'screening'
p1666
I1
sS'personality'
p1667
I1
sS'predecessor'
p1668
I1
sS'ecologist'
p1669
I1
sS'watson'
p1670
I3
sS'haunted'
p1671
I1
sS'mixedrace'
p1672
I3
sS'nasty'
p1673
I1
sS'stalwarts'
p1674
I1
sS'humanism'
p1675
I1
sS'irregularities'
p1676
I1
sS"children's"
p1677
I2
sS'unsilent'
p1678
I1
sS'insurgents'
p1679
I3
sS'steam'
p1680
I1
sS'secretary'
p1681
I4
sS'oxcarts'
p1682
I1
sS'depends'
p1683
I1
sS"'apartheid'"
p1684
I1
sS'projections'
p1685
I2
sS'cattle'
p1686
I1
sS'discussions'
p1687
I2
sS'miserable'
p1688
I1
sS'optimum'
p1689
I1
sS'draws'
p1690
I1
sS'unable'
p1691
I3
sS'cooperation'
p1692
I7
sS'drawn'
p1693
I3
sS'misguided'
p1694
I1
sS'shields'
p1695
I1
sS'failings'
p1696
I1
sS'terms'
p1697
I8
sS'handful'
p1698
I2
sS'theresa'
p1699
I1
sS'communitymembers'
p1700
I1
sS'received'
p1701
I2
sS'climate'
p1702
I14
sS'psychologists'
p1703
I4
sS'peacefully'
p1704
I1
sS'islamists'
p1705
I3
sS'royal'
p1706
I5
sS'seizure'
p1707
I1
sS'wider'
p1708
I2
sS'speak'
p1709
I1
sS'japans'
p1710
I1
sS'petty'
p1711
I1
sS'condemned'
p1712
I1
sS'charisma'
p1713
I1
sS'dozens'
p1714
I5
sS'duties'
p1715
I1
sS'families'
p1716
I3
sS'beloved'
p1717
I1
sS'attacked'
p1718
I3
sS'checkable'
p1719
I1
sS'armoury'
p1720
I1
sS'postmodern'
p1721
I1
sS'applied'
p1722
I2
sS'publicly'
p1723
I1
sS'property'
p1724
I4
sS'launched'
p1725
I2
sS'weakens'
p1726
I1
sS'confirmed'
p1727
I1
sS'descent'
p1728
I1
sS'deepens'
p1729
I1
sS'trashing'
p1730
I1
sS'workingclass'
p1731
I1
sS'grapple'
p1732
I1
sS'sheltered'
p1733
I1
sS'monarch'
p1734
I1
sS'convictions'
p1735
I1
sS'advertising'
p1736
I3
sS'independent'
p1737
I8
sS'saddam'
p1738
I2
sS'counterparts'
p1739
I1
sS'liberties'
p1740
I1
sS'usbased'
p1741
I2
sS'devalued'
p1742
I1
sS'redneck'
p1743
I1
sS'blamed'
p1744
I3
sS'attackbomb'
p1745
I1
sS'centred'
p1746
I1
sS'whereby'
p1747
I2
sS'scenario'
p1748
I3
sS'twoparent'
p1749
I1
sS'client'
p1750
I2
sS'centres'
p1751
I1
sS'camps'
p1752
I1
sS'inadvisability'
p1753
I1
sS'traditions'
p1754
I1
sS'quoted'
p1755
I2
sS'photo'
p1756
I1
sS'tiefensee'
p1757
I1
sS'quotes'
p1758
I1
sS'thanks'
p1759
I5
sS'mohamed'
p1760
I2
sS'adding'
p1761
I3
sS'hills'
p1762
I1
sS'paleolibertarians'
p1763
I1
sS'similarities'
p1764
I4
sS'occupants'
p1765
I1
sS'countrys'
p1766
I3
sS'belongs'
p1767
I1
sS'board'
p1768
I2
sS'expelled'
p1769
I4
sS'homogenizing'
p1770
I1
sS'viking'
p1771
I1
sS'retreat'
p1772
I3
sS'tongans'
p1773
I1
sS'environmentallyfriendly'
p1774
I1
sS'night'
p1775
I7
sS'security'
p1776
I13
sS'embroiled'
p1777
I1
sS'korea'
p1778
I10
sS'critique'
p1779
I1
sS'abcnewscom'
p1780
I1
sS'denies'
p1781
I1
sS'comments'
p1782
I2
sS'asking'
p1783
I7
sS'denied'
p1784
I1
sS'articulates'
p1785
I1
sS'beating'
p1786
I3
sS'columbus'
p1787
I1
sS'constructive'
p1788
I1
sS'mutters'
p1789
I1
sS'newspapers'
p1790
I2
sS'months'
p1791
I6
sS'realising'
p1792
I1
sS'jacques'
p1793
I1
sS'prisoners'
p1794
I5
sS'preliminary'
p1795
I2
sS'profession'
p1796
I1
sS'delighted'
p1797
I1
sS'fides'
p1798
I1
sS'geophysical'
p1799
I1
sS'formidable'
p1800
I2
sS'available'
p1801
I2
sS'fight'
p1802
I8
sS'clinical'
p1803
I1
sS'lowest'
p1804
I1
sS'something'
p1805
I18
sS'onlineu003cbr'
p1806
I1
sS'becoming'
p1807
I4
sS'peninsula'
p1808
I2
sS'kiwiblog'
p1809
I1
sS'makeu003cbr'
p1810
I1
sS'responding'
p1811
I1
sS'overrules'
p1812
I1
sS'perpetuity'
p1813
I1
sS'promises'
p1814
I2
sS'medication'
p1815
I1
sS'hotter'
p1816
I2
sS'request'
p1817
I1
sS'abstract'
p1818
I7
sS'israel'
p1819
I36
sS'evidence'
p1820
I21
sS'guessed'
p1821
I2
sS'promised'
p1822
I4
sS'physical'
p1823
I2
sS'weakened'
p1824
I3
sS'reality'
p1825
I3
sS'interested'
p1826
I2
sS'holding'
p1827
I3
sS'scored'
p1828
I1
sS'welcome'
p1829
I2
sS'convincing'
p1830
I1
sS'update'
p1831
I1
sS"let's"
p1832
I1
sS'scores'
p1833
I9
sS'cheated'
p1834
I1
sS'together'
p1835
I7
sS'loyal'
p1836
I2
sS'reception'
p1837
I1
sS'concept'
p1838
I4
sS'switched'
p1839
I1
sS'global'
p1840
I19
sS'fabricated'
p1841
I1
sS'horseback'
p1842
I1
sS'battle'
p1843
I3
sS'lactating'
p1844
I1
sS'certainly'
p1845
I7
sS'mounted'
p1846
I2
sS'flash'
p1847
I1
sS'aristocratic'
p1848
I1
sS'terror'
p1849
I6
sS'protestors'
p1850
I1
sS'brown'
p1851
I4
sS'nextnbsp'
p1852
I1
sS'charles'
p1853
I4
sS'zhang'
p1854
I1
sS'ultraconservative'
p1855
I1
sS'diminish'
p1856
I1
sS'liability'
p1857
I1
sS'anonymous'
p1858
I1
sS'trouble'
p1859
I1
sS'blast'
p1860
I1
sS'presented'
p1861
I3
sS'turns'
p1862
I2
sS'traitor'
p1863
I1
sS'governing'
p1864
I1
sS'distasteful'
p1865
I1
sS'revolution'
p1866
I11
sS'legalized'
p1867
I1
sS'regret'
p1868
I1
sS'you8217re'
p1869
I1
sS'curse'
p1870
I1
sS'appear'
p1871
I2
sS'trivial'
p1872
I2
sS'assistance'
p1873
I4
sS'havoc'
p1874
I2
sS'uniform'
p1875
I1
sS"egypt's"
p1876
I1
sS'shared'
p1877
I1
sS'supporting'
p1878
I2
sS'frothing'
p1879
I1
sS"deserts'"
p1880
I1
sS'muslim'
p1881
I4
sS'teaches'
p1882
I1
sS'appears'
p1883
I2
sS'change'
p1884
I25
sS'sending'
p1885
I2
sS'11000'
p1886
I1
sS'coerced'
p1887
I1
sS'trial'
p1888
I4
sS'machiavellian'
p1889
I1
sS'usually'
p1890
I4
sS"country's"
p1891
I3
sS'churchill'
p1892
I1
sS'regardless'
p1893
I1
sS'extra'
p1894
I1
sS'sincerely'
p1895
I1
sS'italians'
p1896
I3
sS'market'
p1897
I3
sS'prove'
p1898
I3
sS'unimpressed'
p1899
I1
sS'resigns'
p1900
I1
sS'angela'
p1901
I1
sS"bell's"
p1902
I1
sS'entrance'
p1903
I1
sS'finis'
p1904
I1
sS'commissioned'
p1905
I1
sS'selfdetermination'
p1906
I1
sS'organizations'
p1907
I1
sS'bowler'
p1908
I2
sS'derailed'
p1909
I1
sS'bowled'
p1910
I1
sS'keynes'
p1911
I1
sS'dmitry'
p1912
I1
sS'photographs'
p1913
I1
sS'dedicated'
p1914
I1
sS"chavez's"
p1915
I1
sS'december'
p1916
I2
sS'subsidies'
p1917
I2
sS"didn't"
p1918
I6
sS'1980s'
p1919
I4
sS'heard'
p1920
I4
sS'fortunes'
p1921
I1
sS'galen'
p1922
I1
sS'strayain'
p1923
I1
sS'exclude'
p1924
I1
sS'clothing'
p1925
I1
sS'productive'
p1926
I1
sS'bankrupt'
p1927
I1
sS'discussion'
p1928
I3
sS'write'
p1929
I3
sS'criterion'
p1930
I2
sS'dominance'
p1931
I1
sS'economy'
p1932
I9
sS'gonads'
p1933
I1
sS'escalate'
p1934
I2
sS'tvfleet'
p1935
I10
sS'southern'
p1936
I6
sS'disgusted'
p1937
I1
sS'produce'
p1938
I9
sS'islands'
p1939
I3
sS'banding'
p1940
I1
sS'endgame'
p1941
I1
sS'lifting'
p1942
I1
sS'vomited'
p1943
I1
sS'permalink'
p1944
I1
sS'remember'
p1945
I7
sS'whenever'
p1946
I3
sS'nosed'
p1947
I1
sS'povertytragic'
p1948
I1
sS'nothingnbsp'
p1949
I1
sS'worsens'
p1950
I1
sS'typical'
p1951
I2
sS'embassies'
p1952
I2
sS'serving'
p1953
I1
sS'indeed'
p1954
I6
sS'displayed'
p1955
I1
sS'ended'
p1956
I2
sS'statistical'
p1957
I3
sS'still'
p1958
I20
sS'ethic'
p1959
I1
sS'acknowledge'
p1960
I2
sS'reacting'
p1961
I1
sS'forms'
p1962
I1
sS'broadcasts'
p1963
I3
sS'dreadfully'
p1964
I1
sS'hackles'
p1965
I1
sS'factual'
p1966
I1
sS'norway'
p1967
I2
sS'lorgethorndike'
p1968
I2
sS'livebloggedcommencing'
p1969
I1
sS'correspondence'
p1970
I1
sS'disparate'
p1971
I1
sS'unfortunarely'
p1972
I1
sS'introduce'
p1973
I2
sS'projectiles'
p1974
I1
sS'taliban'
p1975
I4
sS'wealthy'
p1976
I2
sS'provision'
p1977
I1
sS'discuss'
p1978
I1
sS'servant'
p1979
I1
sS'james'
p1980
I3
sS'eugenicist'
p1981
I1
sS'entirely'
p1982
I5
sS'prompted'
p1983
I1
sS'walshs'
p1984
I1
sS'cairo'
p1985
I1
sS'challenges'
p1986
I2
sS'subtests'
p1987
I1
sS'happen'
p1988
I2
sS'prosecutorial'
p1989
I1
sS"royal's"
p1990
I1
sS'shown'
p1991
I1
sS'opened'
p1992
I1
sS'irony'
p1993
I3
sS'increase'
p1994
I4
sS'shows'
p1995
I3
sS'insular'
p1996
I1
sS'meetups'
p1997
I1
sS'inevitable'
p1998
I2
sS'fixed'
p1999
I1
sS'british'
p2000
I28
sS'honest'
p2001
I2
sS'hamamatsu'
p2002
I1
sS'invitation'
p2003
I1
sS'entrusted'
p2004
I1
sS'serfs'
p2005
I2
sS"cuba's"
p2006
I3
sS'sarcastically'
p2007
I1
sS'didn8217t'
p2008
I1
sS'constantly'
p2009
I2
sS'striking'
p2010
I2
sS'comprises'
p2011
I1
sS'impossible'
p2012
I3
sS'message'
p2013
I7
sS'drove'
p2014
I1
sS'tomorrow'
p2015
I3
sS'agonising'
p2016
I1
sS'silent'
p2017
I1
sS'bookmark'
p2018
I2
sS'caught'
p2019
I5
sS'friend'
p2020
I5
sS'isileli'
p2021
I1
sS'mostly'
p2022
I1
sS'appreciates'
p2023
I1
sS'resulted'
p2024
I1
sS'inmates'
p2025
I1
sS'scalped'
p2026
I1
sS'television'
p2027
I1
sS'rugged'
p2028
I1
sS'optimism'
p2029
I2
sS'monopolies'
p2030
I2
sS'happy'
p2031
I1
sS'orwell'
p2032
I5
sS'sublime'
p2033
I1
sS'unsubstantiated'
p2034
I1
sS'angel'
p2035
I1
sS'remained'
p2036
I2
sS'correction'
p2037
I1
sS'premier'
p2038
I1
sS'anger'
p2039
I2
sS'breakfast'
p2040
I9
sS'veteran'
p2041
I1
sS'manufacturers'
p2042
I1
sS'connell'
p2043
I1
sS'equipment'
p2044
I1
sS'online'
p2045
I8
sS'objective'
p2046
I1
sS'begin'
p2047
I6
sS'of82308221'
p2048
I1
sS'conclusively'
p2049
I1
sS'price'
p2050
I6
sS'evaporate'
p2051
I1
sS'importantly'
p2052
I2
sS'rationale'
p2053
I1
sS'america'
p2054
I25
sS'forever'
p2055
I1
sS'reform'
p2056
I1
sS'steady'
p2057
I1
sS'sunset'
p2058
I1
sS'hurled'
p2059
I1
sS'professional'
p2060
I2
sS'india8217s'
p2061
I2
sS'german'
p2062
I8
sS'fifty'
p2063
I3
sS'discovered'
p2064
I4
sS'fifth'
p2065
I3
sS'geography'
p2066
I1
sS'adolf'
p2067
I2
sS'title'
p2068
I4
sS'proportion'
p2069
I1
sS'september'
p2070
I4
sS'shopowners'
p2071
I1
sS'developed'
p2072
I4
sS'wingers'
p2073
I1
sS'televisions'
p2074
I1
sS'intelligencetest'
p2075
I1
sS'truly'
p2076
I2
sS'baghdad'
p2077
I2
sS'manukau'
p2078
I1
sS'celebrate'
p2079
I1
sS'losers'
p2080
I2
sS'inside'
p2081
I3
sS'bulgaria'
p2082
I2
sS'claridges'
p2083
I1
sS'independant'
p2084
I1
sS'greatgrandparents'
p2085
I1
sS'elected'
p2086
I6
sS'namely'
p2087
I1
sS'unfit'
p2088
I1
sS'europeans'
p2089
I6
sS'israeli'
p2090
I7
sS'feuds'
p2091
I2
sS'between'
p2092
I21
sS'israels'
p2093
I2
sS'justified'
p2094
I1
sS'whipped'
p2095
I1
sS'notice'
p2096
I2
sS'emitted'
p2097
I1
sS'connoisseurs'
p2098
I1
sS'style'
p2099
I3
sS'blame'
p2100
I1
sS'article'
p2101
I8
sS'talented'
p2102
I3
sS'orrection'
p2103
I1
sS'newfound'
p2104
I1
sS'comes'
p2105
I4
sS'questiontime'
p2106
I1
sS"couldn't"
p2107
I1
sS'liberal'
p2108
I7
sS'sticks'
p2109
I1
sS'cares'
p2110
I2
sS'informed'
p2111
I1
sS'dictator'
p2112
I2
sS'partisanship'
p2113
I1
sS'exhaustion'
p2114
I1
sS'asianamericans'
p2115
I1
sS'suspected'
p2116
I3
sS'realities'
p2117
I1
sS'sedition'
p2118
I4
sS'developing'
p2119
I6
sS'chinatown'
p2120
I1
sS'spandex'
p2121
I2
sS'editorial'
p2122
I1
sS'82128212821282128212'
p2123
I1
sS"person's"
p2124
I1
sS'orientation'
p2125
I1
sS'worry'
p2126
I2
sS'reprimandedfor'
p2127
I1
sS'inquire'
p2128
I1
sS'media'
p2129
I19
sS'inquiry'
p2130
I1
sS'document'
p2131
I2
sS'procuratorgeneral'
p2132
I1
sS'investigated'
p2133
I1
sS'centuries'
p2134
I2
sS'arctic'
p2135
I5
sS'fruit'
p2136
I1
sS'here8217s'
p2137
I1
sS'tradition'
p2138
I3
sS'mentally'
p2139
I3
sS'bryce'
p2140
I1
sS'charges'
p2141
I6
sS'constitutional'
p2142
I2
sS'severe'
p2143
I1
sS'irresistably'
p2144
I1
sS'charged'
p2145
I3
sS'commodore'
p2146
I1
sS'bob8217s'
p2147
I1
sS'touch'
p2148
I1
sS'malicious'
p2149
I1
sS'speed'
p2150
I2
sS'death'
p2151
I12
sS'legitimately'
p2152
I1
sS'flood'
p2153
I6
sS'thinking'
p2154
I6
sS'improvement'
p2155
I1
sS'treatment'
p2156
I6
sS'struck'
p2157
I2
sS'propped'
p2158
I1
sS'rules'
p2159
I4
sS'ruler'
p2160
I2
sS'gonna'
p2161
I1
sS"brenner's"
p2162
I1
sS'early'
p2163
I15
sS'earnest'
p2164
I1
sS'politely'
p2165
I1
sS'using'
p2166
I15
sS"l'humanite"
p2167
I1
sS'ruled'
p2168
I4
sS'fortune'
p2169
I1
sS'pounds'
p2170
I2
sS'collective'
p2171
I4
sS'miracle'
p2172
I1
sS'benefit'
p2173
I2
sS'antigovernment'
p2174
I1
sS'fully'
p2175
I1
sS'output'
p2176
I1
sS'verbal'
p2177
I2
sS'exposed'
p2178
I2
sS'abetted'
p2179
I1
sS'recorded'
p2180
I2
sS'conservative'
p2181
I3
sS'waikato'
p2182
I1
sS'deficit'
p2183
I1
sS'wheat'
p2184
I1
sS'business'
p2185
I5
sS'equivalent'
p2186
I2
sS'innocence'
p2187
I1
sS'throw'
p2188
I4
sS'brighton'
p2189
I2
sS'comparison'
p2190
I3
sS'central'
p2191
I6
sS'ideology'
p2192
I2
sS'greatly'
p2193
I2
sS'testimony'
p2194
I1
sS'intent'
p2195
I1
sS'deranged'
p2196
I2
sS'heavy'
p2197
I7
sS'protests'
p2198
I8
sS'hirsta'
p2199
I1
sS'involvement'
p2200
I3
sS'heated'
p2201
I1
sS'watchdog'
p2202
I1
sS'shrinking'
p2203
I1
sS'intervention'
p2204
I1
sS'prepare'
p2205
I3
sS'removing'
p2206
I1
sS'start'
p2207
I13
sS'stars'
p2208
I1
sS'jones'
p2209
I2
sS'smuggling'
p2210
I1
sS'trying'
p2211
I6
sS'copied'
p2212
I1
sS'psychometrician'
p2213
I2
sS'stalinists'
p2214
I2
sS'beware'
p2215
I2
sS'arabs'
p2216
I2
sS'moved'
p2217
I6
sS'sales'
p2218
I1
sS'secondclass'
p2219
I1
sS'mover'
p2220
I1
sS'hospitals'
p2221
I2
sS'unwelcome'
p2222
I2
sS'iran8217s'
p2223
I1
sS'administered'
p2224
I1
sS'anarchy'
p2225
I1
sS'valid'
p2226
I1
sS'polar'
p2227
I1
sS'zealander'
p2228
I1
sS'authoritarian'
p2229
I1
sS'diaries'
p2230
I2
sS'coverage'
p2231
I1
sS'queensland'
p2232
I7
sS'ramsay'
p2233
I1
sS'building'
p2234
I4
sS'tariana'
p2235
I1
sS'12month'
p2236
I1
sS'postulations'
p2237
I1
sS'overseas'
p2238
I2
sS'redux'
p2239
I1
sS'misnomer'
p2240
I1
sS'since'
p2241
I27
sS'pointing'
p2242
I1
sS'month'
p2243
I8
sS'unrest'
p2244
I2
sS'thoughtful'
p2245
I1
sS'deadline'
p2246
I1
sS'renege'
p2247
I1
sS'cameron'
p2248
I1
sS'managed'
p2249
I1
sS"settler's"
p2250
I1
sS'religious'
p2251
I5
sS'hasresigned'
p2252
I1
sS'youyang'
p2253
I1
sS'icons'
p2254
I1
sS'pledged'
p2255
I1
sS'foster'
p2256
I1
sS'safety'
p2257
I1
sS'jensen'
p2258
I1
sS'divisions'
p2259
I1
sS'rogue'
p2260
I2
sS'decide'
p2261
I3
sS'opting'
p2262
I1
sS'blairs'
p2263
I1
sS'apologizes'
p2264
I1
sS'darkness'
p2265
I1
sS'witnessed'
p2266
I1
sS'fisking'
p2267
I1
sS'lurch'
p2268
I1
sS'witnesses'
p2269
I3
sS'khordokovsky'
p2270
I1
sS'learned'
p2271
I3
sS'unsurprisingly'
p2272
I1
sS'loose'
p2273
I3
sS'answers'
p2274
I1
sS'tracks'
p2275
I2
sS'strong'
p2276
I11
sS'ahead'
p2277
I2
sS'amount'
p2278
I4
sS'arent'
p2279
I3
sS'family'
p2280
I6
sS'marginal'
p2281
I1
sS'cosmetic'
p2282
I1
sS'aimed'
p2283
I5
sS'takes'
p2284
I2
sS'revelation'
p2285
I1
sS'finally'
p2286
I4
sS'taken'
p2287
I10
sS'entails'
p2288
I1
sS'revolutionary'
p2289
I1
sS'humaninduced'
p2290
I1
sS'excuse'
p2291
I4
sS'broke'
p2292
I2
sS'factories'
p2293
I3
sS'producing'
p2294
I1
sS'respected'
p2295
I3
sS'oversight'
p2296
I1
sS'coalition'
p2297
I3
sS'bombers8221'
p2298
I1
sS'sociocultural'
p2299
I1
sS'journos'
p2300
I1
sS'history'
p2301
I25
sS'fundamentalist'
p2302
I4
sS'whilebanned'
p2303
I1
sS'culturist'
p2304
I3
sS'stinging'
p2305
I1
sS'boycott'
p2306
I2
sS'pushed'
p2307
I3
sS'culturism'
p2308
I10
sS'fundamentalism'
p2309
I1
sS'phrase'
p2310
I2
sS'gaffes'
p2311
I1
sS'clarke'
p2312
I1
sS'greenpeace'
p2313
I1
sS'leftwing'
p2314
I2
sS'stayed'
p2315
I1
sS'hampered'
p2316
I1
sS'individualistic'
p2317
I1
sS'reject'
p2318
I1
sS'tried'
p2319
I8
sS'tries'
p2320
I2
sS'denial'
p2321
I2
sS'invasion'
p2322
I2
sS'inconceivable'
p2323
I2
sS'compulsory'
p2324
I3
sS'rushtona'
p2325
I1
sS'anytime'
p2326
I1
sS'renewing'
p2327
I1
sS'uncensored'
p2328
I1
sS'aphrodisiacs'
p2329
I1
sS'stays'
p2330
I1
sS'committee'
p2331
I5
sS'committed'
p2332
I2
sS'staunch'
p2333
I1
sS'taxpayer'
p2334
I1
sS'referents'
p2335
I1
sS'fined'
p2336
I1
sS'actually'
p2337
I11
sS'helmand'
p2338
I1
sS'absence'
p2339
I1
sS'systems'
p2340
I3
sS"haven't"
p2341
I1
sS'finer'
p2342
I1
sS'arsenal'
p2343
I1
sS'terrain'
p2344
I1
sS"you've"
p2345
I1
sS'permissible'
p2346
I1
sS'sweeping'
p2347
I1
sS'ninja'
p2348
I1
sS'desperately'
p2349
I3
sS'faire'
p2350
I1
sS'veering'
p2351
I1
sS'intervene'
p2352
I1
sS'capability'
p2353
I3
sS'stopped'
p2354
I6
sS'cleaners'
p2355
I1
sS'fairy'
p2356
I1
sS"isn't"
p2357
I3
sS'referred'
p2358
I1
sS'sitesnbsp'
p2359
I1
sS'beyond'
p2360
I3
sS'event'
p2361
I2
sS'bandersnatch'
p2362
I1
sS'robert'
p2363
I6
sS'surrounded'
p2364
I1
sS'chineseamerican'
p2365
I3
sS'testify'
p2366
I6
sS'publish'
p2367
I3
sS'dominated'
p2368
I2
sS'issue'
p2369
I13
sS'dictatorial'
p2370
I1
sS'houses'
p2371
I1
sS'reason'
p2372
I10
sS'heroin'
p2373
I2
sS'diplomatically'
p2374
I1
sS'matthews'
p2375
I1
sS'firstclass'
p2376
I1
sS'americas'
p2377
I4
sS'caption'
p2378
I1
sS'american'
p2379
I20
sS'businessmen'
p2380
I1
sS'syria'
p2381
I2
sS'probability'
p2382
I1
sS'knocking'
p2383
I1
sS'reflected'
p2384
I1
sS'unexpected'
p2385
I1
sS'moussaoui'
p2386
I1
sS'horse'
p2387
I1
sS'guaranteeing'
p2388
I1
sS'endoftheworld'
p2389
I1
sS'station'
p2390
I8
sS'expand'
p2391
I2
sS'nigeria'
p2392
I1
sS'hundred'
p2393
I2
sS'selling'
p2394
I3
sS'passed'
p2395
I3
sS'trapped'
p2396
I1
sS'jordan'
p2397
I1
sS'inventing'
p2398
I1
sS'scandinavian'
p2399
I3
sS'sentenced'
p2400
I1
sS'deciding'
p2401
I3
sS'texans'
p2402
I2
sS'heaviest'
p2403
I1
sS'deflationary'
p2404
I1
sS'juice'
p2405
I1
sS'substantial'
p2406
I3
sS'comrades'
p2407
I4
sS'sentences'
p2408
I1
sS'pipelines'
p2409
I1
sS'concentration'
p2410
I1
sS'vulnerable'
p2411
I1
sS'8220ask'
p2412
I1
sS'scotland'
p2413
I2
sS'officers'
p2414
I4
sS'targets'
p2415
I6
sS'labour'
p2416
I9
sS'expansionism'
p2417
I1
sS'towards'
p2418
I8
sS'quote'
p2419
I4
sS'sponsored'
p2420
I1
sS'salary'
p2421
I1
sS'tonga'
p2422
I4
sS'clear'
p2423
I12
sS'popularity'
p2424
I5
sS'snapping'
p2425
I1
sS'enemy8221'
p2426
I1
sS'sandblasting'
p2427
I1
sS'clean'
p2428
I1
sS'ineradicable'
p2429
I1
sS'latest'
p2430
I11
sS'giggles'
p2431
I1
sS'humid'
p2432
I1
sS'zealandindia'
p2433
I1
sS'boozy'
p2434
I1
sS'copyright'
p2435
I1
sS'justice'
p2436
I3
sS'flights'
p2437
I1
sS'pretty'
p2438
I6
sS'policing'
p2439
I3
sS'meanwhile'
p2440
I10
sS'zambia'
p2441
I1
sS'famous'
p2442
I1
sS'pretending'
p2443
I1
sS'competing'
p2444
I1
sS'during'
p2445
I21
sS'alexander'
p2446
I3
sS'goneyet'
p2447
I1
sS'sacrificed'
p2448
I1
sS'nucleargenerated'
p2449
I1
sS'selfdefense'
p2450
I1
sS'withdrawal'
p2451
I6
sS'switzerland'
p2452
I2
sS'poisoned'
p2453
I1
sS'schizophrenic'
p2454
I1
sS'mantra'
p2455
I1
sS'plummeted'
p2456
I1
sS'close'
p2457
I5
sS'embarking'
p2458
I1
sS'locals'
p2459
I1
sS'probable'
p2460
I1
sS'horrid'
p2461
I1
sS'pictures'
p2462
I3
sS'probably'
p2463
I13
sS'circumvents'
p2464
I1
sS'conditions'
p2465
I10
sS"years'"
p2466
I1
sS'notoriously'
p2467
I1
sS'missing'
p2468
I3
sS'unstoppable'
p2469
I1
sS'pomersbach'
p2470
I8
sS'invisible'
p2471
I1
sS'hardline'
p2472
I2
sS"wouldn't"
p2473
I3
sS'manfrommiddletown'
p2474
I1
sS'mickey'
p2475
I1
sS'liked'
p2476
I1
sS'headed'
p2477
I2
sS'whatever'
p2478
I7
sS'ideologues'
p2479
I1
sS'spotting'
p2480
I1
sS'mumble'
p2481
I1
sS'persecuted'
p2482
I1
sS'described'
p2483
I3
sS'collected'
p2484
I3
sS'threaten'
p2485
I2
sS'territory'
p2486
I1
sS'newbury'
p2487
I1
sS'lawnbsp'
p2488
I1
sS'lived'
p2489
I1
sS'partly'
p2490
I2
sS'modelling'
p2491
I1
sS'anthony'
p2492
I2
sS'lives'
p2493
I9
sS'needlessness'
p2494
I1
sS'intriguing'
p2495
I1
sS'socialist'
p2496
I11
sS'albanese'
p2497
I2
sS'ramiz'
p2498
I1
sS'governor'
p2499
I1
sS'while'
p2500
I33
sS'socialism'
p2501
I10
sS'ought'
p2502
I1
sS'mitchell'
p2503
I4
sS'guide'
p2504
I1
sS'uncompromising'
p2505
I1
sS'voters'
p2506
I1
sS'reads'
p2507
I1
sS"walkabout'"
p2508
I1
sS'ready'
p2509
I2
sS'baseline'
p2510
I1
sS'anymore'
p2511
I1
sS'repudiated'
p2512
I2
sS'grand'
p2513
I1
sS'conflict'
p2514
I9
sS'temporary'
p2515
I2
sS'blair'
p2516
I8
sS'marxistleninist'
p2517
I1
sS'yeltsin'
p2518
I2
sS'vitriol'
p2519
I2
sS'older'
p2520
I5
sS'8220president'
p2521
I1
sS'poland'
p2522
I2
sS'theology'
p2523
I1
sS'calibrated'
p2524
I1
sS'calcutta'
p2525
I1
sS'scaremongering'
p2526
I1
sS'call8221'
p2527
I1
sS'nineteenforties'
p2528
I1
sS'useful'
p2529
I1
sS'retirement'
p2530
I2
sS'helping'
p2531
I3
sS'wounding'
p2532
I1
sS'informal'
p2533
I1
sS'guaranteed'
p2534
I1
sS'13000'
p2535
I1
sS'bollard'
p2536
I1
sS'remaining'
p2537
I2
sS'march'
p2538
I3
sS'lacking'
p2539
I1
sS'showing'
p2540
I2
sS'zlobin'
p2541
I1
sS'defied'
p2542
I1
sS"federation's"
p2543
I1
sS'outright'
p2544
I3
sS'overriding'
p2545
I1
sS'success'
p2546
I11
sS'signal'
p2547
I1
sS'mincer'
p2548
I1
sS'manifest'
p2549
I1
sS'popular'
p2550
I11
sS'pakistan8217s'
p2551
I1
sS'radicalise'
p2552
I1
sS'wombs'
p2553
I1
sS'fathers'
p2554
I1
sS'creation'
p2555
I1
sS'urgent'
p2556
I2
sS'economic'
p2557
I32
sS'bruising'
p2558
I1
sS'savage'
p2559
I1
sS'pounding'
p2560
I1
sS'staterun'
p2561
I1
sS"orwell's"
p2562
I2
sS'minimal'
p2563
I1
sS'journalist'
p2564
I2
sS'claimed'
p2565
I6
sS'hypocritical'
p2566
I1
sS'processing'
p2567
I2
sS'colonization'
p2568
I1
sS"hirst's"
p2569
I1
sS'haaretz'
p2570
I1
sS'plots'
p2571
I1
sS'abroad'
p2572
I1
sS'wealth'
p2573
I4
sS'faith'
p2574
I1
sS'infintiono'
p2575
I1
sS'napalmed'
p2576
I1
sS'experiences'
p2577
I1
sS'block'
p2578
I2
sS'seeing'
p2579
I1
sS'viazemskii'
p2580
I1
sS'within'
p2581
I10
sS'nonsense'
p2582
I2
sS'carlton'
p2583
I1
sS'newsnight'
p2584
I2
sS'militarily'
p2585
I2
sS'15mins'
p2586
I2
sS'innate'
p2587
I2
sS'placing'
p2588
I1
sS'consultation'
p2589
I1
sS'hominenism'
p2590
I1
sS'confessing'
p2591
I1
sS'himself'
p2592
I8
sS'collapsed'
p2593
I1
sS'highrisk'
p2594
I1
sS'properly'
p2595
I1
sS'alive'
p2596
I2
sS'russian'
p2597
I17
sS'enver'
p2598
I2
sS'similar'
p2599
I8
sS'ordered'
p2600
I6
sS'corrective'
p2601
I1
sS'recalculated'
p2602
I1
sS'cotton'
p2603
I1
sS'macknight'
p2604
I1
sS'amounts'
p2605
I2
sS'400000'
p2606
I3
sS'fears'
p2607
I1
sS'accross'
p2608
I1
sS'uk8217'
p2609
I1
sS'politicians'
p2610
I4
sS'theu003cbr'
p2611
I1
sS'manhattan'
p2612
I3
sS'responded'
p2613
I3
sS'reportedly'
p2614
I1
sS'visits'
p2615
I1
sS'regulations'
p2616
I2
sS'bludgeoning'
p2617
I1
sS'militants'
p2618
I1
sS'rested'
p2619
I1
sS'overachievement'
p2620
I1
sS'naheen'
p2621
I1
sS'reservation'
p2622
I2
sS'swede'
p2623
I1
sS'restrained'
p2624
I1
sS'structure'
p2625
I4
sS'urged'
p2626
I1
sS'outing'
p2627
I1
sS'required'
p2628
I2
sS'youtube'
p2629
I3
sS'neighbouring'
p2630
I3
sS'everywhere'
p2631
I1
sS'requires'
p2632
I1
sS'bedding'
p2633
I1
sS'cheerful'
p2634
I1
sS'farms'
p2635
I2
sS'psycho'
p2636
I1
sS"'dogs'"
p2637
I1
sS'ghanbari'
p2638
I1
sS'kaunda'
p2639
I5
sS'expelling'
p2640
I1
sS'shack'
p2641
I1
sS'friendly'
p2642
I2
sS'prudence'
p2643
I1
sS'rattling'
p2644
I1
sS'telling'
p2645
I2
sS'yourselves'
p2646
I1
sS'justifythe'
p2647
I1
sS'oneday'
p2648
I1
sS'positions'
p2649
I4
sS'usrussia'
p2650
I2
sS'michael'
p2651
I5
sS'booty'
p2652
I1
sS'picket'
p2653
I1
sS'download'
p2654
I1
sS'mussolini'
p2655
I1
sS'click'
p2656
I2
sS'plays'
p2657
I1
sS'drubbers'
p2658
I1
sS'unhelpful'
p2659
I2
sS'rotten'
p2660
I1
sS'experiment'
p2661
I1
sS'poles'
p2662
I2
sS'stance'
p2663
I1
sS'commercial'
p2664
I2
sS'nzheraldconz'
p2665
I1
sS'northern'
p2666
I3
sS'morsels'
p2667
I1
sS'paranoid'
p2668
I1
sS'products'
p2669
I1
sS"weren't"
p2670
I1
sS'examining'
p2671
I1
sS'addresses'
p2672
I1
sS'terrorizing'
p2673
I1
sS'danger'
p2674
I3
sS'manage'
p2675
I2
sS'harry8217s'
p2676
I1
sS'congolese'
p2677
I1
sS'penalty'
p2678
I3
sS'remains'
p2679
I3
sS'kpelle'
p2680
I3
sS'mentalretardation'
p2681
I1
sS'cheeky'
p2682
I2
sS'vehicle'
p2683
I2
sS'stage'
p2684
I3
sS'reflects'
p2685
I1
sS'belgian'
p2686
I5
sS'formally'
p2687
I1
sS'outofcontrol'
p2688
I1
sS'started'
p2689
I9
sS'becomes'
p2690
I4
sS'benchmark'
p2691
I1
sS'missile'
p2692
I11
sS'israelis'
p2693
I7
sS'overzealous'
p2694
I1
sS'appointed'
p2695
I1
sS'wackos'
p2696
I1
sS'announcing'
p2697
I1
sS'sanctions'
p2698
I3
sS'shrieked'
p2699
I1
sS'servants'
p2700
I1
sS'that8217s'
p2701
I6
sS'control'
p2702
I6
sS'beijing'
p2703
I2
sS'links'
p2704
I2
sS'prioritise'
p2705
I1
sS'escaped'
p2706
I1
sS'pulling'
p2707
I3
sS'sought'
p2708
I3
sS'wonderful'
p2709
I1
sS'hesitate'
p2710
I1
sS'africans'
p2711
I1
sS'arrangement'
p2712
I1
sS'located'
p2713
I4
sS'proles'
p2714
I1
sS'ronald'
p2715
I1
sS'aborigines'
p2716
I13
sS'rations'
p2717
I1
sS'agendas'
p2718
I3
sS'advocated'
p2719
I2
sS'computations'
p2720
I1
sS'u003ca'
p2721
I1
sS'scoop'
p2722
I1
sS'advocates'
p2723
I1
sS'agenda'
p2724
I5
sS"thatchell's"
p2725
I1
sS'jacqui'
p2726
I2
sS"won't"
p2727
I4
sS'8216consequences'
p2728
I1
sS'cruise'
p2729
I3
sS'converting'
p2730
I1
sS'newsweek'
p2731
I1
sS'hands'
p2732
I6
sS'front'
p2733
I3
sS'documented'
p2734
I1
sS'literacy'
p2735
I1
sS'masters'
p2736
I1
sS'university'
p2737
I7
sS'uknew'
p2738
I1
sS'crossing'
p2739
I1
sS'globe'
p2740
I3
sS'foodprice'
p2741
I1
sS'measure'
p2742
I3
sS'httpwwwstuffconz4319925a12html'
p2743
I1
sS"paper's"
p2744
I1
sS'special'
p2745
I2
sS'secretly'
p2746
I1
sS'littered'
p2747
I1
sS'islamist'
p2748
I1
sS'remiss'
p2749
I1
sS'activist'
p2750
I3
sS'cause'
p2751
I2
sS'achievements'
p2752
I2
sS'cricketer'
p2753
I1
sS'humiliating'
p2754
I3
sS'delegates'
p2755
I1
sS'dentist8217s'
p2756
I1
sS'darkly'
p2757
I1
sS'attending'
p2758
I1
sS'completely'
p2759
I4
sS'ancestry'
p2760
I1
sS'conservatives'
p2761
I5
sS'resumed'
p2762
I1
sS'hostile'
p2763
I1
sS'route'
p2764
I5
sS'diminished'
p2765
I1
sS'times'
p2766
I19
sS'counterpart'
p2767
I1
sS'samesex'
p2768
I1
sS'austin'
p2769
I3
sS'blogger'
p2770
I4
sS'confuse'
p2771
I1
sS'congo'
p2772
I3
sS'quality'
p2773
I4
sS"you're"
p2774
I4
sS'management'
p2775
I2
sS'privacy'
p2776
I1
sS'blinkered'
p2777
I1
sS'adopted'
p2778
I1
sS'attack'
p2779
I13
sS'wrapped'
p2780
I1
sS'perfectly'
p2781
I1
sS'final'
p2782
I4
sS'exactly'
p2783
I6
sS'apologise'
p2784
I1
sS'lists'
p2785
I2
sS'chemicals'
p2786
I2
sS'manipulation'
p2787
I1
sS'hitchins'
p2788
I1
sS'overwhelming'
p2789
I1
sS'herself'
p2790
I1
sS'hines'
p2791
I1
sS'indoctrinated'
p2792
I2
sS'culture'
p2793
I16
sS'submitted'
p2794
I1
sS'claim'
p2795
I11
sS'soviets'
p2796
I1
sS'cravings'
p2797
I1
sS'serfdom'
p2798
I4
sS'berths'
p2799
I1
sS'what8217s'
p2800
I1
sS'globalists'
p2801
I1
sS'sundown'
p2802
I1
sS'border'
p2803
I2
sS'emptying'
p2804
I1
sS'screw'
p2805
I1
sS'thorny'
p2806
I3
sS'battles'
p2807
I3
sS'instance'
p2808
I3
sS'tirana'
p2809
I3
sS'lecturer'
p2810
I2
sS'african'
p2811
I3
sS'intentions'
p2812
I1
sS'demise'
p2813
I1
sS'threats'
p2814
I6
sS'gallery'
p2815
I1
sS'consequences'
p2816
I7
sS'82164real8217'
p2817
I1
sS'proceedings'
p2818
I1
sS'websitesu003cbr'
p2819
I1
sS'constrain'
p2820
I1
sS'impression'
p2821
I2
sS'emerging'
p2822
I1
sS'violation'
p2823
I1
sS'cognitively'
p2824
I2
sS'200506'
p2825
I1
sS'anyway'
p2826
I4
sS'soldiers'
p2827
I11
sS'partners'
p2828
I1
sS'based'
p2829
I12
sS'josephine'
p2830
I1
sS'arabian'
p2831
I1
sS'equivalents'
p2832
I1
sS'employed'
p2833
I2
sS'mortality'
p2834
I3
sS'boris'
p2835
I1
sS'genitals'
p2836
I1
sS'word8221normative8221'
p2837
I1
sS'joint'
p2838
I4
sS'joins'
p2839
I1
sS'magistrate'
p2840
I3
sS'endless'
p2841
I1
sS'nonselection'
p2842
I1
sS'processes'
p2843
I1
sS'mohammed'
p2844
I5
sS'contain'
p2845
I1
sS'proponents'
p2846
I1
sS'dunedin'
p2847
I1
sS'widow'
p2848
I1
sS'spotted'
p2849
I2
sS'albania'
p2850
I13
sS'pitch'
p2851
I1
sS'capitalists'
p2852
I1
sS'argued'
p2853
I7
sS'legacy'
p2854
I1
sS'yugoslavia'
p2855
I1
sS'desperate'
p2856
I1
sS'operated'
p2857
I2
sS'nightmare'
p2858
I1
sS'written'
p2859
I3
sS'horrible'
p2860
I1
sS'neither'
p2861
I1
sS'admittedly'
p2862
I3
sS'castoff'
p2863
I1
sS'importance'
p2864
I3
sS'kicking'
p2865
I1
sS'recessions'
p2866
I1
sS'police'
p2867
I39
sS'distribution'
p2868
I3
sS'monitor'
p2869
I1
sS'diligent'
p2870
I1
sS'career'
p2871
I3
sS'minds'
p2872
I3
sS'admit'
p2873
I2
sS'diplomats'
p2874
I2
sS'tuesday'
p2875
I7
sS'cynicism'
p2876
I1
sS'rightly'
p2877
I1
sS'tupou'
p2878
I1
sS'willy'
p2879
I1
sS'medianare'
p2880
I1
sS'discrimination'
p2881
I1
sS'liberals'
p2882
I1
sS'slowly'
p2883
I1
sS'diversity'
p2884
I3
sS'smoking'
p2885
I2
sS'winwin'
p2886
I1
sS'novel'
p2887
I2
sS'harder'
p2888
I2
sS'comets'
p2889
I1
sS'82seemingly'
p2890
I1
sS"kayaker's"
p2891
I1
sS'examines'
p2892
I1
sS'morvern'
p2893
I1
sS'thebes'
p2894
I1
sS'quotquestioningquot'
p2895
I1
sS'northland'
p2896
I1
sS'swinging'
p2897
I1
sS'capture'
p2898
I1
sS'began'
p2899
I6
sS'strange'
p2900
I1
sS'speaker'
p2901
I2
sS'dickens'
p2902
I1
sS'transformative'
p2903
I1
sS'fanatics'
p2904
I2
sS"guards'"
p2905
I1
sS'practitioner'
p2906
I1
sS'reactionary'
p2907
I1
sS'rightfully'
p2908
I1
sS'absorb'
p2909
I1
sS'effect'
p2910
I13
sS"wheels'"
p2911
I1
sS'fierce'
p2912
I1
sS'frequently'
p2913
I2
sS'nation'
p2914
I7
sS'destruction'
p2915
I4
sS'reflection'
p2916
I1
sS'lunch'
p2917
I2
sS'deadly'
p2918
I2
sS'maoists'
p2919
I1
sS'restore'
p2920
I1
sS'increasingly'
p2921
I5
sS'weekend'
p2922
I3
sS'mistaken'
p2923
I1
sS'sources'
p2924
I3
sS'mistakes'
p2925
I1
sS'killed'
p2926
I3
sS"else'scoming"
p2927
I1
sS'ample'
p2928
I1
sS'disappearance'
p2929
I1
sS'immediately'
p2930
I2
sS'prominent'
p2931
I2
sS'necessary'
p2932
I7
sS'payments'
p2933
I1
sS'martin'
p2934
I2
sS'wilberforce'
p2935
I2
sS'peter'
p2936
I3
sS'pinpoint'
p2937
I1
sS'demonstrates'
p2938
I2
sS'outoftown'
p2939
I1
sS'fiji8217'
p2940
I1
sS'medieval'
p2941
I1
sS'indicated'
p2942
I1
sS'reaching'
p2943
I2
sS'monetary'
p2944
I1
sS'expansion'
p2945
I1
sS'londoners'
p2946
I1
sS'individualism'
p2947
I1
sS'freedom'
p2948
I21
sS'nonverbal'
p2949
I1
sS"'white"
p2950
I1
sS'dominion'
p2951
I1
sS'persuaded'
p2952
I1
sS'equally'
p2953
I1
sS'glenn'
p2954
I2
sS'previously'
p2955
I1
sS'washington'
p2956
I3
sS'bloggersu003cbr'
p2957
I1
sS'artists'
p2958
I1
sS'couldnt'
p2959
I1
sS'utility'
p2960
I3
sS'accused'
p2961
I6
sS'additional'
p2962
I1
sS'museum'
p2963
I1
sS'imperial'
p2964
I1
sS'accountant'
p2965
I1
sS'notices'
p2966
I1
sS"wages'"
p2967
I1
sS'cricket'
p2968
I8
sS'north'
p2969
I16
sS'blaming'
p2970
I1
sS'taxonomical'
p2971
I1
sS'goals'
p2972
I1
sS'courts'
p2973
I2
sS'highest'
p2974
I5
sS'cells'
p2975
I6
sS'hosting'
p2976
I3
sS'signed'
p2977
I1
sS'converted'
p2978
I1
sS'limit'
p2979
I1
sS'empty'
p2980
I1
sS'8220evil8221'
p2981
I1
sS'display'
p2982
I1
sS'emambakhsh8217s'
p2983
I2
sS'universal'
p2984
I1
sS'movementsending'
p2985
I1
sS'upsets'
p2986
I1
sS'twist'
p2987
I1
sS'8220female'
p2988
I1
sS'education'
p2989
I6
sS'balcony'
p2990
I1
sS'diego'
p2991
I1
sS'functions'
p2992
I1
sS'contest'
p2993
I1
sS'offensive'
p2994
I1
sS'misconceptions'
p2995
I1
sS"bush's"
p2996
I3
sS'blunders'
p2997
I1
sS'living'
p2998
I4
sS'indiscretions'
p2999
I1
sS"'books'"
p3000
I1
sS'friends'
p3001
I12
sS'blogs'
p3002
I7
sS'persistent'
p3003
I1
sS"cinderella's"
p3004
I1
sS'diagnosis'
p3005
I1
sS'uneducated'
p3006
I1
sS'aided'
p3007
I1
sS'todays'
p3008
I1
sS'commercialisation'
p3009
I1
sS'obstruction'
p3010
I1
sS'protest'
p3011
I4
sS'asian'
p3012
I7
sS'undersecretary'
p3013
I1
sS'whose'
p3014
I5
sS'fronts'
p3015
I1
sS'disability'
p3016
I2
sS'pensions'
p3017
I1
sS'condemns'
p3018
I1
sS'teaching'
p3019
I2
sS'sorry'
p3020
I5
sS'characterised'
p3021
I1
sS'updated'
p3022
I1
sS'dutch'
p3023
I3
sS'railways'
p3024
I1
sS'homes'
p3025
I6
sS'bainimarama'
p3026
I1
sS'reforms'
p3027
I4
sS'affect'
p3028
I2
sS'courageous'
p3029
I1
sS'baking'
p3030
I1
sS'skills'
p3031
I2
sS'companies'
p3032
I3
sS'solution'
p3033
I3
sS'indefinitely'
p3034
I2
sS'convenience'
p3035
I1
sS'unrelated'
p3036
I2
sS'globalising'
p3037
I1
sS'clothes'
p3038
I3
sS'landlords'
p3039
I1
sS'macshane'
p3040
I1
sS'force'
p3041
I18
sS"chairman's"
p3042
I1
sS'warns'
p3043
I1
sS'japanese'
p3044
I3
sS'likely'
p3045
I17
sS'preferences'
p3046
I2
sS'ignominiously'
p3047
I1
sS'lights'
p3048
I2
sS'foodstuffs'
p3049
I1
sS'maverick'
p3050
I1
sS'messanger'
p3051
I1
sS"parents'"
p3052
I1
sS'never'
p3053
I21
sS'anthropology'
p3054
I1
sS'nanny'
p3055
I1
sS'active'
p3056
I1
sS'antisemitic'
p3057
I1
sS'rests'
p3058
I1
sS'economics'
p3059
I3
sS'ignoring'
p3060
I1
sS'credit'
p3061
I4
sS"someone's"
p3062
I1
sS'fathered'
p3063
I1
sS'eyebrows'
p3064
I1
sS'campaign'
p3065
I7
sS'reagan'
p3066
I1
sS'moral'
p3067
I3
sS'drowned'
p3068
I1
sS'counts'
p3069
I1
sS'criminals'
p3070
I1
sS'honourary'
p3071
I1
sS'recommend'
p3072
I1
sS'survive'
p3073
I2
sS'posting'
p3074
I1
sS'dogma'
p3075
I2
sS'berlin'
p3076
I1
sS'8216superman8217'
p3077
I1
sS'heffer'
p3078
I1
sS'aligned'
p3079
I1
sS'rights'
p3080
I12
sS'multiculturalists'
p3081
I1
sS'defer'
p3082
I1
sS'vodka'
p3083
I2
sS'candidature'
p3084
I1
sS'involve'
p3085
I1
sS'degenerate'
p3086
I1
sS'pannell'
p3087
I1
sS'globalization'
p3088
I1
sS'answer'
p3089
I9
sS'massive'
p3090
I7
sS'minority'
p3091
I1
sS'vicious'
p3092
I3
sS"side's"
p3093
I1
sS'schoolchildren'
p3094
I2
sS'president'
p3095
I37
sS"team's"
p3096
I1
sS'lesbian'
p3097
I2
sS'attempt'
p3098
I3
sS'third'
p3099
I7
sS'capitalism'
p3100
I9
sS'maintain'
p3101
I2
sS'capitalist'
p3102
I5
sS'plied'
p3103
I1
sS'operations'
p3104
I5
sS'murray'
p3105
I6
sS'before'
p3106
I23
sS'personal'
p3107
I3
sS'soaking'
p3108
I1
sS'better'
p3109
I16
sS'frumious'
p3110
I2
sS'differently'
p3111
I1
sS'irans'
p3112
I1
sS'weeks'
p3113
I4
sS'confidently'
p3114
I1
sS'belarus'
p3115
I1
sS'intimidation'
p3116
I1
sS'glazed'
p3117
I1
sS'calvinist'
p3118
I1
sS'rhetoric'
p3119
I1
sS'orderlies'
p3120
I1
sS'arrested'
p3121
I7
sS'operatives'
p3122
I1
sS'stalledand'
p3123
I1
sS'mandates'
p3124
I1
sS'principles'
p3125
I4
sS'taught'
p3126
I1
sS'trading'
p3127
I3
sS'lawyers'
p3128
I3
sS'restricted'
p3129
I1
sS'revolving'
p3130
I1
sS'venezuela'
p3131
I1
sS'normed'
p3132
I3
sS'turning'
p3133
I3
sS'linear'
p3134
I1
sS'revenge'
p3135
I1
sS'aboriginal'
p3136
I6
sS'struggle'
p3137
I1
sS'dannatt'
p3138
I2
sS'taser'
p3139
I3
sS'professions'
p3140
I1
sS'childishly'
p3141
I1
sS'moving'
p3142
I6
sS'methane'
p3143
I2
sS'enraged'
p3144
I1
sS'features'
p3145
I1
sS'economists'
p3146
I4
sS'warped'
p3147
I1
sS'25yearold'
p3148
I1
sS'hitchens'
p3149
I1
sS'historian'
p3150
I2
sS'balloted'
p3151
I1
sS'burgess'
p3152
I1
sS'brainwash'
p3153
I1
sS'httpwwwstuffconz4319158a6009html'
p3154
I1
sS'mutate'
p3155
I1
sS'feathers'
p3156
I1
sS'villager'
p3157
I1
sS'villages'
p3158
I2
sS'somewhat'
p3159
I7
sS'custodialism'
p3160
I1
sS'peculiar'
p3161
I1
sS'symptom'
p3162
I1
sS'begins'
p3163
I2
sS'congratulatory'
p3164
I1
sS'cruelly'
p3165
I1
sS'thosegathered'
p3166
I1
sS'matter'
p3167
I1
sS'silly'
p3168
I1
sS'enabler'
p3169
I1
sS'palace'
p3170
I1
sS'modern'
p3171
I11
sS'deflations'
p3172
I1
sS'obviously'
p3173
I1
sS'tells'
p3174
I3
sS'reprieve'
p3175
I2
sS'8220the'
p3176
I2
sS'chess'
p3177
I1
sS'zambia8217s'
p3178
I2
sS'wiscr'
p3179
I2
sS'regular'
p3180
I1
sS'selfcombusting'
p3181
I1
sS'unknowingly'
p3182
I2
sS'zealand'
p3183
I39
sS'observation'
p3184
I3
sS'medical'
p3185
I2
sS'appalled'
p3186
I1
sS'points'
p3187
I11
sS'principle'
p3188
I1
sS'consumer'
p3189
I2
sS'consumes'
p3190
I1
sS'meaning'
p3191
I2
sS'islamofascists'
p3192
I1
sS'120more'
p3193
I1
sS'visitor'
p3194
I1
sS'ending'
p3195
I1
sS'attempts'
p3196
I3
sS'supplied'
p3197
I6
sS'judges'
p3198
I3
sS'resisting'
p3199
I1
sS'representing'
p3200
I5
sS'explain'
p3201
I5
sS'sugar'
p3202
I1
sS'illdefined'
p3203
I1
sS'edict'
p3204
I2
sS'exports'
p3205
I1
sS'conduct'
p3206
I2
sS'perceive'
p3207
I1
sS'coast'
p3208
I4
sS'christopher'
p3209
I2
sS'fields'
p3210
I3
sS'seeks'
p3211
I2
sS'reference'
p3212
I1
sS'decided'
p3213
I3
sS'subject'
p3214
I3
sS"there'd"
p3215
I1
sS'invokednbsp'
p3216
I1
sS'continent'
p3217
I1
sS'restricting'
p3218
I1
sS'ignorance'
p3219
I2
sS"sadr's"
p3220
I1
sS'rightofcentre'
p3221
I1
sS"gingrich's"
p3222
I1
sS'suggested'
p3223
I3
sS'deregulation'
p3224
I1
sS'against'
p3225
I45
sS'cricketing'
p3226
I2
sS'contribution'
p3227
I2
sS'obamas'
p3228
I1
sS'presumably'
p3229
I2
sS'appeared'
p3230
I7
sS'height'
p3231
I1
sS"caesar's"
p3232
I2
sS'initiative'
p3233
I1
sS'persecuting'
p3234
I1
sS'disemboweling'
p3235
I1
sS'eradication'
p3236
I1
sS'basis'
p3237
I3
sS'three'
p3238
I11
sS'commission'
p3239
I1
sS'trigger'
p3240
I3
sS'interest'
p3241
I7
sS'basic'
p3242
I6
sS'threw'
p3243
I1
sS'website'
p3244
I3
sS'stresses'
p3245
I1
sS'prosperous'
p3246
I1
sS"mitchell's"
p3247
I1
sS'suppress'
p3248
I1
sS'decrepit'
p3249
I1
sS'personally'
p3250
I1
sS'aviation'
p3251
I3
sS'downplay'
p3252
I1
sS'encyclopaedic'
p3253
I1
sS'censored'
p3254
I1
sS'unpopular'
p3255
I2
sS'scotsman'
p3256
I1
sS'pegah8217s'
p3257
I2
sS'economies'
p3258
I6
sS'moratorium'
p3259
I1
sS'murders'
p3260
I1
sS'chilling'
p3261
I1
sS'pessimistic'
p3262
I1
sS'seven'
p3263
I2
sS'topjsopenextlinkwindoweventthis'
p3264
I1
sS'shame'
p3265
I3
sS'clinging'
p3266
I1
sS'mouse'
p3267
I1
sS'grown'
p3268
I1
sS'bottles'
p3269
I1
sS'sidelined'
p3270
I1
sS'bottled'
p3271
I1
sS'potentially'
p3272
I1
sS'unfortunate'
p3273
I1
sS'vegetable'
p3274
I1
sS'colonies'
p3275
I4
sS'entitled'
p3276
I1
sS'evolve'
p3277
I1
sS'declaring'
p3278
I2
sS'opportunity'
p3279
I2
sS'aetheist'
p3280
I1
sS'anarchists'
p3281
I1
sS'programs'
p3282
I1
sS'settled'
p3283
I2
sS'youre'
p3284
I2
sS'practices'
p3285
I1
sS'qualities'
p3286
I1
sS'claims'
p3287
I5
sS'facto'
p3288
I1
sS'superbug'
p3289
I1
sS'sporting'
p3290
I1
sS'rebellions'
p3291
I1
sS'assigned'
p3292
I1
sS'fighters'
p3293
I2
sS'identify'
p3294
I4
sS'human'
p3295
I17
sS'facts'
p3296
I1
sS'impending'
p3297
I1
sS'nicolas'
p3298
I1
sS'candidate'
p3299
I3
sS'character'
p3300
I1
sS'boasted'
p3301
I1
sS'background'
p3302
I1
sS'wanting'
p3303
I2
sS'dreams'
p3304
I1
sS'dignity'
p3305
I1
sS"states'"
p3306
I1
sS'upperincome'
p3307
I1
sS'115000'
p3308
I1
sS'notorious'
p3309
I1
sS'interestingly'
p3310
I3
sS'greenland'
p3311
I1
sS'iranbsp'
p3312
I1
sS'resorted'
p3313
I1
sS'roppongi'
p3314
I1
sS'somehow'
p3315
I1
sS'wieslaw'
p3316
I1
sS'translates'
p3317
I1
sS'ignore'
p3318
I1
sS'centurysince'
p3319
I1
sS'dense'
p3320
I1
sS'tracked'
p3321
I1
sS'normal'
p3322
I3
sS'arguing'
p3323
I2
sS'1030am'
p3324
I1
sS'chineseamericans'
p3325
I3
sS'confrontation'
p3326
I1
sS"something's"
p3327
I1
sS"'hilary"
p3328
I1
sS'magazine'
p3329
I3
sS'afternoon'
p3330
I1
sS'commit'
p3331
I3
sS'marsham'
p3332
I1
sS'managers'
p3333
I2
sS'reaping'
p3334
I1
sS'intellectual'
p3335
I1
sS"world's"
p3336
I3
sS'willu003cbr'
p3337
I1
sS'1990s'
p3338
I3
sS'murderers'
p3339
I1
sS'initial'
p3340
I2
sS'victorious'
p3341
I1
sS'alread'
p3342
I1
sS'offering'
p3343
I5
sS'failure'
p3344
I3
sS'analyst'
p3345
I1
sS'builds'
p3346
I1
sS'nutters'
p3347
I1
sS'attached'
p3348
I1
sS'wifefor'
p3349
I1
sS'plaintiffs'
p3350
I1
sS'temper'
p3351
I1
sS'diagnose'
p3352
I1
sS'strengthening'
p3353
I1
sS'pontiff'
p3354
I1
sS'classic'
p3355
I2
sS'unravelling'
p3356
I1
sS'zambian'
p3357
I1
sS'covers'
p3358
I1
sS'can8217t'
p3359
I1
sS'magellan'
p3360
I1
sS'adelaide'
p3361
I1
sS'marxist'
p3362
I4
sS'agreeing'
p3363
I1
sS'generally'
p3364
I3
sS'handed'
p3365
I1
sS'81701'
p3366
I1
sS'marxism'
p3367
I1
sS'delivered'
p3368
I1
sS'outback'
p3369
I1
sS'exported'
p3370
I1
sS'authorities'
p3371
I3
sS'stablethat'
p3372
I1
sS'neonazi'
p3373
I1
sS'derail'
p3374
I1
sS'billion'
p3375
I2
sS'militias'
p3376
I1
sS'happening'
p3377
I4
sS'potato'
p3378
I2
sS'daily'
p3379
I10
sS'toothpuller'
p3380
I1
sS'stripping'
p3381
I1
sS'teeth'
p3382
I4
sS'u003cbr'
p3383
I6
sS'overdue'
p3384
I1
sS'customary'
p3385
I1
sS'bombed'
p3386
I1
sS'suicide'
p3387
I5
sS'basra'
p3388
I4
sS'technique'
p3389
I1
sS'father'
p3390
I11
sS'disgusting'
p3391
I1
sS'iraqi'
p3392
I7
sS'summarised'
p3393
I1
sS'marks'
p3394
I1
sS'suffered'
p3395
I7
sS'governments'
p3396
I6
sS'apartheid'
p3397
I4
sS'proposals'
p3398
I1
sS'democrat'
p3399
I1
sS'magnet'
p3400
I1
sS'excellence'
p3401
I1
sS'round'
p3402
I3
sS'ziuganov'
p3403
I2
sS'olympic'
p3404
I2
sS'talked'
p3405
I1
sS'inconsequential'
p3406
I1
sS'corner'
p3407
I1
sS'sordid'
p3408
I1
sS'afghanistan'
p3409
I12
sS'arithmetichave'
p3410
I1
sS'favour'
p3411
I3
sS'suspect'
p3412
I1
sS'somalia'
p3413
I1
sS'flogging'
p3414
I1
sS'international'
p3415
I26
sS'rand8217s'
p3416
I1
sS'feith'
p3417
I1
sS'filled'
p3418
I2
sS'doropoulos'
p3419
I1
sS'bloke'
p3420
I1
sS'guardian'
p3421
I3
sS'makeup'
p3422
I1
sS'french'
p3423
I13
sS'consigning'
p3424
I1
sS'diagnoses'
p3425
I1
sS'battling'
p3426
I1
sS'institute'
p3427
I1
sS'shift'
p3428
I3
sS'expulsion'
p3429
I1
sS'spheres'
p3430
I1
sS'convoys'
p3431
I1
sS'teenage'
p3432
I2
sS'elect'
p3433
I2
sS'merely'
p3434
I3
sS'flexibility'
p3435
I1
sS'verge'
p3436
I1
sS'everybody'
p3437
I1
sS"judge's"
p3438
I1
sS'troops'
p3439
I6
sS'debunk'
p3440
I1
sS'haven8217t'
p3441
I1
sS'visit'
p3442
I7
sS'france'
p3443
I15
sS'cited'
p3444
I1
sS'quotquestioningquotu003cbr'
p3445
I1
sS'8220report8221'
p3446
I1
sS'acceptable'
p3447
I2
sS'lockedout'
p3448
I1
sS'mouthing'
p3449
I1
sS'cautious'
p3450
I1
sS'plantations'
p3451
I2
sS'effort'
p3452
I5
sS'canadian'
p3453
I1
sS'kennneth'
p3454
I1
sS'tokyo'
p3455
I5
sS'avoiding'
p3456
I2
sS'growing'
p3457
I2
sS'making'
p3458
I12
sS'arrive'
p3459
I1
sS'bites'
p3460
I3
sS'hiroshima'
p3461
I1
sS'deceased'
p3462
I1
sS'nearest'
p3463
I1
sS'crazy'
p3464
I5
sS'firing'
p3465
I3
sS'kenneth'
p3466
I5
sS'winston'
p3467
I2
sS'agent'
p3468
I1
sS'sample'
p3469
I3
sS'council'
p3470
I3
sS'dennis'
p3471
I1
sS'chemical'
p3472
I4
sS'muliaga8217s'
p3473
I1
sS'sunday'
p3474
I10
sS'tatters'
p3475
I1
sS'sworn'
p3476
I1
sS'pathway'
p3477
I1
sS'couple8217s'
p3478
I1
sS'misrepresented'
p3479
I1
sS'residentsnbsp'
p3480
I1
sS'sustainability'
p3481
I1
sS'mankind'
p3482
I1
sS'privatise'
p3483
I1
sS'destructive'
p3484
I1
sS'maybe'
p3485
I11
sS'semiauomatic'
p3486
I1
sS'inhabitants'
p3487
I1
sS'switch'
p3488
I2
sS'pickets'
p3489
I1
sS'silence'
p3490
I1
sS'unleash'
p3491
I1
sS'basket'
p3492
I1
sS'padilla'
p3493
I1
sS"'balance'"
p3494
I1
sS'shield'
p3495
I5
sS'szady'
p3496
I1
sS'pointed'
p3497
I6
sS'wishing'
p3498
I2
sS'argues'
p3499
I5
sS'stability'
p3500
I5
sS'shake'
p3501
I1
sS'differs'
p3502
I1
sS'consolidating'
p3503
I1
sS'hirst'
p3504
I17
sS'group'
p3505
I26
sS'thank'
p3506
I1
sS"months'"
p3507
I1
sS'interesting'
p3508
I14
sS'undermined'
p3509
I1
sS'listing'
p3510
I1
sS'policy'
p3511
I16
sS'undermines'
p3512
I2
sS'texas'
p3513
I4
sS'accusations'
p3514
I3
sS'views'
p3515
I1
sS'killer'
p3516
I2
sS'moron'
p3517
I2
sS'markings'
p3518
I1
sS'bullshit'
p3519
I1
sS'developments'
p3520
I1
sS'attorneys'
p3521
I1
sS'beach'
p3522
I1
sS'peasant'
p3523
I1
sS'reprisalsin'
p3524
I1
sS'malaysian'
p3525
I3
sS"party's"
p3526
I2
sS'conventions'
p3527
I2
sS'canada'
p3528
I1
sS'emerges'
p3529
I1
sS'gonzales'
p3530
I12
sS'nominal'
p3531
I1
sS'smells'
p3532
I1
sS'emerged'
p3533
I1
sS'dioxide'
p3534
I1
sS'wainwright'
p3535
I1
sS'afghani'
p3536
I1
sS'correct'
p3537
I2
sS'earlier'
p3538
I6
sS'monster'
p3539
I1
sS'peacefulness'
p3540
I1
sS'romans'
p3541
I1
sS'statistics'
p3542
I1
sS'california'
p3543
I2
sS'advance'
p3544
I1
sS'language'
p3545
I4
sS'ministry'
p3546
I2
sS'thing'
p3547
I9
sS'highprofile'
p3548
I1
sS'think'
p3549
I27
sS'frequent'
p3550
I1
sS'first'
p3551
I37
sS'fleeing'
p3552
I1
sS'8216security'
p3553
I1
sS'longships'
p3554
I1
sS'americans'
p3555
I15
sS'suspended'
p3556
I1
sS'carry'
p3557
I1
sS'sounds'
p3558
I3
sS'little'
p3559
I30
sS'anyone'
p3560
I11
sS'plains'
p3561
I1
sS'binyam'
p3562
I1
sS'speaking'
p3563
I1
sS'allegedly'
p3564
I5
sS'moscow'
p3565
I8
sS'broadcast'
p3566
I1
sS'traderemoving'
p3567
I1
sS'undoubtedly'
p3568
I1
sS"here's"
p3569
I3
sS'cracks'
p3570
I2
sS'notches'
p3571
I1
sS'midtown'
p3572
I4
sS'victorian'
p3573
I1
sS'pegah'
p3574
I6
sS'bergerac'
p3575
I1
sS'voices'
p3576
I1
sS'conspiracy'
p3577
I10
sS'occupied'
p3578
I4
sS'kevin'
p3579
I2
sS'warsaw'
p3580
I1
sS'upgrading'
p3581
I1
sS'potential'
p3582
I6
sS'performance'
p3583
I3
sS'wonder'
p3584
I7
sS'switching'
p3585
I1
sS'channel'
p3586
I3
sS'trace'
p3587
I1
sS'investigations'
p3588
I1
sS'track'
p3589
I2
sS'correlation'
p3590
I1
sS'insanity'
p3591
I1
sS'liberalright'
p3592
I1
sS'complaints'
p3593
I1
sS'massacred'
p3594
I2
sS'especially'
p3595
I9
sS'trotter'
p3596
I1
sS'gracefully'
p3597
I1
sS'massacres'
p3598
I1
sS'precise'
p3599
I1
sS'rating'
p3600
I1
sS'moqtada'
p3601
I1
sS'representatives'
p3602
I3
sS'moderator'
p3603
I1
sS'arrears'
p3604
I2
sS'threshold'
p3605
I2
sS'ziuganoz'
p3606
I1
sS'deportation'
p3607
I7
sS'boundaries'
p3608
I1
sS'storms'
p3609
I1
sS'enough'
p3610
I12
sS'lauded'
p3611
I2
sS'black'
p3612
I12
sS'treasury'
p3613
I1
sS'bigspending'
p3614
I1
sS'revisionist'
p3615
I3
sS'200000'
p3616
I1
sS'merkel'
p3617
I3
sS'us236600'
p3618
I1
sS'employers'
p3619
I1
sS'hailed'
p3620
I1
sS'nearly'
p3621
I2
sS'median'
p3622
I1
sS'morning'
p3623
I6
sS'stupid'
p3624
I7
sS'london'
p3625
I5
sS'worrying'
p3626
I2
sS'declared'
p3627
I5
sS'eighteenth'
p3628
I1
sS'theeducation'
p3629
I1
sS'misconduct'
p3630
I1
sS'wife8217s'
p3631
I1
sS'emulating'
p3632
I1
sS'taxfarming'
p3633
I1
sS'hasn8217t'
p3634
I2
sS'label'
p3635
I2
sS'whereabouts'
p3636
I1
sS'behind'
p3637
I3
sS'reading'
p3638
I3
sS'across'
p3639
I6
sS'infrastructure'
p3640
I4
sS'august'
p3641
I7
sS'killing'
p3642
I5
sS"australia's"
p3643
I2
sS'nationality'
p3644
I2
sS'rugby'
p3645
I4
sS'antisemite'
p3646
I1
sS'counterterrorism'
p3647
I1
sS'according'
p3648
I16
sS'neverthelessthose'
p3649
I1
sS'holders'
p3650
I2
sS'among'
p3651
I9
sS'cancer'
p3652
I1
sS'maintained'
p3653
I1
sS'grants'
p3654
I1
sS'cancel'
p3655
I1
sS'associated'
p3656
I5
sS'considering'
p3657
I1
sS'destroyed'
p3658
I6
sS'unusual'
p3659
I2
sS'muliangas'
p3660
I1
sS'wobbly'
p3661
I1
sS'borders'
p3662
I1
sS'warand'
p3663
I1
sS'fiftieth'
p3664
I1
sS'shopping'
p3665
I2
sS'measles'
p3666
I1
sS'offered'
p3667
I2
sS'dramatic'
p3668
I3
sS'sarason'
p3669
I1
sS'declaration'
p3670
I3
sS'hardcore'
p3671
I1
sS'yugoslav'
p3672
I1
sS'sound'
p3673
I1
sS'ongoing'
p3674
I1
sS'rhodes'
p3675
I1
sS'cancelled'
p3676
I1
sS'profiled'
p3677
I1
sS'sleeping'
p3678
I2
sS'mythelement'
p3679
I1
sS'sudden'
p3680
I4
sS'everyday'
p3681
I2
sS'different'
p3682
I16
sS'synagogue'
p3683
I1
sS'doctor'
p3684
I2
sS'formulations'
p3685
I1
sS'speech'
p3686
I10
sS'arguments'
p3687
I2
sS'stepped'
p3688
I2
sS'extended'
p3689
I5
sS'antiterrorism'
p3690
I1
sS'running'
p3691
I6
sS'totally'
p3692
I3
sS'ruffling'
p3693
I1
sS'largely'
p3694
I5
sS'iraqis'
p3695
I1
sS'wellington'
p3696
I3
sS'objection'
p3697
I1
sS'gates'
p3698
I1
sS'peace'
p3699
I9
sS'money'
p3700
I9
sS'reputable'
p3701
I1
sS'aspect'
p3702
I2
sS'vasilii'
p3703
I1
sS'perth'
p3704
I2
sS'compassionate'
p3705
I1
sS'credentials'
p3706
I1
sS'disappointed'
p3707
I1
sS'adams'
p3708
I1
sS'identifying'
p3709
I1
sS'serves'
p3710
I1
sS'lightning'
p3711
I1
sS'facing'
p3712
I2
sS'audience'
p3713
I1
sS'either'
p3714
I10
sS'served'
p3715
I4
sS'undifferentiated'
p3716
I1
sS'imprisonment'
p3717
I1
sS'osamayesminister'
p3718
I1
sS'erase'
p3719
I1
sS'alternet'
p3720
I1
sS'nazism'
p3721
I1
sS'gross'
p3722
I2
sS'centreright'
p3723
I1
sS'sudan'
p3724
I1
sS'colonial'
p3725
I1
sS'critical'
p3726
I1
sS'aussie'
p3727
I1
sS'moderate'
p3728
I2
sS'knife'
p3729
I2
sS'measuring'
p3730
I2
sS'breastfeed'
p3731
I1
sS'notable'
p3732
I2
sS'notably'
p3733
I1
sS'broken'
p3734
I1
sS'despicable'
p3735
I1
sS'pretended'
p3736
I1
sS'patronising'
p3737
I1
sS'william'
p3738
I4
sS'opium'
p3739
I2
sS'stations'
p3740
I1
sS'island'
p3741
I1
sS'fringe'
p3742
I1
sS'develops'
p3743
I1
sS'pockets'
p3744
I1
sS'youve'
p3745
I1
sS'graphically'
p3746
I1
sS'quietly'
p3747
I4
sS'lands'
p3748
I1
sS'whites'
p3749
I8
sS'chindamo'
p3750
I1
sS'spreading'
p3751
I1
sS'references'
p3752
I1
sS'islamofascist'
p3753
I1
sS'jerusalem'
p3754
I4
sS'totalitarian'
p3755
I2
sS'everymanforhimself'
p3756
I1
sS'handcuffed'
p3757
I1
sS'decisive'
p3758
I3
sS'passports'
p3759
I1
sS'strikes'
p3760
I2
sS'hurricanes'
p3761
I2
sS"wasn't"
p3762
I5
sS'emissions'
p3763
I9
sS'conqueror'
p3764
I1
sS'deadlock'
p3765
I1
sS'leaked'
p3766
I1
sS'8216a'
p3767
I1
sS'videos'
p3768
I2
sS'neutralized'
p3769
I1
sS'fellow'
p3770
I4
sS"o'leary"
p3771
I1
sS'moodystuart'
p3772
I1
sS'allocating'
p3773
I1
sS'syrian'
p3774
I3
sS'again'
p3775
I25
sS'drivers'
p3776
I2
sS'field'
p3777
I2
sS'cleanup'
p3778
I1
sS'oxfam'
p3779
I1
sS'johnthwaites'
p3780
I1
sS"president's"
p3781
I4
sS'students'
p3782
I6
sS'important'
p3783
I6
sS'chris'
p3784
I1
sS'remote'
p3785
I2
sS'assets'
p3786
I1
sS'starting'
p3787
I3
sS'sergei'
p3788
I1
sS'grassroots'
p3789
I1
sS'founded'
p3790
I1
sS'everhelpful'
p3791
I1
sS'talks'
p3792
I1
sS"haneef's"
p3793
I4
sS'reluctant'
p3794
I1
sS'shattered'
p3795
I1
sS'alberto'
p3796
I4
sS'antizionist'
p3797
I1
sS'instigating'
p3798
I1
sS'premium'
p3799
I1
sS'returning'
p3800
I1
sS'difference'
p3801
I11
sS'dictatorship'
p3802
I2
sS'mothers'
p3803
I5
sS'moldova'
p3804
I1
sS'reminding'
p3805
I2
sS'saudi'
p3806
I3
sS'biological'
p3807
I1
sS'embarrasing'
p3808
I1
sS'economically'
p3809
I1
sS'firefight'
p3810
I1
sS'perspective'
p3811
I10
sS'lawyer'
p3812
I2
sS'further'
p3813
I8
sS'defence'
p3814
I8
sS'stood'
p3815
I4
sS'canoes'
p3816
I1
sS'public'
p3817
I23
sS'movement'
p3818
I6
sS'promising'
p3819
I2
sS'beacon'
p3820
I1
sS'operating'
p3821
I3
sS'investigating'
p3822
I1
sS'endured'
p3823
I1
sS'fantasies'
p3824
I1
sS'admits'
p3825
I1
sS'search'
p3826
I1
sS'prosecutors'
p3827
I3
sS'88run'
p3828
I1
sS'airport'
p3829
I4
sS'misery'
p3830
I3
sS'mentions'
p3831
I1
sS'narrow'
p3832
I1
sS"regime's"
p3833
I1
sS'buses'
p3834
I1
sS'cowardly'
p3835
I1
sS'africa'
p3836
I17
sS'armed'
p3837
I11
sS'attackers'
p3838
I3
sS'distinct'
p3839
I1
sS'wiped'
p3840
I1
sS'destination'
p3841
I1
sS'comparing'
p3842
I2
sS'splash'
p3843
I1
sS'correspondents'
p3844
I1
sS'diamond'
p3845
I1
sS'staggering'
p3846
I2
sS'stable'
p3847
I1
sS'particular'
p3848
I7
sS'lefthanded'
p3849
I1
sS'vladimir'
p3850
I5
sS'onclicku003dreturn'
p3851
I1
sS'recall'
p3852
I1
sS'herrnstein'
p3853
I3
sS'russiavenezuela'
p3854
I1
sS'sucks'
p3855
I2
sS'intercepted'
p3856
I1
sS'remain'
p3857
I2
sS'specialized'
p3858
I1
sS'refugee'
p3859
I1
sS'sleuth'
p3860
I1
sS'salesmen'
p3861
I1
sS'deplores'
p3862
I1
sS'share'
p3863
I3
sS'numbers'
p3864
I1
sS'despot'
p3865
I1
sS'deplored'
p3866
I1
sS'needs'
p3867
I11
sS'technology'
p3868
I3
sS'yearround'
p3869
I1
sS'sacred'
p3870
I1
sS'uprising'
p3871
I1
sS'advice'
p3872
I1
sS'changchun'
p3873
I1
sS'questioning'
p3874
I2
sS'firstgrade'
p3875
I1
sS'blood'
p3876
I2
sS'coming'
p3877
I4
sS'televion'
p3878
I1
sS'response'
p3879
I7
sS'pleasure'
p3880
I1
sS'playing'
p3881
I5
sS'rounded'
p3882
I1
sS"island's"
p3883
I1
sS'setback'
p3884
I1
sS'radar'
p3885
I1
sS'industrial'
p3886
I2
sS'through'
p3887
I30
sS'existence'
p3888
I3
sS'suffer'
p3889
I1
sS'shareholding'
p3890
I2
sS'lashings'
p3891
I1
sS'possessions'
p3892
I1
sS'reuters'
p3893
I4
sS'someone'
p3894
I8
sS'seeking'
p3895
I2
sS'socially'
p3896
I2
sS'primary'
p3897
I2
sS'learco'
p3898
I1
sS'liberalleft'
p3899
I1
sS'oxford'
p3900
I1
sS'detach'
p3901
I1
sS'struggling'
p3902
I2
sS'association'
p3903
I4
sS'mystery'
p3904
I1
sS'easily'
p3905
I4
sS'habits'
p3906
I2
sS'forthright'
p3907
I1
sS'everyone'
p3908
I6
sS'callum'
p3909
I1
sS'mental'
p3910
I3
sS'house'
p3911
I8
sS'energy'
p3912
I6
sS'engaging'
p3913
I1
sS'macdonalds'
p3914
I1
sS'putin'
p3915
I20
sS'insurance'
p3916
I1
sS'perry'
p3917
I1
sS'funding'
p3918
I3
sS'coauthor'
p3919
I1
sS"england's"
p3920
I1
sS'acting'
p3921
I1
sS'15521917'
p3922
I1
sS'threepart'
p3923
I1
sS'print'
p3924
I1
sS'evaluation'
p3925
I2
sS'usneed'
p3926
I1
sS"bbc's"
p3927
I2
sS'commits'
p3928
I2
sS'mikhail'
p3929
I1
sS'extraordinary'
p3930
I2
sS'members'
p3931
I20
sS'backed'
p3932
I3
sS'beginning'
p3933
I2
sS'bushite'
p3934
I1
sS'bragged'
p3935
I1
sS'benefits'
p3936
I5
sS'snails'
p3937
I1
sS'computers'
p3938
I1
sS'nayavu'
p3939
I1
sS'coulter'
p3940
I1
sS'botany'
p3941
I1
sS'pentagon'
p3942
I1
sS'bullies'
p3943
I1
sS'waged'
p3944
I2
sS'toves'
p3945
I1
sS'wages'
p3946
I4
sS'twenty'
p3947
I2
sS'least'
p3948
I14
sS'paint'
p3949
I1
sS'assumption'
p3950
I3
sS'statement'
p3951
I4
sS'rates'
p3952
I8
sS'ayatollahs'
p3953
I1
sS'doctors'
p3954
I1
sS'gruesome'
p3955
I1
sS'believe'
p3956
I22
sS'clarifying'
p3957
I1
sS'gotten'
p3958
I1
sS"batsman's"
p3959
I1
sS'contrary'
p3960
I2
sS'supposed'
p3961
I5
sS'anyone8221'
p3962
I1
sS'shredders'
p3963
I2
sS'declare'
p3964
I1
sS'roughly'
p3965
I1
sS'confirms'
p3966
I1
sS'orders'
p3967
I1
sS'built'
p3968
I4
sS'dancing'
p3969
I2
sS'gorbachev'
p3970
I2
sS'majority'
p3971
I4
sS'caesar'
p3972
I2
sS'build'
p3973
I5
sS'province'
p3974
I2
sS"'rabbits'"
p3975
I1
sS'significant'
p3976
I1
sS'services'
p3977
I3
sS'extremely'
p3978
I1
sS'mediation'
p3979
I1
sS'organise'
p3980
I1
sS'sector'
p3981
I4
sS'thomas'
p3982
I4
sS'particularly'
p3983
I5
sS'disturbances'
p3984
I1
sS'swelling'
p3985
I1
sS'miraflores'
p3986
I1
sS'converge'
p3987
I1
sS'21year'
p3988
I1
sS'businesses'
p3989
I2
sS'carefully'
p3990
I1
sS'jared'
p3991
I1
sS'headlines'
p3992
I2
sS'giant'
p3993
I3
sS'dividing'
p3994
I2
sS'freedoms'
p3995
I1
sS'idiots'
p3996
I1
sS'generators'
p3997
I1
sS'httpwwwstuffconz4319161a10html'
p3998
I1
sS'therefore'
p3999
I3
sS'he8217s'
p4000
I1
sS'courage'
p4001
I2
sS'batter'
p4002
I1
sS'breast'
p4003
I2
sS'selfevident'
p4004
I1
sS'he8217d'
p4005
I1
sS"nobles'"
p4006
I1
sS'contagious'
p4007
I1
sS'recycled'
p4008
I1
sS'remove'
p4009
I2
sS'common'
p4010
I8
sS'archaeologist'
p4011
I1
sS'severing'
p4012
I1
sS'californian'
p4013
I1
sS'individual'
p4014
I4
sS'surrendered'
p4015
I1
sS'tender'
p4016
I1
sS'feared'
p4017
I2
sS'desires'
p4018
I1
sS'expert'
p4019
I2
sS'visiting'
p4020
I1
sS'electoral'
p4021
I2
sS'powerhouse'
p4022
I1
sS'smallest'
p4023
I1
sS'weekly'
p4024
I1
sS'rosie'
p4025
I1
sS'responses'
p4026
I2
sS'mailbox'
p4027
I1
sS'aircraft'
p4028
I2
sS'premise'
p4029
I1
sS'guantanamo'
p4030
I1
sS'pissed'
p4031
I1
sS'reverse'
p4032
I1
sS'restaurant'
p4033
I1
sS'solely'
p4034
I1
sS'annual'
p4035
I6
sS'foreign'
p4036
I15
sS'mores8230'
p4037
I1
sS'geniuses'
p4038
I1
sS'faggots'
p4039
I1
sS'complacently'
p4040
I1
sS'elaborating'
p4041
I1
sS'point'
p4042
I23
sS'simple'
p4043
I2
sS'prosecuting'
p4044
I1
sS'simply'
p4045
I8
sS'shutdown'
p4046
I2
sS'asserted'
p4047
I1
sS'throughout'
p4048
I3
sS'raise'
p4049
I1
sS'create'
p4050
I4
sS'secret'
p4051
I7
sS'dropping'
p4052
I1
sS'ensured'
p4053
I1
sS'ireland'
p4054
I2
sS'hopefuls'
p4055
I1
sS'meeting'
p4056
I12
sS'nukes'
p4057
I4
sS'us50bn'
p4058
I1
sS'chatted'
p4059
I1
sS'understand'
p4060
I5
sS'prices'
p4061
I6
sS'politician'
p4062
I2
sS'elections'
p4063
I8
sS'sexuality'
p4064
I2
sS'replaced'
p4065
I2
sS'birthright'
p4066
I1
sS'clubrooms'
p4067
I1
sS'portugal'
p4068
I1
sS'century'
p4069
I15
sS'httpdeliciouspostv4nouijumpclose'
p4070
I1
sS'destabilization'
p4071
I1
sS'itself'
p4072
I8
sS'powerline'
p4073
I1
sS'italy'
p4074
I5
sS'lenient'
p4075
I1
sS'development'
p4076
I9
sS'brutalised'
p4077
I1
sS'neuroses'
p4078
I1
sS'yesterday'
p4079
I13
sS'moment'
p4080
I6
sS'purpose'
p4081
I1
sS'sandals'
p4082
I1
sS'spent'
p4083
I2
sS'httpwwwstuffconz4319915a12html'
p4084
I1
sS'flags'
p4085
I1
sS'entry'
p4086
I4
sS'spend'
p4087
I4
sS'euroasian'
p4088
I1
sS'segregate'
p4089
I1
sS"bankers'"
p4090
I1
sS'shape'
p4091
I1
sS'openly'
p4092
I3
sS'alternative'
p4093
I6
sS'injuries'
p4094
I3
sS'timber'
p4095
I1
sS'letting'
p4096
I1
sS'impetus'
p4097
I1
sS'8220for'
p4098
I1
sS'hated'
p4099
I2
sS'deputy'
p4100
I3
sS'source'
p4101
I3
sS'deliberately'
p4102
I3
sS'ridiculously'
p4103
I1
sS'looming'
p4104
I1
sS'campbells'
p4105
I1
sS'matters'
p4106
I3
sS'truely'
p4107
I1
sS'lochaline'
p4108
I2
sS'follows'
p4109
I3
sS'foolish'
p4110
I1
sS'google'
p4111
I2
sS'often'
p4112
I8
sS'extremism'
p4113
I1
sS'magnificent'
p4114
I3
sS'bracks'
p4115
I2
sS'strongest'
p4116
I2
sS'accelerate'
p4117
I1
sS'mirror'
p4118
I2
sS'ourselves'
p4119
I1
sS'scale'
p4120
I6
sS'decision'
p4121
I9
sS'though'
p4122
I16
sS'httpwwwstuffconz4319104a10html'
p4123
I1
sS'commentator'
p4124
I1
sS'invade'
p4125
I3
sS'crony'
p4126
I1
sS'patient'
p4127
I1
sS'goods'
p4128
I5
sS'tenants'
p4129
I1
sS'pollution'
p4130
I2
sS'librarians'
p4131
I1
sS'abusive'
p4132
I1
sS'fatialofa'
p4133
I1
sS'proportional'
p4134
I1
sS'lesson'
p4135
I5
sS'swedens'
p4136
I1
sS'infected'
p4137
I3
sS'germans'
p4138
I1
sS'forward'
p4139
I3
sS'anally'
p4140
I1
sS'gaffney'
p4141
I1
sS'murphy'
p4142
I1
sS'exterminated'
p4143
I2
sS'immigration'
p4144
I6
sS'hoped'
p4145
I1
sS'hopes'
p4146
I3
sS'directed'
p4147
I1
sS'planet'
p4148
I6
sS'hydro'
p4149
I2
sS'alqaedas'
p4150
I1
sS'stripped'
p4151
I1
sS'engineering'
p4152
I3
sS'dragging'
p4153
I1
sS'denying'
p4154
I2
sS'brethren'
p4155
I1
sS'excuser'
p4156
I1
sS'excuses'
p4157
I2
sS'actively'
p4158
I1
sS'favourite'
p4159
I2
sS'prepared'
p4160
I2
sS'intensified'
p4161
I1
sS'utterly'
p4162
I2
sS'prepares'
p4163
I2
sS'madisha'
p4164
I1
sS'desert'
p4165
I1
sS'statesman'
p4166
I1
sS'vehicles'
p4167
I2
sS'bankers'
p4168
I5
sS'amused'
p4169
I1
sS"israel's"
p4170
I4
sS'enrichment'
p4171
I1
sS'jason'
p4172
I1
sS'breached'
p4173
I2
sS'vietnamese'
p4174
I1
sS'helps'
p4175
I1
sS'enlightenment'
p4176
I4
sS'fatah'
p4177
I2
sS'putting'
p4178
I1
sS'accuse'
p4179
I1
sS'severely'
p4180
I2
sS'subtitle'
p4181
I1
sS'havent'
p4182
I1
sS'peaceloving'
p4183
I1
sS"government's"
p4184
I3
sS'educators'
p4185
I1
sS'contingent'
p4186
I1
sS'reconciliation'
p4187
I1
sS'giving'
p4188
I4
sS'assisted'
p4189
I1
sS'inconveniences'
p4190
I1
sS'access'
p4191
I10
sS'kyoto'
p4192
I1
sS'exercise'
p4193
I1
sS'exchange'
p4194
I3
sS'saidshe'
p4195
I1
sS'nonexistent'
p4196
I2
sS'others'
p4197
I4
sS'safer'
p4198
I1
sS'extreme'
p4199
I4
sS'later'
p4200
I4
sS'principally'
p4201
I1
sS'composed'
p4202
I3
sS'named'
p4203
I1
sS'presidents'
p4204
I1
sS'private'
p4205
I4
sS'names'
p4206
I6
sS'resolutions'
p4207
I1
sS'refers'
p4208
I2
sS'improvementthat'
p4209
I1
sS'themselves'
p4210
I7
sS'inthe'
p4211
I2
sS'upcoming'
p4212
I2
sS'giggle'
p4213
I1
sS'trait'
p4214
I2
sS'emigration'
p4215
I1
sS'train'
p4216
I4
sS'dentistry'
p4217
I1
sS'account'
p4218
I5
sS'percentilethose'
p4219
I1
sS'assumptions'
p4220
I2
sS'obvious'
p4221
I5
sS'oneoff'
p4222
I1
sS'praise'
p4223
I2
sS'didnt'
p4224
I4
sS'unsuccesful'
p4225
I1
sS'violence'
p4226
I12
sS'infantry'
p4227
I1
sS'effectively'
p4228
I3
sS'bones'
p4229
I1
sS'contempt'
p4230
I1
sS'native'
p4231
I2
sS'feleti'
p4232
I1
sS'democracy'
p4233
I10
sS'unwanting'
p4234
I1
sS'holds'
p4235
I1
sS'regions'
p4236
I1
sS'varies'
p4237
I1
sS'forest'
p4238
I1
sS'grimaced'
p4239
I1
sS'shitheadery'
p4240
I1
sS'stock'
p4241
I3
sS'profile'
p4242
I1
sS'buildings'
p4243
I5
sS'waters'
p4244
I1
sS'philosophy'
p4245
I3
sS"century's"
p4246
I2
sS'bombers'
p4247
I2
sS'chasing'
p4248
I1
sS'lines'
p4249
I2
sS'liner'
p4250
I1
sS'chief'
p4251
I3
sS'subsequently'
p4252
I3
sS'lined'
p4253
I1
sS'despite'
p4254
I9
sS'disarm'
p4255
I2
sS'fromu003cbr'
p4256
I1
sS'mcpetrie'
p4257
I1
sS'agricultural'
p4258
I5
sS'bunch'
p4259
I2
sS'industries'
p4260
I2
sS'negotiated'
p4261
I1
sS'accredited'
p4262
I1
sS'marsh'
p4263
I1
sS'criminal'
p4264
I2
sS'antidote'
p4265
I1
sS'lunatic'
p4266
I1
sS'mention'
p4267
I1
sS'cutting'
p4268
I4
sS'seamers'
p4269
I1
sS'mandate'
p4270
I1
sS'squabbling'
p4271
I1
sS"cia's"
p4272
I1
sS'difficultto'
p4273
I1
sS'warned'
p4274
I6
sS'identified'
p4275
I1
sS'crudely'
p4276
I1
sS'goodbyes'
p4277
I1
sS'michaels'
p4278
I1
sS'experienced'
p4279
I1
sS'belgrade'
p4280
I2
sS'dreaming'
p4281
I2
sS'changeand'
p4282
I1
sS'burdened'
p4283
I1
sS'incensed'
p4284
I1
sS'sexual'
p4285
I3
sS'empires'
p4286
I1
sS'defend'
p4287
I2
sS'oriental'
p4288
I1
sS'socalled'
p4289
I3
sS'8220afghanistan8217s'
p4290
I1
sS'announced'
p4291
I5
sS'approached'
p4292
I1
sS'frank'
p4293
I2
sS'clarify'
p4294
I1
sS'approaches'
p4295
I1
sS'chiefs'
p4296
I1
sS'allies'
p4297
I2
sS'mortar'
p4298
I1
sS'hinting'
p4299
I1
sS'nineteenfiftiesand'
p4300
I1
sS'allied'
p4301
I1
sS'retain'
p4302
I1
sS'retail'
p4303
I1
sS'south'
p4304
I14
sS'finest'
p4305
I1
sS'braced'
p4306
I1
sS'tributes'
p4307
I1
sS'reaches'
p4308
I1
sS'strategic'
p4309
I6
sS'puppet'
p4310
I1
sS'deadlines'
p4311
I1
sS'reached'
p4312
I4
sS'tailevu'
p4313
I1
sS'ancient'
p4314
I1
sS'sadly'
p4315
I2
sS'chased'
p4316
I1
sS'embracing'
p4317
I1
sS'explanation'
p4318
I2
sS'acquire'
p4319
I1
sS'environmental'
p4320
I3
sS'loved'
p4321
I1
sS'asean'
p4322
I2
sS'sweden'
p4323
I1
sS'lover'
p4324
I1
sS'visited'
p4325
I2
sS'abolished'
p4326
I6
sS'waterboarding'
p4327
I2
sS'eloquently'
p4328
I1
sS"'just"
p4329
I1
sS'unlikely'
p4330
I2
sS'throat'
p4331
I1
sS'apparently'
p4332
I4
sS'cosatu'
p4333
I2
sS'parks'
p4334
I2
sS'concerns'
p4335
I2
sS'provoked'
p4336
I1
sS'unless'
p4337
I3
sS'alienation'
p4338
I1
sS'eight'
p4339
I4
sS'peppered'
p4340
I1
sS'sally'
p4341
I1
sS'stranded'
p4342
I1
sS'clive'
p4343
I2
sS'disease'
p4344
I1
sS'capita'
p4345
I3
sS'callers'
p4346
I1
sS'absurd'
p4347
I1
sS'supported'
p4348
I4
sS'isn8217t'
p4349
I5
sS'rebuke'
p4350
I1
sS'supporter'
p4351
I1
sS'staff'
p4352
I5
sS'communism'
p4353
I2
sS'knowledge'
p4354
I2
sS'communist'
p4355
I8
sS'regularly'
p4356
I1
sS'timing'
p4357
I1
sS'striped'
p4358
I1
sS'areas'
p4359
I1
sS"gop's"
p4360
I1
sS"putin's"
p4361
I3
sS'calling'
p4362
I7
sS'excesses'
p4363
I2
sS'cycles'
p4364
I2
sS'untrue'
p4365
I1
sS'national'
p4366
I17
sS'showdown'
p4367
I1
sS'greece'
p4368
I2
sS'maynard'
p4369
I1
sS'imposition'
p4370
I1
sS'attempting'
p4371
I2
sS'pattern'
p4372
I2
sS'tasers'
p4373
I6
sS'ebola'
p4374
I1
sS'progress'
p4375
I5
sS'junkies'
p4376
I1
sS'monarchy'
p4377
I2
sS'deliver'
p4378
I3
sS'realization'
p4379
I1
sS'findingsnow'
p4380
I1
sS"supermarkets'"
p4381
I1
sS'taking'
p4382
I13
sS'trips'
p4383
I1
sS'conquered'
p4384
I2
sS'passing'
p4385
I2
sS'otherwise'
p4386
I1
sS'comment'
p4387
I14
sS'relevant'
p4388
I2
sS'invasive'
p4389
I1
sS'disarmament'
p4390
I1
sS'denis'
p4391
I1
sS'laugh'
p4392
I1
sS'mafia'
p4393
I1
sS'unearthed'
p4394
I1
sS'tremendous'
p4395
I1
sS'proposal'
p4396
I1
sS'ramallah'
p4397
I1
sS'define'
p4398
I1
sS'uncensoredu003cbr'
p4399
I1
sS'skewed'
p4400
I1
sS'protect'
p4401
I7
sS'redhead'
p4402
I1
sS'finished'
p4403
I1
sS'angles'
p4404
I1
sS'general'
p4405
I8
sS'napoleon'
p4406
I1
sS'lebanese'
p4407
I1
sS'multi'
p4408
I1
sS'plain'
p4409
I2
sS'norightturn'
p4410
I1
sS'appearance'
p4411
I2
sS'value'
p4412
I4
sS'stalin'
p4413
I1
sS'entrepreneurial'
p4414
I1
sS'promoted'
p4415
I1
sS'sourcethe'
p4416
I1
sS'almost'
p4417
I18
sS'delusion'
p4418
I1
sS'helped'
p4419
I5
sS'arabia'
p4420
I3
sS'partner'
p4421
I2
sS'productivity'
p4422
I1
sS'administration'
p4423
I10
sS'flour'
p4424
I1
sS'injured'
p4425
I2
sS'material'
p4426
I7
sS'selfish'
p4427
I2
sS'reporting'
p4428
I3
sS'spitting'
p4429
I1
sS'indoctrinating'
p4430
I1
sS'fucked'
p4431
I1
sS'judgment'
p4432
I1
sS'scholars'
p4433
I1
sS'numbered'
p4434
I1
sS'center'
p4435
I3
sS'trotskyite'
p4436
I1
sS'weapon'
p4437
I4
sS'thought'
p4438
I6
sS'guberniia'
p4439
I1
sS'position'
p4440
I7
sS'muscle'
p4441
I1
sS'soviet'
p4442
I8
sS'usual'
p4443
I2
sS'perseveringnbsp'
p4444
I1
sS'arming'
p4445
I1
sS'executive'
p4446
I2
sS'domestic'
p4447
I3
sS'side8230'
p4448
I1
sS'interim'
p4449
I2
sS'seats'
p4450
I1
sS'protecting'
p4451
I2
sS'graduate'
p4452
I1
sS'spluttering'
p4453
I1
sS'citizen'
p4454
I2
sS'match'
p4455
I4
sS'tests'
p4456
I16
sS'articles'
p4457
I5
sS"magazine's"
p4458
I1
sS'inviting'
p4459
I2
sS'crawled'
p4460
I1
sS'journalism'
p4461
I5
sS'admitted'
p4462
I1
sS'kuala'
p4463
I2
sS'works'
p4464
I1
sS'eversee'
p4465
I1
sS'italian'
p4466
I6
sS'authority'
p4467
I2
sS'legislated'
p4468
I1
sS'proper'
p4469
I1
sS'supportive'
p4470
I1
sS'purse8217'
p4471
I1
sS'happens'
p4472
I2
sS'moran'
p4473
I1
sS'unfunny'
p4474
I1
sS'vocabulary'
p4475
I1
sS'ulaiasi'
p4476
I1
sS'discretion'
p4477
I2
sS'assuming'
p4478
I1
sS'screwed'
p4479
I1
sS'regain'
p4480
I1
sS'8216morality'
p4481
I1
sS'proud'
p4482
I1
sS'slight'
p4483
I1
sS'combative'
p4484
I1
sS'although'
p4485
I11
sS'periodically'
p4486
I2
sS'actual'
p4487
I2
sS'napoleonic'
p4488
I1
sS'albanian'
p4489
I1
sS'introduced'
p4490
I4
sS'powerpoint'
p4491
I1
sS'childrens'
p4492
I1
sS'functional'
p4493
I1
sS'tackle'
p4494
I1
sS'doesnt'
p4495
I2
sS'esteem'
p4496
I1
sS'female'
p4497
I1
sS'renorm'
p4498
I1
sS'rushes'
p4499
I1
sS'nineteeneighties'
p4500
I1
sS'biggest'
p4501
I3
sS'touted'
p4502
I1
sS'brand'
p4503
I1
sS'reminds'
p4504
I2
sS'partially'
p4505
I1
sS'fmbreakfast'
p4506
I1
sS'dangerous'
p4507
I10
sS'minutes'
p4508
I1
sS'plutonium'
p4509
I3
sS'supreme'
p4510
I3
sS'rabbits'
p4511
I3
sS'deaths'
p4512
I7
sS'exceeded'
p4513
I2
sS'crusade'
p4514
I1
sS'periods'
p4515
I1
sS'fiinkensein'
p4516
I2
sS'commentators'
p4517
I1
sS'shooting'
p4518
I1
sS'identities'
p4519
I2
sS'campus'
p4520
I8
sS'mugabes'
p4521
I1
sS'maslowski'
p4522
I2
sS'claiming'
p4523
I3
sS'forestry'
p4524
I1
sS'whakapapa'
p4525
I1
sS'wallop'
p4526
I1
sS'trackback'
p4527
I1
sS'christians'
p4528
I2
sS"'disproportionate'"
p4529
I1
sS"dog's"
p4530
I1
sS'blackwhite'
p4531
I2
sS'limited'
p4532
I4
sS'represent'
p4533
I2
sS'that8221'
p4534
I1
sS'shafting'
p4535
I1
sS'facilities'
p4536
I2
sS'hating'
p4537
I1
sS'appetite'
p4538
I1
sS'poorly'
p4539
I2
sS'feeding'
p4540
I2
sS'paris'
p4541
I1
sS'poorest'
p4542
I3
sS'multiemployer'
p4543
I1
sS'patched'
p4544
I1
sS'under'
p4545
I19
sS'pride'
p4546
I1
sS'instincts'
p4547
I1
sS'legislators'
p4548
I3
sS'httpwwwstuffconz4319221a10html'
p4549
I1
sS'exporting'
p4550
I2
sS'every'
p4551
I15
sS'encounter'
p4552
I1
sS'litvinenko'
p4553
I1
sS'school'
p4554
I9
sS'motorcyclist'
p4555
I2
sS'bolivarian'
p4556
I1
sS"'brutal'"
p4557
I2
sS'barracks'
p4558
I1
sS'proteas'
p4559
I1
sS'enjoy'
p4560
I1
sS'nineteenthcentury'
p4561
I1
sS'leaders'
p4562
I9
sS'consistent'
p4563
I1
sS'estimates'
p4564
I3
sS'direct'
p4565
I3
sS'louden'
p4566
I2
sS'street'
p4567
I5
sS'presidentforlife'
p4568
I2
sS'estimated'
p4569
I2
sS'bethune'
p4570
I1
sS'beaten'
p4571
I2
sS'liberty'
p4572
I2
sS'children'
p4573
I21
sS'endorse'
p4574
I1
sS'supplier'
p4575
I1
sS'supplies'
p4576
I1
sS'sassenach'
p4577
I1
sS'disney'
p4578
I1
sS'philippe'
p4579
I1
sS'kicked'
p4580
I2
sS'licences'
p4581
I1
sS'hundreds'
p4582
I4
sS'ethanol'
p4583
I1
sS'represented'
p4584
I1
sS'aftermath'
p4585
I2
sS'orthodoxy'
p4586
I1
sS'voice'
p4587
I3
sS'fjords'
p4588
I1
sS'forum'
p4589
I6
sS'leaves'
p4590
I2
sS'changed'
p4591
I8
sS'precis'
p4592
I1
sS'abolition'
p4593
I3
sS'mistake'
p4594
I4
sS'changes'
p4595
I2
sS'punishment'
p4596
I1
sS'swearing'
p4597
I1
sS'strap'
p4598
I1
sS'patience'
p4599
I2
sS'65ball'
p4600
I1
sS'forums'
p4601
I1
sS'lauhing'
p4602
I1
sS'doubledipping'
p4603
I1
sS'would'
p4604
I98
sS'hospital'
p4605
I1
sS'turia'
p4606
I3
sS'noting'
p4607
I1
sS'asset'
p4608
I2
sS'raids'
p4609
I1
sS'spike'
p4610
I1
sS'assessment'
p4611
I6
sS'robbins'
p4612
I2
sS'phony'
p4613
I1
sS'phone'
p4614
I1
sS'excellent'
p4615
I3
sS'casualties'
p4616
I3
sS'shoot'
p4617
I1
sS'tremendously'
p4618
I1
sS'advocacy'
p4619
I2
sS'appraisal'
p4620
I1
sS'unilateral'
p4621
I1
sS'antigay'
p4622
I1
sS'writers'
p4623
I4
sS'truthwith'
p4624
I1
sS'widespread'
p4625
I1
sS'charging'
p4626
I2
sS'jabberwocky'
p4627
I1
sS'badly'
p4628
I2
sS'elizabeth'
p4629
I1
sS'demanding'
p4630
I3
sS'fijian'
p4631
I20
sS'parallel'
p4632
I1
sS'say8230'
p4633
I1
sS'acknowledged'
p4634
I1
sS'ultimate'
p4635
I1
sS'enter'
p4636
I1
sS'acknowledges'
p4637
I1
sS'executed'
p4638
I1
sS'misadventure'
p4639
I1
sS'wound'
p4640
I1
sS'executes'
p4641
I1
sS'thesis'
p4642
I2
sS'entrances'
p4643
I1
sS'hypocrisy'
p4644
I1
sS'writing'
p4645
I6
sS'oppressiontriumphant'
p4646
I1
sS'phallic'
p4647
I1
sS'compelling'
p4648
I2
sS'diseases'
p4649
I4
sS'prevented'
p4650
I1
sS'powerful'
p4651
I2
sS"francisco's"
p4652
I1
sS'unionist'
p4653
I1
sS'tourism'
p4654
I1
sS"administration's"
p4655
I1
sS'netherlands'
p4656
I3
sS'herald'
p4657
I3
sS'victory'
p4658
I1
sS'genocidal'
p4659
I1
sS'ghosts'
p4660
I2
sS'saturday'
p4661
I3
sS'driving'
p4662
I1
sS'newly'
p4663
I1
sS'independence'
p4664
I2
sS'wanted'
p4665
I5
sS'longterm'
p4666
I1
sS'waldfogel'
p4667
I1
sS'82168217'
p4668
I1
sS"nuku'alofa"
p4669
I3
sS"group's"
p4670
I1
sS'inspectors'
p4671
I1
sS'already'
p4672
I11
sS'blunti'
p4673
I1
sS'researcher'
p4674
I1
sS'encouraging'
p4675
I2
sS'hearing'
p4676
I2
sS'restrict'
p4677
I1
sS'relations'
p4678
I8
sS'calorie'
p4679
I1
sS'roundtheworld'
p4680
I1
sS'rewritten'
p4681
I1
sS'ballistic'
p4682
I1
sS'percentage'
p4683
I1
sS'insightful'
p4684
I1
sS'urban'
p4685
I4
sS'murder'
p4686
I2
sS'odubya'
p4687
I1
sS'serve'
p4688
I4
sS'western'
p4689
I22
sS'shortly'
p4690
I1
sS'lather'
p4691
I1
sS'classed'
p4692
I1
sS'rampage'
p4693
I1
sS'immigrants'
p4694
I4
sS'tourists'
p4695
I1
sS"'desperate'"
p4696
I2
sS'bridge'
p4697
I1
sS'fashion'
p4698
I1
sS"blog's"
p4699
I1
sS'talking'
p4700
I8
sS'advising'
p4701
I2
sS'regulate'
p4702
I1
sS'relatively'
p4703
I6
sS'yearslong'
p4704
I1
sS'traditionally'
p4705
I1
sS'homesteaders'
p4706
I1
sS'isolated'
p4707
I3
sS'predominantly'
p4708
I1
sS'contact'
p4709
I5
sS'postgraduate'
p4710
I1
sS'doomed'
p4711
I1
sS"yeltsin's"
p4712
I2
sS'inured'
p4713
I1
sS'incapable'
p4714
I1
sS'i8217d'
p4715
I3
sS'mother'
p4716
I7
sS'i8217m'
p4717
I6
sS'quotthreat'
p4718
I1
sS'plenty'
p4719
I3
sS'disarmed'
p4720
I1
sS'explosives'
p4721
I2
sS'mobilised'
p4722
I1
sS"benedict's"
p4723
I1
sS'treaty'
p4724
I1
sS'reemerged'
p4725
I1
sS'enterprise'
p4726
I1
sS'inspire'
p4727
I1
sS'random'
p4728
I1
sS'aspires'
p4729
I2
sS'radio'
p4730
I8
sS'queer'
p4731
I3
sS'earth'
p4732
I5
sS'spite'
p4733
I1
sS'unemployment'
p4734
I4
sS'supportu003cbr'
p4735
I1
sS'mixture'
p4736
I1
sS'asians'
p4737
I3
sS'watch'
p4738
I8
sS'shutting'
p4739
I1
sS'wedding'
p4740
I1
sS'report'
p4741
I18
sS'frying'
p4742
I1
sS'interrogated'
p4743
I1
sS'considerate'
p4744
I1
sS'countries'
p4745
I29
sS'spokesperson'
p4746
I1
sS'abovelisted'
p4747
I2
sS'farther'
p4748
I1
sS'habit'
p4749
I2
sS'1960s'
p4750
I4
sS'disturbing'
p4751
I1
sS'amalgamated'
p4752
I1
sS'capacity'
p4753
I1
sS'continually'
p4754
I2
sS'deceptively'
p4755
I1
sS'finger'
p4756
I1
sS'approach'
p4757
I6
sS'discovery'
p4758
I2
sS'liaise'
p4759
I1
sS'however'
p4760
I24
sS'southeast'
p4761
I1
sS'outages'
p4762
I1
sS'censorship'
p4763
I3
sS'dedication'
p4764
I1
sS'parentnbsp'
p4765
I1
sS'predates'
p4766
I1
sS'improve'
p4767
I3
sS'faced'
p4768
I1
sS'fuckwits'
p4769
I1
sS'fault'
p4770
I2
sS'players'
p4771
I1
sS'faces'
p4772
I2
sS'looters'
p4773
I1
sS'expense'
p4774
I4
sS'hitler'
p4775
I1
sS'conference'
p4776
I4
sS'bathroom'
p4777
I1
sS'simplification'
p4778
I1
sS'warehouses'
p4779
I1
sS'quickly'
p4780
I3
sS'spread'
p4781
I1
sS'expected'
p4782
I6
sS'containers'
p4783
I1
sS'catch'
p4784
I1
sS'70000'
p4785
I1
sS'lesser'
p4786
I1
sS"'news'"
p4787
I1
sS'pyramid'
p4788
I2
sS'experts'
p4789
I2
sS'brutal'
p4790
I6
sS'ramifications'
p4791
I2
sS'suggest'
p4792
I3
sS'prussia'
p4793
I1
sS"lynn's"
p4794
I1
sS'beside'
p4795
I1
sS'complex'
p4796
I1
sS'several'
p4797
I5
sS'harming'
p4798
I2
sS'published'
p4799
I3
sS'cycle'
p4800
I2
sS'mentioning'
p4801
I2
sS"holden's"
p4802
I1
sS"mother's"
p4803
I1
sS'possessed'
p4804
I1
sS'ocean'
p4805
I3
sS'savings'
p4806
I1
sS'greatest'
p4807
I1
sS'detained'
p4808
I1
sS'detainee'
p4809
I1
sS'departed'
p4810
I1
sS'proposed'
p4811
I5
sS'brenner'
p4812
I2
sS'wellconnected'
p4813
I1
sS'judge'
p4814
I10
sS'14yearold'
p4815
I1
sS'campbell'
p4816
I2
sS'chechnya'
p4817
I1
sS'don8217t'
p4818
I6
sS'teenager'
p4819
I2
sS'technological'
p4820
I1
sS'humanity'
p4821
I3
sS'8220in'
p4822
I1
sS"2013'"
p4823
I2
sS'breaks'
p4824
I1
sS'cultural'
p4825
I3
sS'newcastle'
p4826
I2
sS'shortwave'
p4827
I2
sS'burns'
p4828
I3
sS'nearer8221'
p4829
I1
sS'advanced'
p4830
I2
sS'apart'
p4831
I4
sS'melting'
p4832
I2
sS'monksand'
p4833
I1
sS'appearing'
p4834
I1
sS'specific'
p4835
I4
sS'broadcaster'
p4836
I1
sS'offices'
p4837
I3
sS'overrated'
p4838
I1
sS'jazeera'
p4839
I1
sS'stereotype'
p4840
I1
sS'successfully'
p4841
I1
sS'excerpt'
p4842
I1
sS'malaysia'
p4843
I1
sS'election'
p4844
I13
sS'escape'
p4845
I2
sS'24hour'
p4846
I1
sS'destabilising'
p4847
I1
sS'everything'
p4848
I6
sS'zionism'
p4849
I1
sS'intolerant'
p4850
I1
sS'christmas'
p4851
I1
sS'officer'
p4852
I1
sS'do8230'
p4853
I1
sS'disappeared'
p4854
I2
sS'permitted'
p4855
I1
sS'census'
p4856
I1
sS'attacks'
p4857
I11
sS'genocide'
p4858
I2
sS'steadily'
p4859
I1
sS'civil'
p4860
I9
sS'puzzle'
p4861
I2
sS'coincidentally'
p4862
I1
sS'tribune'
p4863
I1
sS'effectfor'
p4864
I1
sS'coastal'
p4865
I1
sS'electorate'
p4866
I2
sS'rounds'
p4867
I2
sS'existed'
p4868
I1
sS'postcolonial'
p4869
I1
sS'outbreaks'
p4870
I1
sS'stuck'
p4871
I2
sS'seeker'
p4872
I1
sS'purposely'
p4873
I1
sS'wittenberg'
p4874
I1
sS'attempted'
p4875
I2
sS'differences'
p4876
I3
sS'uncle'
p4877
I2
sS'removed'
p4878
I1
sS'muster'
p4879
I1
sS'ruined'
p4880
I1
sS'practicing'
p4881
I1
sS'peres'
p4882
I2
sS'sometime'
p4883
I2
sS'selfaware'
p4884
I1
sS'liberalism'
p4885
I1
sS'regime'
p4886
I17
sS'upheaval'
p4887
I1
sS'zimbabwes'
p4888
I1
sS'thirdworld'
p4889
I1
sS'setting'
p4890
I2
sS'papers'
p4891
I1
sS'erosion'
p4892
I1
sS'picture'
p4893
I5
sS'today8217s'
p4894
I1
sS'reconsider'
p4895
I1
sS'httpwwwstuffconz4318989a12html'
p4896
I1
sS'football'
p4897
I1
sS'miscellaneous'
p4898
I1
sS'blokes'
p4899
I2
sS'younger'
p4900
I5
sS'faster'
p4901
I3
sS'australians'
p4902
I11
sS'ryder'
p4903
I1
sS'uncovered'
p4904
I1
sS'vietnam'
p4905
I20
sS'serious'
p4906
I7
sS'backward'
p4907
I1
sS'premeditated'
p4908
I1
sS'coach'
p4909
I2
sS'varying'
p4910
I1
sS'focus'
p4911
I1
sS'deliveries'
p4912
I1
sS'remarkably'
p4913
I2
sS'wellmeaning'
p4914
I1
sS'passage'
p4915
I1
sS'environment'
p4916
I5
sS'charge'
p4917
I3
sS'quash'
p4918
I1
sS'promoting'
p4919
I2
sS'weakening'
p4920
I1
sS'federation'
p4921
I3
sS'advantage'
p4922
I3
sS'sponsors'
p4923
I1
sS'level'
p4924
I4
sS'posts'
p4925
I1
sS'brother'
p4926
I2
sS'standards'
p4927
I3
sS'quick'
p4928
I2
sS'democrats'
p4929
I1
sS'guzzling'
p4930
I1
sS"group'"
p4931
I2
sS'specializes'
p4932
I1
sS'slower'
p4933
I3
sS'invades'
p4934
I1
sS'trend'
p4935
I3
sS'invaded'
p4936
I4
sS'journalistic'
p4937
I2
sS'catapulted'
p4938
I1
sS'yippee'
p4939
I1
sS'stands'
p4940
I1
sS'ringgit'
p4941
I1
sS'contracted'
p4942
I1
sS'agrees'
p4943
I2
sS'questiontime14607'
p4944
I1
sS'highranking'
p4945
I1
sS'reply'
p4946
I1
sS'perle'
p4947
I1
sS'water'
p4948
I8
sS'twentieth'
p4949
I1
sS'groups'
p4950
I4
sS'takenbsp'
p4951
I1
sS'supplying'
p4952
I2
sS'thirty'
p4953
I3
sS'guilty'
p4954
I2
sS'sixties'
p4955
I1
sS"flynn's"
p4956
I3
sS'weird'
p4957
I2
sS'doris'
p4958
I1
sS'chaired'
p4959
I1
sS'ethiopian'
p4960
I2
sS'crisis'
p4961
I4
sS'concoct'
p4962
I1
sS'brighter'
p4963
I1
sS'ravage'
p4964
I1
sS'possums'
p4965
I1
sS'australian'
p4966
I23
sS'dalia'
p4967
I1
sS'today'
p4968
I23
sS"usaf's"
p4969
I1
sS'kerry'
p4970
I1
sS'survivalist'
p4971
I1
sS'clicking'
p4972
I1
sS'flying'
p4973
I1
sS'chocolate'
p4974
I1
sS'dismal'
p4975
I1
sS'cases'
p4976
I3
sS'insights'
p4977
I1
sS'autumn'
p4978
I1
sS'trackers'
p4979
I1
sS'julius'
p4980
I1
sS'thousands'
p4981
I5
sS'antiimperialist'
p4982
I1
sS'impracticality'
p4983
I1
sS'stream'
p4984
I1
sS'dropped'
p4985
I1
sS'lusaka'
p4986
I1
sS'parliamentary'
p4987
I4
sS'middleaged'
p4988
I2
sS'requirements'
p4989
I1
sS'mismanagement'
p4990
I1
sS'vital'
p4991
I4
sS'fourth'
p4992
I1
sS'speaks'
p4993
I1
sS'crashes'
p4994
I1
sS'islamic'
p4995
I6
sS'tories'
p4996
I2
sS'succeeded'
p4997
I1
sS'stupidly'
p4998
I1
sS'representation'
p4999
I1
sS'exclusive'
p5000
I2
sS'checkpoints'
p5001
I1
sS'werent'
p5002
I1
sS'mainly'
p5003
I1
sS'westerners'
p5004
I3
sS'supplemented'
p5005
I1
sS'organisation'
p5006
I4
sS'platform'
p5007
I1
sS'offers'
p5008
I1
sS'happened'
p5009
I8
sS'halffrench'
p5010
I1
sS'dannatts'
p5011
I1
sS'bound'
p5012
I1
sS'forumfiji'
p5013
I1
sS'masstrict'
p5014
I1
sS'equality'
p5015
I4
sS'debating'
p5016
I1
sS'realise'
p5017
I3
sS'indescent'
p5018
I1
sS'eighties'
p5019
I4
sS'realism'
p5020
I1
sS'populated'
p5021
I1
sS'catching'
p5022
I1
sS'farewell'
p5023
I2
sS'begun'
p5024
I2
sS'obsession'
p5025
I1
sS'plans'
p5026
I4
sS'ultimately'
p5027
I1
sS"america's"
p5028
I1
sS'factors'
p5029
I2
sS'profit'
p5030
I1
sS"shouldn't"
p5031
I5
sS'simes'
p5032
I2
sS'theory'
p5033
I7
sS'state'
p5034
I44
sS'naqia'
p5035
I1
sS'explorers'
p5036
I1
sS'calories'
p5037
I1
sS'gusto'
p5038
I1
sS'unpaid'
p5039
I1
sS'place'
p5040
I11
sS'retreating'
p5041
I1
sS'discontinued'
p5042
I1
sS'hardtotreat'
p5043
I2
sS'origin'
p5044
I1
sS'8220snorting8221'
p5045
I1
sS"report's"
p5046
I1
sS'wholesalers'
p5047
I1
sS'reductionism'
p5048
I1
sS'commissioners'
p5049
I1
sS'george'
p5050
I10
sS'millions'
p5051
I3
sS'given'
p5052
I17
sS'necessarily'
p5053
I1
sS'district'
p5054
I1
sS'talkback'
p5055
I1
sS'trillion'
p5056
I1
sS'plastic'
p5057
I1
sS'returns'
p5058
I1
sS'fought'
p5059
I2
sS'terrifying'
p5060
I1
sS'legally'
p5061
I2
sS'white'
p5062
I20
sS'modernisation'
p5063
I1
sS'gives'
p5064
I3
sS'appointees'
p5065
I1
sS'season'
p5066
I1
sS"men's"
p5067
I2
sS'released'
p5068
I6
sS'population'
p5069
I5
sS'unfortunately'
p5070
I11
sS'require'
p5071
I1
sS'diplomatic'
p5072
I4
sS'officials'
p5073
I6
sS'cards'
p5074
I1
sS'reinforcements'
p5075
I1
sS'outcome'
p5076
I1
sS'mates'
p5077
I1
sS'pastime'
p5078
I1
sS"iraq's"
p5079
I2
sS'prosperity'
p5080
I2
sS'twomillion'
p5081
I1
sS'permawar'
p5082
I1
sS'mourners'
p5083
I1
sS'ideas'
p5084
I2
sS'sciences'
p5085
I1
sS'emphasis'
p5086
I1
sS'strengths'
p5087
I1
sS'blunt'
p5088
I1
sS'commonplace'
p5089
I3
sS'indelible'
p5090
I1
sS'falls'
p5091
I4
sS'cleared'
p5092
I2
sS'considered'
p5093
I8
sS'adopt'
p5094
I3
sS'postkyoto'
p5095
I2
sS'senior'
p5096
I7
sS'saying8230'
p5097
I1
sS'forkum'
p5098
I1
sS'akilisi'
p5099
I1
sS'convoy'
p5100
I2
sS'cheap'
p5101
I4
sS'spaces'
p5102
I2
sS'matsuoka'
p5103
I1
sS'crime'
p5104
I8
sS'explicitly'
p5105
I1
sS'believing'
p5106
I1
sS'testtakers'
p5107
I1
sS'zealanders'
p5108
I4
sS'presbyterian'
p5109
I1
sS'africanamerican'
p5110
I1
sS'reinstitutionalized'
p5111
I1
sS'attacking'
p5112
I1
sS'savoury'
p5113
I1
sS'closure'
p5114
I2
sS'reveal'
p5115
I1
sS'regarding'
p5116
I2
sS'zimbabwe8217s'
p5117
I1
sS'nineteenfifties'
p5118
I1
sS'naked'
p5119
I3
sS'paper'
p5120
I6
sS'clowns'
p5121
I1
sS'predicted'
p5122
I3
sS'pants'
p5123
I1
sS'ignored'
p5124
I1
sS'violated'
p5125
I1
sS'replies'
p5126
I2
sS"newspapers'"
p5127
I1
sS'closures'
p5128
I1
sS'college'
p5129
I1
sS'parking'
p5130
I1
sS'overachievers'
p5131
I1
sS'surfaces'
p5132
I1
sS'mortgage'
p5133
I1
sS'farmers'
p5134
I1
sS'federal'
p5135
I6
sS'review'
p5136
I2
sS'commitments'
p5137
I1
sS'weapons'
p5138
I19
sS'outside'
p5139
I10
sS'invokes'
p5140
I1
sS'sirens'
p5141
I1
sS'originated'
p5142
I2
sS'uptodate'
p5143
I1
sS'sacked'
p5144
I1
sS'cities'
p5145
I2
sS'reaction'
p5146
I3
sS'libya'
p5147
I1
sS'ryanair'
p5148
I1
sS'region'
p5149
I2
sS'cafes'
p5150
I1
sS'senator'
p5151
I1
sS'deported'
p5152
I2
sS'pakistan'
p5153
I1
sS'eightpoint'
p5154
I1
sS'provocation'
p5155
I1
sS'period'
p5156
I5
sS'insist'
p5157
I5
sS'guesses'
p5158
I1
sS'lepolo'
p5159
I1
sS'hrefu003dhttpnzheraldconz'
p5160
I1
sS'howard'
p5161
I10
sS'succesful'
p5162
I1
sS'peaceful'
p5163
I4
sS'helicopter'
p5164
I1
sS'confessions'
p5165
I3
sS'hardly'
p5166
I7
sS"clark's"
p5167
I1
sS'direction'
p5168
I3
sS'indirect'
p5169
I1
sS'andrei'
p5170
I1
sS'minister'
p5171
I18
sS'careful'
p5172
I1
sS'paying'
p5173
I3
sS'myself'
p5174
I1
sS'mount'
p5175
I1
sS'embodying'
p5176
I1
sS'hasbro'
p5177
I1
sS'shops'
p5178
I6
sS'colleague'
p5179
I3
sS'alsadr'
p5180
I1
sS'codiscoverer'
p5181
I1
sS'italoamericans'
p5182
I1
sS'author'
p5183
I3
sS'postwar'
p5184
I2
sS'locking'
p5185
I2
sS'chuckling'
p5186
I1
sS'shifts'
p5187
I1
sS'china8217s'
p5188
I1
sS'events'
p5189
I2
sS'status'
p5190
I3
sS'persona'
p5191
I4
sS'attorneygeneral'
p5192
I1
sS'director'
p5193
I1
sS'persons'
p5194
I1
sS'vowel'
p5195
I1
sS'footprint'
p5196
I2
sS'changing'
p5197
I2
sS'cartoon'
p5198
I2
sS'vowed'
p5199
I1
sS'perennial'
p5200
I1
sS'sixtenths'
p5201
I1
sS'longserving'
p5202
I1
sS'without'
p5203
I15
sS'relief'
p5204
I2
sS'components'
p5205
I1
sS'relied'
p5206
I1
sS'inability'
p5207
I1
sS'model'
p5208
I2
sS'reward'
p5209
I4
sS'researchers'
p5210
I2
sS'justify'
p5211
I2
sS'actions'
p5212
I5
sS'risking'
p5213
I2
sS'violent'
p5214
I5
sS'cease'
p5215
I1
sS'harrison'
p5216
I6
sS'polish'
p5217
I1
sS'junta'
p5218
I1
sS'captured'
p5219
I1
sS"we've"
p5220
I2
sS'seems'
p5221
I20
sS'except'
p5222
I4
sS'disrupt'
p5223
I1
sS'styles'
p5224
I1
sS'rushmore'
p5225
I1
sS'virginia'
p5226
I1
sS'anticommunist'
p5227
I2
sS'inflation'
p5228
I9
sS'schedules'
p5229
I1
sS'accepted'
p5230
I2
sS'furniture'
p5231
I3
sS'standstill'
p5232
I1
sS'karaganov'
p5233
I1
sS'sanity'
p5234
I1
sS'tower'
p5235
I1
sS'reduced'
p5236
I2
sS"iran's"
p5237
I2
sS'tribesmen'
p5238
I2
sS'madrid'
p5239
I1
sS'cleric'
p5240
I1
sS'competition'
p5241
I1
sS'perspiration'
p5242
I1
sS'endnotes'
p5243
I1
sS'respect'
p5244
I2
sS'developmental'
p5245
I1
sS'freer'
p5246
I1
sS'divvy'
p5247
I1
sS'legal'
p5248
I7
sS'provides'
p5249
I4
sS'severed'
p5250
I1
sS'nudist'
p5251
I1
sS'multiculturists'
p5252
I1
sS'terrified'
p5253
I1
sS'trivialize'
p5254
I1
sS'reprisals'
p5255
I2
sS'terrorizingmy'
p5256
I1
sS'paralysis'
p5257
I1
sS'stand'
p5258
I4
sS'tribe'
p5259
I4
sS'ladies'
p5260
I1
sS'cambridge'
p5261
I1
sS'communication'
p5262
I1
sS'revolutionaries'
p5263
I2
sS'augustus'
p5264
I1
sS'rising'
p5265
I4
sS'determine'
p5266
I2
sS'feudal'
p5267
I1
sS'whales'
p5268
I2
sS"berlin's"
p5269
I1
sS'alleged'
p5270
I5
sS'racist'
p5271
I1
sS'cultures'
p5272
I7
sS'orgnaistaion'
p5273
I1
sS'vested'
p5274
I2
sS'macassans'
p5275
I2
sS'regard'
p5276
I1
sS'cabinet'
p5277
I1
sS'10yearold'
p5278
I1
sS'promote'
p5279
I2
sS'longer'
p5280
I7
sS'subcontractors'
p5281
I1
sS'extermination'
p5282
I1
sS'grasp'
p5283
I1
sS'strongly'
p5284
I2
sS'toilet'
p5285
I1
sS'taylor'
p5286
I1
sS'britain'
p5287
I16
sS'nukiller'
p5288
I1
sS'controlled'
p5289
I2
sS'bishop'
p5290
I2
sS'favona'
p5291
I1
sS"perth's"
p5292
I2
sS'dismayed'
p5293
I1
sS'deviation'
p5294
I2
sS'kiwiblogu003cbr'
p5295
I1
sS'conspiracies'
p5296
I2
sS'detainees'
p5297
I5
sS'symbol'
p5298
I1
sS'includes'
p5299
I3
sS'flower'
p5300
I1
sS'included'
p5301
I3
sS'bilateral'
p5302
I3
sS'calls'
p5303
I3
sS'qantas'
p5304
I5
sS'curve'
p5305
I2
sS'gumnuts'
p5306
I1
sS'i8217ll'
p5307
I2
sS'missouri'
p5308
I1
sS'numbing'
p5309
I1
sS'namesakes'
p5310
I1
sS'chinese'
p5311
I13
sS'irrate'
p5312
I1
sS'eschewed'
p5313
I1
sS'kidseven'
p5314
I1
sS'follow'
p5315
I7
sS'decisions'
p5316
I1
sS'subjected'
p5317
I1
sS'diplomacy'
p5318
I1
sS'thursday'
p5319
I2
sS'removal'
p5320
I1
sS'program'
p5321
I5
sS'lawmakers'
p5322
I1
sS'immutable'
p5323
I1
sS'activities'
p5324
I2
sS'belonging'
p5325
I1
sS'woman'
p5326
I3
sS'worse'
p5327
I6
sS'egyptian'
p5328
I1
sS'psychologist'
p5329
I2
sS'worst'
p5330
I3
sS'awful'
p5331
I1
sS'undone'
p5332
I1
sS'lesbians'
p5333
I2
sS'clincher'
p5334
I1
sS'programme'
p5335
I3
sS'escalation'
p5336
I2
sS'77page'
p5337
I1
sS'functioning'
p5338
I2
sS'ethnonationalists'
p5339
I2
sS'brief'
p5340
I2
sS'version'
p5341
I9
sS'instilling'
p5342
I1
sS'scowling'
p5343
I1
sS'christian'
p5344
I5
sS'supposedly'
p5345
I3
sS'behaviour'
p5346
I1
sS'drudgery'
p5347
I1
sS'andrews'
p5348
I1
sS'hightech'
p5349
I1
sS'tragedy'
p5350
I2
sS'pleasant'
p5351
I1
sS'naval'
p5352
I1
sS'difficulty'
p5353
I1
sS'identifiable'
p5354
I1
sS'options'
p5355
I2
sS'thankfully'
p5356
I2
sS'suddenly'
p5357
I3
sS'1820s'
p5358
I1
sS'texts'
p5359
I1
sS'objectivists8217'
p5360
I1
sS'wield'
p5361
I1
sS'sequestered'
p5362
I2
sS'shits'
p5363
I1
sS'branded'
p5364
I1
sS'markets'
p5365
I3
sS'wretched'
p5366
I2
sS'twentyfour'
p5367
I1
sS'definition'
p5368
I1
sS'operators'
p5369
I1
sS'signlanguage'
p5370
I1
sS'basically'
p5371
I1
sS'known'
p5372
I9
sS"veteran's"
p5373
I1
sS'b1191057'
p5374
I1
sS'presumed'
p5375
I2
sS'debates'
p5376
I1
sS'finland'
p5377
I1
sS'embarrassing'
p5378
I1
sS'challenging'
p5379
I1
sS'division'
p5380
I2
sS'libertarian'
p5381
I1
sS'influenced'
p5382
I1
sS'court'
p5383
I11
sS'rather'
p5384
I12
sS'breaking'
p5385
I1
sS'occasionally'
p5386
I1
sS'influences'
p5387
I1
sS'lowlevel'
p5388
I1
sS'explains'
p5389
I1
sS'mould'
p5390
I1
sS'sabine'
p5391
I1
sS'world8230'
p5392
I1
sS'reflect'
p5393
I2
sS'unsurprising'
p5394
I1
sS'emergencies'
p5395
I1
sS'short'
p5396
I6
sS'shady'
p5397
I1
sS'stasi'
p5398
I1
sS'groundless'
p5399
I1
sS'shore'
p5400
I2
sS'retaliate'
p5401
I1
sS'outrages'
p5402
I1
sS'abseil'
p5403
I1
sS'essence'
p5404
I1
sS"zealand's"
p5405
I3
sS'proverbial'
p5406
I1
sS'disabled'
p5407
I2
sS'outraged'
p5408
I1
sS'scientist'
p5409
I2
sS'darlington'
p5410
I1
sS'disagreed'
p5411
I1
sS'unleashing'
p5412
I1
sS'slipped'
p5413
I1
sS'environmentalist'
p5414
I1
sS'itzik'
p5415
I1
sS'olmsted'
p5416
I1
sS'ricardo'
p5417
I1
sS'clashes'
p5418
I1
sS'parts'
p5419
I1
sS'stephen'
p5420
I1
sS'negroid'
p5421
I2
sS'might'
p5422
I14
sS'waikeria'
p5423
I1
sS'return'
p5424
I9
sS'unusable'
p5425
I1
sS'framework'
p5426
I1
sS'party'
p5427
I16
sS'communities'
p5428
I1
sS'adventurous'
p5429
I1
sS'bigger'
p5430
I2
sS'regraded'
p5431
I1
sS'inherent'
p5432
I1
sS'generation'
p5433
I3
sS'expect'
p5434
I4
sS'inflict'
p5435
I2
sS'loops'
p5436
I1
sS'organised'
p5437
I1
sS'alcohol'
p5438
I2
sS'wondered'
p5439
I1
sS'adhere'
p5440
I1
sS'health'
p5441
I8
sS'shipment'
p5442
I1
sS'paradise'
p5443
I1
sS'congenial'
p5444
I1
sS'exodus'
p5445
I1
sS'friday'
p5446
I1
sS'organising'
p5447
I1
sS'teach'
p5448
I1
sS'bushes'
p5449
I4
sS'thread'
p5450
I2
sS"year's"
p5451
I1
sS'threat'
p5452
I12
sS'consequence'
p5453
I2
sS'throws'
p5454
I2
sS'upper'
p5455
I1
sS'radical'
p5456
I1
sS'sympathy'
p5457
I4
sS'plummet'
p5458
I1
sS'illustrating'
p5459
I1
sS'story'
p5460
I17
sS'impeccable'
p5461
I1
sS'script'
p5462
I1
sS'gourmet'
p5463
I1
sS'leading'
p5464
I6
sS'quada'
p5465
I1
sS'storm'
p5466
I4
sS'aristocracy'
p5467
I1
sS'recovered'
p5468
I2
sS'gleefully'
p5469
I1
sS'option'
p5470
I1
sS'hotel'
p5471
I1
sS'sarkozy'
p5472
I1
sS'optican'
p5473
I1
sS'luckily'
p5474
I1
sS'passersby'
p5475
I1
sS'all8230'
p5476
I1
sS'convinced'
p5477
I1
sS'double'
p5478
I1
sS'colin'
p5479
I1
sS'risks'
p5480
I1
sS'strengthen'
p5481
I1
sS'imports'
p5482
I2
sS'suspicious'
p5483
I1
sS'alike'
p5484
I1
sS'smallpox'
p5485
I3
sS'globally'
p5486
I1
sS'nights'
p5487
I1
sS'secretariat'
p5488
I1
sS'check'
p5489
I5
sS'chairman'
p5490
I1
sS'hominem'
p5491
I1
sS'hominen'
p5492
I1
sS'added'
p5493
I3
sS'electric'
p5494
I1
sS'warnings'
p5495
I1
sS'intervened'
p5496
I1
sS'measures'
p5497
I5
sS'reach'
p5498
I2
sS'credibity'
p5499
I1
sS'targetu003dblanknzheraldconzu003ca'
p5500
I1
sS'react'
p5501
I2
sS'cigarette'
p5502
I2
sS'enduring'
p5503
I1
sS'nothing'
p5504
I19
sS'seasons'
p5505
I1
sS'measured'
p5506
I1
sS'screenwriter'
p5507
I1
sS'achievement'
p5508
I2
sS'constitution'
p5509
I2
sS'mineral'
p5510
I2
sS'mobalise'
p5511
I1
sS'traditional'
p5512
I6
sS'institutions'
p5513
I3
sS'stones'
p5514
I1
sS'kosovo'
p5515
I1
sS'memorandum'
p5516
I3
sS'inflexible'
p5517
I1
sS'laments'
p5518
I1
sS'classificationsand'
p5519
I1
sS'deserts'
p5520
I1
sS'technologically'
p5521
I1
sS'rubles'
p5522
I1
sS'unilaterally'
p5523
I1
sS'sacking'
p5524
I2
sS'founding'
p5525
I2
sS'gains'
p5526
I3
sS'invoke'
p5527
I1
sS'compiled'
p5528
I1
sS'revered'
p5529
I1
sS'suchandsuch'
p5530
I1
sS'emails'
p5531
I1
sS"'taste'"
p5532
I1
sS'investigate'
p5533
I1
sS'activity'
p5534
I1
sS'wrote'
p5535
I6
sS'achieved'
p5536
I1
sS'intelligence'
p5537
I17
sS'defense'
p5538
I5
sS'antipolice'
p5539
I1
sS'declined'
p5540
I1
sS'comfortfrom'
p5541
I1
sS'learnt'
p5542
I1
sS'unions'
p5543
I8
sS'various'
p5544
I3
sS'numerous'
p5545
I2
sS'corruption'
p5546
I3
sS'obscenities'
p5547
I1
sS'scullin'
p5548
I1
sS'genes'
p5549
I2
sS'recently'
p5550
I15
sS'creating'
p5551
I1
sS'initially'
p5552
I1
sS'attention'
p5553
I7
sS'outfit'
p5554
I1
sS'opposition'
p5555
I8
sS'competent'
p5556
I2
sS'relying'
p5557
I1
sS'neocons'
p5558
I1
sS'prescription'
p5559
I1
sS'roman'
p5560
I1
sS'became'
p5561
I5
sS'context'
p5562
I2
sS'reassessed'
p5563
I1
sS'sauntering'
p5564
I1
sS'regulates'
p5565
I1
sS'distress'
p5566
I1
sS'reasons'
p5567
I7
sS'sweet'
p5568
I1
sS'harbour'
p5569
I1
sS'village'
p5570
I4
sS'externality'
p5571
I1
sS'decline'
p5572
I3
sS'incomes'
p5573
I1
sS'political'
p5574
I20
sS'strategy'
p5575
I3
sS'mugabe'
p5576
I9
sS'borjas'
p5577
I1
sS'1950s'
p5578
I1
sS'transferring'
p5579
I1
sS'precision'
p5580
I1
sS'demand'
p5581
I8
sS'they8217re'
p5582
I1
sS'plants'
p5583
I4
sS'georgia'
p5584
I1
sS'conception'
p5585
I1
sS'shove'
p5586
I1
sS'frozen'
p5587
I1
sS'behavior'
p5588
I1
sS'disappointing'
p5589
I1
sS'obstacle'
p5590
I1
sS'ethnicity'
p5591
I1
sS'lengthy'
p5592
I2
sS'guennadi'
p5593
I1
sS'shirt'
p5594
I1
sS'lengths'
p5595
I1
sS'propping'
p5596
I1
sS'widely'
p5597
I1
sS'peoples'
p5598
I1
sS'higher'
p5599
I13
sS'negotiate'
p5600
I1
sS'holidays'
p5601
I1
sS'objectivityteaching'
p5602
I1
sS'arrived'
p5603
I5
sS'contractors'
p5604
I1
sS'robust'
p5605
I1
sS'lower'
p5606
I5
sS'depending'
p5607
I1
sS'analysis'
p5608
I7
sS'machinery'
p5609
I1
sS'stating'
p5610
I1
sS'abilities'
p5611
I1
sS'httpdiggcomsubmitphase2url'
p5612
I1
sS'competitive'
p5613
I2
sS'questions'
p5614
I12
sS'objectivists'
p5615
I1
sS'retired'
p5616
I3
sS'scabs'
p5617
I1
sS'prince'
p5618
I1
sS'profitable'
p5619
I1
sS'thinktank'
p5620
I1
sS'advisers'
p5621
I2
sS'workers'
p5622
I17
sS'exclusively'
p5623
I1
sS'contractor'
p5624
I1
sS'leftliberal'
p5625
I2
sS'violations'
p5626
I1
sS'customers'
p5627
I1
sS'complains'
p5628
I1
sS'communityu003cbr'
p5629
I1
sS'discriminatory'
p5630
I1
sS"stewart's"
p5631
I2
sS'rotate'
p5632
I1
sS'men8217'
p5633
I1
sS'confront'
p5634
I2
sS'capitals'
p5635
I1
sS'heart'
p5636
I3
sS'arthur'
p5637
I1
sS'certainties'
p5638
I1
sS'streaming'
p5639
I1
sS'gradually'
p5640
I2
sS'innovation'
p5641
I1
sS'gleneagles'
p5642
I3
sS'refused'
p5643
I5
sS'sexism'
p5644
I1
sS'cannons'
p5645
I1
sS'intense'
p5646
I4
sS'asserting'
p5647
I1
sS'ordeal'
p5648
I1
sS'range'
p5649
I2
sS'militia'
p5650
I3
sS'credible'
p5651
I2
sS'cutoff'
p5652
I1
sS'johns'
p5653
I1
sS'not8221'
p5654
I1
sS"'slavery'"
p5655
I2
sS'stench'
p5656
I1
sS'misinforming'
p5657
I1
sS'question'
p5658
I11
sS"we're"
p5659
I2
sS'caborn'
p5660
I4
sS'sections'
p5661
I1
sS'oilseeds'
p5662
I1
sS'files'
p5663
I1
sS'airconditioners'
p5664
I1
sS'filed'
p5665
I1
sS'raising'
p5666
I2
sS'consist'
p5667
I1
sS"hasn't"
p5668
I2
sS'childrenand'
p5669
I2
sS'highlight'
p5670
I2
sS'called'
p5671
I21
sS'humanitarian'
p5672
I1
sS'freak'
p5673
I1
sS'commissioner'
p5674
I6
sS'warning'
p5675
I5
sS'rally'
p5676
I1
sS'graham'
p5677
I1
sS'overseeing'
p5678
I2
sS'backs'
p5679
I1
sS'democratically'
p5680
I1
sS'unjustifiable'
p5681
I1
sS'problems'
p5682
I6
sS'breasts'
p5683
I1
sS'wickets'
p5684
I1
sS'replace'
p5685
I3
sS'generated'
p5686
I1
sS'allowing'
p5687
I2
sS'dragged'
p5688
I1
sS'teacherperhaps'
p5689
I1
sS'broad'
p5690
I2
sS'buffalo'
p5691
I1
sS'httpwwwstuffconz4318906a6016html'
p5692
I1
sS'issued'
p5693
I4
sS'resistance'
p5694
I1
sS'steve'
p5695
I3
sS'windy'
p5696
I1
sS'contributions'
p5697
I2
sS'issues'
p5698
I4
sS'theorist'
p5699
I2
sS'simon'
p5700
I1
sS'exterminate'
p5701
I1
sS'languages'
p5702
I1
sS'concomitantly'
p5703
I1
sS'breach'
p5704
I1
sS'include'
p5705
I4
sS'dramatically'
p5706
I4
sS'mainstream'
p5707
I1
sS'uturn'
p5708
I1
sS"isn'tnbsp"
p5709
I1
sS'drinking'
p5710
I2
sS'gullible'
p5711
I1
sS'polling'
p5712
I1
sS'alltime'
p5713
I1
sS'settlers'
p5714
I3
sS'noted'
p5715
I3
sS'concluded'
p5716
I2
sS'slithy'
p5717
I1
sS'smaller'
p5718
I2
sS'traveling'
p5719
I1
sS'concludes'
p5720
I2
sS'keynesianism'
p5721
I1
sS'makers'
p5722
I2
sS'welleducated'
p5723
I1
sS'individualist'
p5724
I1
sS"man's"
p5725
I3
sS'capital'
p5726
I2
sS'alqaeda'
p5727
I4
sS'ammunition'
p5728
I1
sS'treepatrol'
p5729
I1
sS'chose'
p5730
I3
sS'degree'
p5731
I2
sS'pushing'
p5732
I2
sS'tarred'
p5733
I1
sS'separation'
p5734
I1
sS'ukraine'
p5735
I1
sS'larger'
p5736
I3
sS'shades'
p5737
I1
sS'leaving'
p5738
I1
sS'suggests'
p5739
I4
sS'simpleton'
p5740
I1
sS'relation'
p5741
I1
sS'antwerpen'
p5742
I3
sS'egypt'
p5743
I4
sS'apply'
p5744
I1
sS'consumption'
p5745
I2
sS'modicum'
p5746
I1
sS'timetable'
p5747
I2
sS'possession'
p5748
I3
sS'parliament'
p5749
I13
sS'journalists'
p5750
I2
sS'soldierwhich'
p5751
I1
sS'women'
p5752
I6
sS'topic'
p5753
I2
sS'stabilized'
p5754
I1
sS'disingenuous'
p5755
I1
sS'augment'
p5756
I1
sS'midterm'
p5757
I1
sS'chappy'
p5758
I1
sS'getting'
p5759
I11
sS'anywhere'
p5760
I1
sS'proof'
p5761
I1
sS'distractions'
p5762
I1
sS'indulgence'
p5763
I1
sS'spying'
p5764
I1
sS'tzars'
p5765
I1
sS'ivwith'
p5766
I1
sS'impeded'
p5767
I1
sS'summers'
p5768
I3
sS'united'
p5769
I22
sS'handover'
p5770
I1
sS'embarrassingly'
p5771
I1
sS'unites'
p5772
I2
sS'instead'
p5773
I9
sS'struggled'
p5774
I1
sS'panic'
p5775
I1
sS'secular'
p5776
I1
sS'attend'
p5777
I4
sS'abuse'
p5778
I4
sS'wrist'
p5779
I1
sS'ethnic'
p5780
I2
sS'hahahaha'
p5781
I1
sS'psychedelic'
p5782
I1
sS'highlands'
p5783
I1
sS'light'
p5784
I2
sS'prodemocracy'
p5785
I2
sS'crawling'
p5786
I1
sS'martini'
p5787
I1
sS'tropics'
p5788
I1
sS"terrorism's"
p5789
I1
sS'whilst'
p5790
I5
sS'looks'
p5791
I6
sS'unchecked'
p5792
I3
sS'anonymously'
p5793
I1
sS'ships'
p5794
I5
sS'blogging'
p5795
I2
sS'permanent'
p5796
I3
sS'orange'
p5797
I2
sS'covered'
p5798
I1
sS'holiday'
p5799
I2
sS'defining'
p5800
I1
sS'russianchinese'
p5801
I1
sS'crash'
p5802
I1
sS'orthodox'
p5803
I1
sS'democracymuzzling'
p5804
I1
sS'practice'
p5805
I6
sS'ferguson'
p5806
I1
sS'1700s'
p5807
I1
sS'successor'
p5808
I1
sS'worlds'
p5809
I2
sS'subcontinent'
p5810
I1
sS'mwanawasa'
p5811
I1
sS'rockets'
p5812
I3
sS'bills'
p5813
I1
sS'lilac'
p5814
I2
sS'related'
p5815
I4
sS'doubled'
p5816
I3
sS'firepower'
p5817
I1
sS'ambassadors'
p5818
I1
sS'category'
p5819
I3
sS'respects'
p5820
I1
sS'shouldbe'
p5821
I1
sS'chaos'
p5822
I2
sS'httpwwwstuffconz4318917a6016html'
p5823
I1
sS'honorable'
p5824
I1
sS'supports'
p5825
I1
sS'averted'
p5826
I2
sS'19451975'
p5827
I1
sS'philip'
p5828
I1
sS'stupidity'
p5829
I1
sS'drinkingrelated'
p5830
I1
sS'conversation'
p5831
I1
sS'traditionalists'
p5832
I1
sS'hence'
p5833
I1
sS'footnotes'
p5834
I1
sS'restaurants'
p5835
I1
sS'plainly'
p5836
I2
sS'noticed'
p5837
I2
sS'heroes'
p5838
I4
sS'endemic'
p5839
I2
sS'publication'
p5840
I2
sS'uniting'
p5841
I1
sS'unknown'
p5842
I2
sS'myspace'
p5843
I1
sS'priority'
p5844
I4
sS'dismantled'
p5845
I1
sS'shelf'
p5846
I1
sS'reversed'
p5847
I1
sS'debate'
p5848
I8
sS'slides'
p5849
I1
sS'regards'
p5850
I1
sS'tacitly'
p5851
I1
sS'ciggies'
p5852
I1
sS'institution'
p5853
I5
sS'bashed'
p5854
I1
sS'holland'
p5855
I1
sS"korea's"
p5856
I1
sS'patients'
p5857
I1
sS'austriahungary'
p5858
I1
sS'teenagers'
p5859
I1
sS'nouri'
p5860
I1
sS'linked'
p5861
I1
sS'catholic'
p5862
I1
sS'afraid'
p5863
I4
sS'angle'
p5864
I1
sS'russians'
p5865
I2
sS'agency'
p5866
I3
sS'sevele'
p5867
I1
sS'anglo'
p5868
I2
sS'trivia'
p5869
I2
sS'25000'
p5870
I1
sS'centre'
p5871
I7
sS'petrol'
p5872
I1
sS'collaboration'
p5873
I1
sS"eurozone's"
p5874
I1
sS'cracking'
p5875
I1
sS'class'
p5876
I6
sS'discourage'
p5877
I1
sS'neoconservative'
p5878
I1
sS'questioned'
p5879
I1
sS'looked'
p5880
I6
sS'ensued'
p5881
I1
sS'tariq'
p5882
I1
sS'chances'
p5883
I1
sS'please'
p5884
I8
sS'agreed'
p5885
I6
sS'purely'
p5886
I3
sS'planning'
p5887
I7
sS'nbspthe'
p5888
I1
sS'utter'
p5889
I1
sS'pleased'
p5890
I1
sS"generation'"
p5891
I1
sS"troops'"
p5892
I1
sS'local'
p5893
I13
sS'topple'
p5894
I1
sS'watching'
p5895
I1
sS'goosebumps'
p5896
I1
sS'massacre'
p5897
I2
sS'words'
p5898
I3
sS'brain'
p5899
I3
sS'married'
p5900
I1
sS'infesting'
p5901
I1
sS'reviwing'
p5902
I1
sS'generations'
p5903
I2
sS'knowing'
p5904
I2
sS'requirement'
p5905
I1
sS'humiliation'
p5906
I1
sS'seasonsprevious'
p5907
I1
sS'merits'
p5908
I3
sS'buzzed'
p5909
I1
sS'closer'
p5910
I2
sS'superb'
p5911
I1
sS'closed'
p5912
I2
sS'crude'
p5913
I3
sS'objectivistwebforum'
p5914
I1
sS'bought'
p5915
I2
sS'publishers'
p5916
I1
sS'ability'
p5917
I5
sS'opening'
p5918
I1
sS'agencies'
p5919
I2
sS'embarrassment'
p5920
I2
sS'postponement'
p5921
I1
sS'declining'
p5922
I1
sS'piece'
p5923
I10
sS'personalityobsession'
p5924
I1
sS'epidemics'
p5925
I1
sS'april'
p5926
I5
sS'grounds'
p5927
I1
sS'unclear'
p5928
I1
sS'environments'
p5929
I2
sS"africa's"
p5930
I1
sS'subscribe'
p5931
I3
sS'table'
p5932
I1
sS'provinces'
p5933
I1
sS'decent'
p5934
I1
sS'growth'
p5935
I11
sS'prodos'
p5936
I2
sS'sufficient'
p5937
I2
sS'1780s'
p5938
I1
sS'ensuring'
p5939
I1
sS'httpwwwstuffconz4319132a11html'
p5940
I1
sS'present'
p5941
I5
sS'germanborn'
p5942
I1
sS"israeli's"
p5943
I1
sS'centreleft'
p5944
I4
sS'abandoned'
p5945
I2
sS'unlike'
p5946
I3
sS'fearful'
p5947
I1
sS'stunning'
p5948
I1
sS"'objective'"
p5949
I1
sS'decolonization'
p5950
I1
sS'ringing'
p5951
I1
sS'unworkable'
p5952
I1
sS'perhaps'
p5953
I5
sS'sixmonth'
p5954
I1
sS'cross'
p5955
I1
sS'unite'
p5956
I1
sS'member'
p5957
I8
sS'adverse'
p5958
I1
sS'largest'
p5959
I2
sS'units'
p5960
I3
sS'difficult'
p5961
I6
sS'elbows'
p5962
I3
sS'slave'
p5963
I8
sS'disagree'
p5964
I1
sS'overcrowded'
p5965
I1
sS'lobby'
p5966
I1
sS'warming'
p5967
I6
sS'fiveminute'
p5968
I1
sS'correspondent'
p5969
I3
sS'realises'
p5970
I1
sS'approve'
p5971
I2
sS'fighting'
p5972
I5
sS'utrecht'
p5973
I1
sS'english'
p5974
I2
sS'undertaken'
p5975
I1
sS'rocket'
p5976
I2
sS'heavily'
p5977
I6
sS'tendering'
p5978
I1
sS'cattlebeasts'
p5979
I1
sS'untested'
p5980
I1
sS'antisemitism'
p5981
I1
sS'happiness'
p5982
I1
sS'danced'
p5983
I1
sS'ch8217engshih'
p5984
I1
sS'harare'
p5985
I1
sS'supply'
p5986
I3
sS'smith'
p5987
I3
sS'adoption'
p5988
I2
sS'attractive'
p5989
I1
sS'smart'
p5990
I1
sS'unprecedented'
p5991
I2
sS'enact'
p5992
I1
sS'identical'
p5993
I1
sS'protesters'
p5994
I1
sS'facial'
p5995
I1
sS'press'
p5996
I12
sS'variants'
p5997
I1
sS'helpful'
p5998
I1
sS'wonders'
p5999
I1
sS'because'
p6000
I51
sS'scared'
p6001
I1
sS'church'
p6002
I4
sS'socialists'
p6003
I4
sS'wouldbe'
p6004
I2
sS'export'
p6005
I3
sS'empire'
p6006
I6
sS'employment'
p6007
I1
sS'philosopher'
p6008
I1
sS'liberia'
p6009
I1
sS'leader'
p6010
I9
sS'300000'
p6011
I1
sS'murderer'
p6012
I1
sS'siaosi'
p6013
I1
sS'merkelthe'
p6014
I1
sS'carried'
p6015
I1
sS"monkey's"
p6016
I1
sS'column'
p6017
I1
sS'mercantilist'
p6018
I2
sS'shipping'
p6019
I1
sS'sakes'
p6020
I1
sS'swear'
p6021
I1
sS'emperor'
p6022
I1
sS'unsustainable'
p6023
I1
sS'warrants'
p6024
I1
sS'weather'
p6025
I2
sS'promise'
p6026
I1
sS'brush'
p6027
I1
sS'fired'
p6028
I2
sS'hitting'
p6029
I2
sS'sabre'
p6030
I1
sS"another's"
p6031
I1
sS'transfer'
p6032
I1
sS'cinderella'
p6033
I3
sS'intention'
p6034
I2
sS'resists'
p6035
I1
sS'funds'
p6036
I1
sS'mutter'
p6037
I1
sS'whether'
p6038
I7
sS'protesting'
p6039
I4
sS'distract'
p6040
I1
sS'record'
p6041
I5
sS'below'
p6042
I9
sS'ruling'
p6043
I2
sS'infants'
p6044
I1
sS'horrific'
p6045
I1
sS'meaningless'
p6046
I2
sS'fertilizers'
p6047
I1
sS'neoconservatives'
p6048
I1
sS'diplomat'
p6049
I3
sS'deporting'
p6050
I1
sS'incredible'
p6051
I3
sS'percent'
p6052
I4
sS'other'
p6053
I44
sS'incredibly'
p6054
I3
sS'conclusion'
p6055
I2
sS'chavez'
p6056
I3
sS'kinds'
p6057
I1
sS'inherently'
p6058
I1
sS'risked'
p6059
I1
sS'habash'
p6060
I2
sS'ranks'
p6061
I1
sS'urals'
p6062
I1
sS'kiwiblogh'
p6063
I1
sS"britain's"
p6064
I2
sS'volumes'
p6065
I1
sS'ideological'
p6066
I6
sS'tomoe'
p6067
I1
sS'furthermore'
p6068
I1
s.