(dp1
S'secondly'
p2
I3
sS'todays'
p3
I1
sS'limited'
p4
I4
sS'interference'
p5
I1
sS'noffke'
p6
I1
sS'locations'
p7
I1
sS'voluneeir'
p8
I1
sS'yellow'
p9
I3
sS'protest'
p10
I3
sS'sleep'
p11
I1
sS'spiders'
p12
I1
sS'perverted'
p13
I2
sS'prolonged'
p14
I1
sS'garters'
p15
I1
sS'oldest'
p16
I1
sS'saved'
p17
I1
sS'collarlength'
p18
I1
sS'tomorrows'
p19
I1
sS'relationships'
p20
I1
sS'increase'
p21
I6
sS'votes'
p22
I2
sS'voter'
p23
I1
sS'buddy'
p24
I1
sS'paris'
p25
I4
sS'tizard'
p26
I3
sS'equiticorp'
p27
I2
sS'actsfind'
p28
I1
sS"brown's"
p29
I1
sS'neighbours'
p30
I2
sS'edward'
p31
I1
sS'voted'
p32
I6
sS'whatsoever'
p33
I1
sS'excused'
p34
I1
sS'recycle'
p35
I1
sS'teaching'
p36
I1
sS'sorry'
p37
I1
sS'flicking'
p38
I1
sS'singlehandledly'
p39
I1
sS'worth'
p40
I6
sS'supreme'
p41
I1
sS"shouldn't"
p42
I1
sS'alternating'
p43
I1
sS'avril'
p44
I1
sS'cenotaph'
p45
I1
sS'rescue'
p46
I1
sS'defuse'
p47
I2
sS'feminist'
p48
I1
sS'blanket'
p49
I1
sS'regional'
p50
I7
sS'subsumptive'
p51
I1
sS'connects'
p52
I1
sS'limiting'
p53
I1
sS'eugenics'
p54
I1
sS'covert'
p55
I1
sS'entitlements'
p56
I1
sS'fantastically'
p57
I1
sS'every'
p58
I15
sS'papacy'
p59
I1
sS'resurrected'
p60
I1
sS'govern'
p61
I1
sS'jacob'
p62
I1
sS'affect'
p63
I1
sS'stabbed'
p64
I3
sS'bringing'
p65
I1
sS"isn't"
p66
I17
sS'valuejudgements'
p67
I1
sS"we'll"
p68
I7
sS'prize'
p69
I3
sS'called'
p70
I15
sS'skills'
p71
I2
sS'supports'
p72
I1
sS'withers'
p73
I1
sS'companies'
p74
I4
sS'wednesday'
p75
I2
sS'ruakaka'
p76
I1
sS'vector'
p77
I1
sS'delegate'
p78
I1
sS'calendar'
p79
I3
sS'settlement'
p80
I1
sS'quaking'
p81
I1
sS'shows'
p82
I6
sS'fairfax'
p83
I1
sS'straight'
p84
I3
sS'poisoners'
p85
I3
sS'redundent'
p86
I1
sS'ahipenemercer'
p87
I1
sS'tonbspsee'
p88
I1
sS'goiung'
p89
I1
sS'force'
p90
I5
sS'specially'
p91
I1
sS'nygllhuw'
p92
I1
sS'tired'
p93
I1
sS'consistent'
p94
I2
sS'invariably'
p95
I1
sS'japanese'
p96
I1
sS'bubbled'
p97
I1
sS'elections'
p98
I13
sS'feasibility'
p99
I1
sS'talks'
p100
I1
sS'second'
p101
I6
sS'persuade'
p102
I1
sS'charted'
p103
I2
sS'coveted'
p104
I1
sS'implemented'
p105
I2
sS'warne'
p106
I1
sS'machines'
p107
I2
sS'approached'
p108
I1
sS'established'
p109
I2
sS'minto'
p110
I2
sS'errors'
p111
I2
sS'guilty'
p112
I3
sS'forgetting'
p113
I1
sS'worsen'
p114
I1
sS'irrevocably'
p115
I1
sS'beaten'
p116
I2
sS'liberty'
p117
I4
sS'children'
p118
I24
sS'spokesman'
p119
I4
sS"keita's"
p120
I1
sS'sexuality'
p121
I1
sS'above'
p122
I9
sS'24122002'
p123
I1
sS'ugliest'
p124
I1
sS'increasing'
p125
I1
sS'cheeseburgers'
p126
I1
sS'counters'
p127
I4
sS'merchant'
p128
I1
sS'crunch'
p129
I1
sS"dan's"
p130
I1
sS'impartial'
p131
I1
sS'philippa'
p132
I4
sS'reporter'
p133
I1
sS"york's"
p134
I1
sS'human'
p135
I1
sS'never'
p136
I21
sS'goorge'
p137
I1
sS'richest'
p138
I1
sS'hundreds'
p139
I1
sS'reported'
p140
I7
sS'protection'
p141
I4
sS'pursuit'
p142
I2
sS"through'"
p143
I1
sS'personified'
p144
I1
sS'active'
p145
I5
sS'parenting'
p146
I1
sS'rebuke'
p147
I1
sS'cardboard'
p148
I1
sS'who8217s'
p149
I1
sS'growing'
p150
I6
sS'celebration'
p151
I2
sS'doldrums'
p152
I1
sS'265000'
p153
I1
sS'cyclical'
p154
I1
sS'substance'
p155
I1
sS'daughter'
p156
I1
sS'predawn'
p157
I1
sS'forum'
p158
I1
sS'rests'
p159
I1
sS'items'
p160
I1
sS'study'
p161
I3
sS'climbed'
p162
I2
sS'approaches'
p163
I1
sS'reports'
p164
I5
sS'controversy'
p165
I1
sS'town8221'
p166
I1
sS'chilling'
p167
I1
sS'smoke'
p168
I2
sS'satyananad'
p169
I1
sS'military'
p170
I4
sS'mistake'
p171
I1
sS'settled'
p172
I1
sS'businessasusual'
p173
I1
sS'fitting'
p174
I1
sS'criticism'
p175
I4
sS'golden'
p176
I3
sS'baptiste'
p177
I1
sS'hairdressers'
p178
I1
sS'secure'
p179
I1
sS'magically'
p180
I1
sS'criticise'
p181
I1
sS'search'
p182
I5
sS'julie'
p183
I3
sS'schooling'
p184
I1
sS'replace'
p185
I1
sS'psychological'
p186
I1
sS'ninety'
p187
I1
sS'moral'
p188
I6
sS'guests'
p189
I2
sS'drowned'
p190
I1
sS"north's"
p191
I1
sS'sprinted'
p192
I1
sS'counts'
p193
I1
sS'total'
p194
I2
sS"tribes'"
p195
I1
sS'tertiary'
p196
I4
sS'opponents'
p197
I3
sS'sarah'
p198
I1
sS'sexual'
p199
I2
sS'criminals'
p200
I1
sS'spoke'
p201
I1
sS'would'
p202
I74
sS'antoinette'
p203
I1
sS'keith'
p204
I2
sS'hospital'
p205
I3
sS'impartiality'
p206
I1
sS"world's"
p207
I2
sS'accommodation'
p208
I1
sS'occupying'
p209
I1
sS'music'
p210
I1
sS'therefore'
p211
I6
sS'passport'
p212
I1
sS'recommend'
p213
I1
sS'societys'
p214
I1
sS'assessment'
p215
I1
sS'until'
p216
I11
sS'fulfilling'
p217
I1
sS'folole'
p218
I2
sS'females'
p219
I2
sS'supporters'
p220
I6
sS'brings'
p221
I2
sS'naive'
p222
I1
sS'under'
p223
I26
sS'feared'
p224
I3
sS'comrade'
p225
I1
sS'award'
p226
I6
sS'aware'
p227
I3
sS'meteorologist'
p228
I1
sS'phone'
p229
I1
sS'gunmetal'
p230
I1
sS'excellent'
p231
I2
sS'continual'
p232
I1
sS'radical'
p233
I1
sS'aligned'
p234
I1
sS'casualties'
p235
I1
sS'blocking'
p236
I1
sS'mountains'
p237
I1
sS'circumstances'
p238
I3
sS'worst'
p239
I1
sS'baggy'
p240
I1
sS'morally'
p241
I4
sS'locked'
p242
I3
sS'divorced'
p243
I1
sS'rights'
p244
I10
sS'raoni'
p245
I3
sS'income'
p246
I7
sS'advocacy'
p247
I1
sS'theories'
p248
I1
sS'repairing'
p249
I1
sS'platform'
p250
I3
sS'itself'
p251
I7
sS'exploitative'
p252
I1
sS'nicki'
p253
I1
sS'alleged'
p254
I5
sS'already'
p255
I9
sS'camry'
p256
I1
sS'example'
p257
I5
sS"muliaga's"
p258
I1
sS'misfortunes'
p259
I1
sS'defer'
p260
I2
sS'considerationsquot'
p261
I1
sS'destabilising'
p262
I1
sS'gordan'
p263
I1
sS'overlook'
p264
I1
sS'unjust'
p265
I1
sS'household'
p266
I1
sS'walkways'
p267
I1
sS'generically'
p268
I1
sS'involve'
p269
I1
sS'indicates'
p270
I1
sS'indies'
p271
I1
sS'fronting'
p272
I1
sS'davie'
p273
I2
sS'1135am'
p274
I1
sS'discuss'
p275
I3
sS'premium'
p276
I1
sS'honest'
p277
I1
sS"'submissive"
p278
I1
sS'absolute'
p279
I1
sS'provincial'
p280
I1
sS'saturday'
p281
I5
sS'prolife'
p282
I1
sS'farce'
p283
I1
sS"o'fee"
p284
I1
sS'complaining'
p285
I1
sS'detentionthe'
p286
I1
sS'travel'
p287
I1
sS'indirectly'
p288
I3
sS'pigsty'
p289
I1
sS'feature'
p290
I2
sS'stills'
p291
I1
sS'machine'
p292
I1
sS'necessary'
p293
I2
sS'flown'
p294
I1
sS'laidlaw'
p295
I1
sS'lawsvision'
p296
I1
sS'interview'
p297
I4
sS'place'
p298
I12
sS'ordinary'
p299
I1
sS'truthful'
p300
I1
sS'charging'
p301
I1
sS'pizza'
p302
I2
sS'flatmate'
p303
I1
sS'mcmurray'
p304
I3
sS'elizabeth'
p305
I1
sS'funny'
p306
I1
sS'replacing'
p307
I1
sS'anglosaxon'
p308
I1
sS'after'
p309
I42
sS'damaged'
p310
I1
sS'demanding'
p311
I1
sS'outlawed'
p312
I1
sS'hence'
p313
I3
sS'wrong'
p314
I11
sS'grows'
p315
I1
sS'coster'
p316
I1
sS'baggies'
p317
I1
sS'fracas'
p318
I1
sS'sentencing'
p319
I7
sS'president'
p320
I37
sS'grudgingly'
p321
I1
sS"women's"
p322
I4
sS'disagree'
p323
I3
sS'parallel'
p324
I1
sS'types'
p325
I2
sS'royce'
p326
I2
sS'danny'
p327
I1
sS'attempt'
p328
I5
sS'effective'
p329
I2
sS'helsinki'
p330
I2
sS'althoughclark'
p331
I1
sS'homeowners'
p332
I2
sS'appreciate'
p333
I1
sS'headquarters'
p334
I1
sS'greet'
p335
I1
sS'capitalism'
p336
I1
sS'winmaildat'
p337
I1
sS'cigarettes'
p338
I1
sS'accountants'
p339
I1
sS'green'
p340
I2
sS'rooftop'
p341
I1
sS'keeps'
p342
I2
sS'murdermystery'
p343
I1
sS'preventive'
p344
I1
sS'democratic'
p345
I2
sS'chatha'
p346
I2
sS'backdrop'
p347
I1
sS'waitai'
p348
I2
sS"coldplay's"
p349
I1
sS'restriction'
p350
I2
sS'proposing'
p351
I1
sS'interpretation'
p352
I2
sS'feedback'
p353
I1
sS'office'
p354
I25
sS'enter'
p355
I1
sS'consent'
p356
I1
sS'expects'
p357
I1
sS'murali'
p358
I1
sS'todds'
p359
I1
sS'awful'
p360
I2
sS'mallard'
p361
I3
sS'london'
p362
I4
sS'helene'
p363
I1
sS'banged'
p364
I1
sS'japan'
p365
I1
sS'disenfranchised'
p366
I1
sS'chronically'
p367
I1
sS'legally'
p368
I2
sS'mayor'
p369
I23
sS'before'
p370
I19
sS'scoring'
p371
I1
sS'unknown'
p372
I1
sS'govt3'
p373
I2
sS'clubs'
p374
I1
sS'hypocrisy'
p375
I1
sS'somewhere'
p376
I4
sS'rankings'
p377
I1
sS'striking'
p378
I1
sS"aucklanders'"
p379
I1
sS'christie'
p380
I2
sS'611000'
p381
I1
sS'courageous'
p382
I1
sS'better'
p383
I12
sS'damocles'
p384
I1
sS'physicist'
p385
I1
sS'entranced'
p386
I1
sS'thrown'
p387
I1
sS'carruthers'
p388
I1
sS'mewling'
p389
I1
sS'masterpet'
p390
I1
sS'stalemate'
p391
I1
sS'weeks'
p392
I4
sS'influentially'
p393
I1
sS'versus'
p394
I2
sS'tickets'
p395
I1
sS'coffee'
p396
I1
sS'poised'
p397
I1
sS'affected'
p398
I8
sS'unfortunate'
p399
I2
sS'combination'
p400
I1
sS'breastfed'
p401
I1
sS"report's"
p402
I1
sS'supporter'
p403
I3
sS'school'
p404
I5
sS'unionism'
p405
I1
sS'outstanding'
p406
I2
sS'break'
p407
I3
sS'academics'
p408
I1
sS'warrants'
p409
I2
sS'sentimental'
p410
I1
sS'drinking'
p411
I2
sS'mongering'
p412
I1
sS'indulge'
p413
I1
sS'schools'
p414
I6
sS'strategic'
p415
I1
sS'tourism'
p416
I1
sS'advise'
p417
I3
sS'coffey'
p418
I1
sS'represents'
p419
I2
sS'superintendents'
p420
I1
sS'delimiting'
p421
I2
sS'dictatorship'
p422
I1
sS'kiwiblog'
p423
I1
sS'usage'
p424
I1
sS'shadowy'
p425
I1
sS'classified'
p426
I1
sS'arrested'
p427
I6
sS'leading'
p428
I6
sS'worldclass'
p429
I1
sS'rocks'
p430
I1
sS'herald'
p431
I7
sS'leaned'
p432
I1
sS'profusely'
p433
I1
sS'userpays'
p434
I1
sS'24705'
p435
I1
sS'ducking'
p436
I1
sS'entitled'
p437
I2
sS'lasting'
p438
I1
sS'expectancy'
p439
I1
sS'lifted'
p440
I2
sS'financial'
p441
I5
sS'polkadotted'
p442
I1
sS'thetiger'
p443
I1
sS'independent'
p444
I2
sS'councils'
p445
I9
sS'series'
p446
I6
sS'crimes'
p447
I3
sS'doomed'
p448
I1
sS'allan'
p449
I3
sS'bowls'
p450
I1
sS'leadup'
p451
I2
sS'sears'
p452
I1
sS'enact'
p453
I1
sS'brisbane'
p454
I1
sS'fortnight'
p455
I1
sS'forgot'
p456
I3
sS'substantially'
p457
I1
sS'clauses'
p458
I1
sS'ratepayers'
p459
I4
sS'extract'
p460
I1
sS'sounds'
p461
I1
sS'hostel'
p462
I1
sS"goodwin's"
p463
I1
sS'whining'
p464
I1
sS'network'
p465
I3
sS'driving'
p466
I4
sS'anzac'
p467
I4
sS'restricted'
p468
I1
sS'views'
p469
I12
sS'cameras'
p470
I2
sS'crucial'
p471
I2
sS'include'
p472
I5
sS'vessels'
p473
I1
sS'george'
p474
I2
sS'content'
p475
I2
sS'encourage'
p476
I2
sS'daniel'
p477
I2
sS"matthew's"
p478
I1
sS'banning'
p479
I1
sS'leaves'
p480
I2
sS'added'
p481
I3
sS'unkempt'
p482
I1
sS'kiwis'
p483
I8
sS'millions'
p484
I2
sS'judith'
p485
I1
sS'disagreements'
p486
I1
sS'malinga'
p487
I1
sS'turning'
p488
I2
sS'hereora'
p489
I1
sS'endless'
p490
I1
sS"you're"
p491
I3
sS'threatened'
p492
I1
sS'revenge'
p493
I1
sS'managerial'
p494
I1
sS'admits'
p495
I4
sS'smacking'
p496
I3
sS'appointments'
p497
I4
sS'ancient'
p498
I3
sS'struggle'
p499
I2
sS'grapes'
p500
I1
sS'estimate'
p501
I1
sS'wanted'
p502
I7
sS'beholding'
p503
I1
sS'nonie'
p504
I1
sS'personalities'
p505
I1
sS'husbands'
p506
I1
sS'dammit'
p507
I1
sS'shaggy'
p508
I1
sS'created'
p509
I2
sS'40hour'
p510
I1
sS'pakuranga'
p511
I1
sS'wishbone'
p512
I2
sS'messages'
p513
I1
sS'flurry'
p514
I1
sS'heading'
p515
I2
sS'immigrants'
p516
I1
sS'courtordered'
p517
I1
sS'levels'
p518
I3
sS'speedy'
p519
I1
sS'whanganui'
p520
I1
sS"today's"
p521
I2
sS'1970s'
p522
I1
sS'corrections'
p523
I4
sS'arrived'
p524
I4
sS'clothes'
p525
I1
sS'refuges'
p526
I1
sS'clouding'
p527
I1
sS'societyquot'
p528
I1
sS'stewart'
p529
I1
sS'underweight'
p530
I1
sS'kasprowicz'
p531
I1
sS'conclave'
p532
I1
sS'industrial'
p533
I2
sS'nigel'
p534
I1
sS'features'
p535
I2
sS'veritable'
p536
I1
sS'dailies'
p537
I1
sS'subtlety'
p538
I1
sS'synonymous'
p539
I1
sS'primary'
p540
I1
sS'comforted'
p541
I1
sS'hearing'
p542
I4
sS'channels'
p543
I1
sS'clear'
p544
I5
sS'philosophical'
p545
I1
sS'adopted'
p546
I1
sS'another'
p547
I19
sS'restrain'
p548
I1
sS'plastic'
p549
I2
sS'electronic'
p550
I2
sS'goulden'
p551
I1
sS'leaders'
p552
I2
sS'mercury'
p553
I2
sS'timothy'
p554
I1
sS'confectionery'
p555
I1
sS'aboutquot'
p556
I1
sS'disciplines'
p557
I1
sS'service'
p558
I12
sS'similarly'
p559
I1
sS'undoubtedly'
p560
I1
sS'500am'
p561
I1
sS'engagement'
p562
I1
sS'outstandingly'
p563
I1
sS'politisation'
p564
I1
sS'needed'
p565
I9
sS'however'
p566
I16
sS'rates'
p567
I31
sS'listed'
p568
I3
sS'burgess'
p569
I1
sS'wildly'
p570
I1
sS'ordered'
p571
I1
sS'especially'
p572
I4
sS'bitter'
p573
I1
sS'duress'
p574
I1
sS'listen'
p575
I2
sS'reparation'
p576
I1
sS'doing39'
p577
I1
sS"dagg's"
p578
I1
sS'collapse'
p579
I1
sS'herself'
p580
I1
sS'happily'
p581
I2
sS'albert'
p582
I3
sS'vector39s'
p583
I2
sS'beenthe'
p584
I1
sS'guidelines'
p585
I1
sS'nominal'
p586
I1
sS'somewhat'
p587
I1
sS'helen'
p588
I8
sS'interfers'
p589
I1
sS'surpisingly'
p590
I2
sS'symptom'
p591
I1
sS'begins'
p592
I1
sS'distance'
p593
I4
sS'congratulatory'
p594
I1
sS'target'
p595
I2
sS'showed'
p596
I2
sS'surrounding'
p597
I3
sS'rimutka'
p598
I1
sS'outlaw'
p599
I1
sS'meteorology'
p600
I1
sS'rotorua'
p601
I1
sS'edmonds'
p602
I1
sS'project'
p603
I10
sS'matter'
p604
I6
sS'solomon'
p605
I1
sS'street'
p606
I7
sS'silly'
p607
I2
sS'friend'
p608
I7
sS'historical'
p609
I3
sS'charlie'
p610
I1
sS'quothe39s'
p611
I1
sS'feeling'
p612
I1
sS'powers'
p613
I13
sS'perspective'
p614
I2
sS'lifesize'
p615
I1
sS'humble'
p616
I3
sS'companions'
p617
I1
sS'roadtrip'
p618
I1
sS'secrets'
p619
I2
sS'corruptioninfested'
p620
I1
sS'thistles'
p621
I1
sS'election'
p622
I18
sS'modern'
p623
I3
sS'upset'
p624
I3
sS'bouncer'
p625
I1
sS'talking'
p626
I3
sS'manner'
p627
I1
sS'telly'
p628
I1
sS'subjects'
p629
I1
sS'tells'
p630
I5
sS'alive'
p631
I2
sS'dozen'
p632
I3
sS'disorganised'
p633
I1
sS'affairs'
p634
I2
sS'estimated'
p635
I2
sS'realm'
p636
I1
sS'allegedly'
p637
I1
sS'quotpolice'
p638
I1
sS'convenient'
p639
I1
sS'responsible'
p640
I3
sS'isolated'
p641
I1
sS'apply'
p642
I3
sS'bullhorns'
p643
I1
sS'sound'
p644
I1
sS'recommended'
p645
I1
sS'causing'
p646
I3
sS'derek'
p647
I1
sS'amusing'
p648
I2
sS'doors'
p649
I3
sS'season'
p650
I1
sS'profit'
p651
I3
sS'workmates'
p652
I1
sS'rider'
p653
I1
sS'enshrining'
p654
I1
sS'culminated'
p655
I1
sS'salubrious'
p656
I1
sS'shall'
p657
I2
sS'bruce'
p658
I1
sS'iceland'
p659
I1
sS'mother'
p660
I7
sS'panel'
p661
I4
sS'victoria'
p662
I11
sS'clears'
p663
I1
sS'21yearold'
p664
I1
sS'involving'
p665
I2
sS'mouth'
p666
I2
sS'letter'
p667
I2
sS'organization'
p668
I1
sS'phase'
p669
I1
sS'imported'
p670
I1
sS'fagan'
p671
I1
sS'unorthodox'
p672
I1
sS'check'
p673
I3
sS'opted'
p674
I1
sS'bradford'
p675
I4
sS'dummy'
p676
I1
sS'assisting'
p677
I2
sS'smoked'
p678
I1
sS'consumers'
p679
I1
sS'foamy'
p680
I1
sS'bracken'
p681
I2
sS'professor'
p682
I4
sS'incompatible'
p683
I1
sS'greased'
p684
I1
sS'plainly'
p685
I1
sS'usual'
p686
I3
sS'leaflet'
p687
I2
sS'motorways'
p688
I1
sS'definitely'
p689
I2
sS'incumbents'
p690
I1
sS'principle'
p691
I2
sS'warming'
p692
I1
sS'ducat'
p693
I1
sS'voting'
p694
I4
sS'consumer'
p695
I1
sS'notion'
p696
I1
sS'urgency'
p697
I3
sS'reserve'
p698
I2
sS'dredged'
p699
I1
sS'advisory'
p700
I2
sS'signatures'
p701
I1
sS'franklyn'
p702
I1
sS'confront'
p703
I1
sS'insects'
p704
I1
sS'lewis'
p705
I1
sS'meetings'
p706
I6
sS'labels'
p707
I1
sS'asthe'
p708
I1
sS'nominated'
p709
I3
sS'anniversary'
p710
I2
sS'undue'
p711
I1
sS'lawful'
p712
I1
sS'attempts'
p713
I2
sS'chord'
p714
I1
sS'radio'
p715
I10
sS'solutions'
p716
I1
sS'stepping'
p717
I1
sS'visioncampr'
p718
I1
sS'inherit'
p719
I1
sS'unguarded'
p720
I1
sS'toilet'
p721
I1
sS'enjoyed'
p722
I2
sS'hounded'
p723
I1
sS'hobson'
p724
I3
sS'lessons'
p725
I1
sS'judges'
p726
I5
sS'geyser'
p727
I1
sS'layout'
p728
I1
sS'consciousness'
p729
I1
sS'lights'
p730
I2
sS'headline'
p731
I1
sS'elite'
p732
I1
sS'explain'
p733
I5
sS'unemployment'
p734
I1
sS'fisher'
p735
I1
sS'kaiapoi'
p736
I5
sS'theme'
p737
I3
sS'wallabies'
p738
I1
sS'announce'
p739
I1
sS'constant'
p740
I2
sS'jailed'
p741
I3
sS'personality'
p742
I1
sS'predecessor'
p743
I1
sS'praised'
p744
I1
sS'smutty'
p745
I1
sS'cupboards'
p746
I1
sS'60hour'
p747
I1
sS'watch'
p748
I4
sS'cardinals'
p749
I1
sS'coast'
p750
I2
sS'pocket'
p751
I1
sS'watson'
p752
I4
sS'christopher'
p753
I2
sS'despite'
p754
I3
sS'bakerhogan'
p755
I3
sS'carries'
p756
I1
sS'botanical'
p757
I1
sS'learned'
p758
I2
sS'comply'
p759
I1
sS'societies'
p760
I2
sS'youngish'
p761
I1
sS'freedoms'
p762
I1
sS'spilling'
p763
I1
sS'alludes'
p764
I1
sS'spokesperson'
p765
I5
sS'fields'
p766
I1
sS'shrapnel'
p767
I1
sS'patch'
p768
I2
sS"children's"
p769
I3
sS'softly'
p770
I1
sS'lurched'
p771
I1
sS'troop'
p772
I3
sS'i8217d'
p773
I2
sS'release'
p774
I10
sS'wannabe'
p775
I2
sS'searching'
p776
I1
sS'steak'
p777
I1
sS'flagged'
p778
I1
sS'malicious'
p779
I1
sS'respond'
p780
I1
sS'feasts'
p781
I1
sS"'rick"
p782
I1
sS'disaster'
p783
I1
sS'fascinating'
p784
I3
sS'branding'
p785
I1
sS'testing'
p786
I2
sS'niche'
p787
I1
sS'togethernbsp'
p788
I1
sS'observed'
p789
I1
sS'checks'
p790
I1
sS'andree'
p791
I1
sS'decided'
p792
I3
sS'divendends'
p793
I1
sS'result'
p794
I5
sS'accessory'
p795
I1
sS'horrendous'
p796
I2
sS'discussions'
p797
I2
sS'suffers'
p798
I1
sS'resigned'
p799
I3
sS'hammer'
p800
I4
sS'darroch'
p801
I1
sS'subject'
p802
I7
sS'mangere'
p803
I1
sS'moron'
p804
I2
sS'draws'
p805
I1
sS'pressured'
p806
I2
sS'inappropriate'
p807
I1
sS'rocket'
p808
I2
sS'ensures'
p809
I1
sS'wikipedia'
p810
I2
sS'stealthy'
p811
I1
sS'prince'
p812
I1
sS'smacks'
p813
I1
sS'pressures'
p814
I1
sS'jetting'
p815
I1
sS'emptor'
p816
I1
sS'humankind'
p817
I1
sS'cooperation'
p818
I1
sS'drawn'
p819
I1
sS'craccum'
p820
I1
sS'misguided'
p821
I1
sS"rickards'"
p822
I1
sS'undie'
p823
I5
sS'claws'
p824
I1
sS'accord'
p825
I1
sS'admirers'
p826
I1
sS'terms'
p827
I4
sS'wears'
p828
I3
sS'nature'
p829
I3
sS'rolled'
p830
I1
sS'confusion'
p831
I2
sS'councillors'
p832
I3
sS'handful'
p833
I2
sS'lapping'
p834
I1
sS'ignorance'
p835
I1
sS'nightmares'
p836
I2
sS'outages'
p837
I1
sS'windows'
p838
I1
sS'extent'
p839
I2
sS'clues'
p840
I1
sS'cousin'
p841
I1
sS'underclass'
p842
I1
sS'roller'
p843
I1
sS'electing'
p844
I2
sS'tyranny'
p845
I1
sS'received'
p846
I9
sS'climate'
p847
I4
sS'captured'
p848
I1
sS'civilised'
p849
I3
sS'country'
p850
I12
sS'pollster'
p851
I1
sS'propertybased'
p852
I1
sS'demanded'
p853
I1
sS'cuddles'
p854
I1
sS'stuttgart'
p855
I1
sS'disinfected'
p856
I1
sS'games'
p857
I1
sS'planned'
p858
I1
sS'waitangi'
p859
I1
sS'advisers'
p860
I1
sS'subsequent'
p861
I1
sS'argue'
p862
I4
sS'asked'
p863
I9
sS'eradicate'
p864
I1
sS'switching'
p865
I1
sS'vengeful'
p866
I1
sS'presumably'
p867
I1
sS'nikki'
p868
I1
sS"council's"
p869
I2
sS'honouring'
p870
I1
sS'guaranteed'
p871
I2
sS'bakerhogans'
p872
I1
sS'tolerence'
p873
I1
sS'represented'
p874
I4
sS'karen'
p875
I1
sS"labour's"
p876
I2
sS'initiative'
p877
I1
sS'wider'
p878
I1
sS'loaded'
p879
I1
sS'administrations'
p880
I1
sS'resignation'
p881
I4
sS'epitome'
p882
I1
sS'bureaucratic'
p883
I1
sS'speak'
p884
I3
sS'gratitude'
p885
I1
sS'burns'
p886
I1
sS'trish'
p887
I1
sS'strong'
p888
I7
sS'proceeded'
p889
I1
sS'theirnbspboots'
p890
I1
sS'billing'
p891
I1
sS'cbdnbsp'
p892
I1
sS'union'
p893
I3
sS'libertarianpolitical'
p894
I1
sS'criticised'
p895
I1
sS'orthodoxy'
p896
I1
sS'breathlessly'
p897
I2
sS'commission'
p898
I1
sS'recognised'
p899
I2
sS'stadium'
p900
I2
sS'basic'
p901
I4
sS'longawaited'
p902
I2
sS'flexible'
p903
I1
sS'entered'
p904
I1
sS'lovely'
p905
I1
sS'incompetent'
p906
I4
sS'washed'
p907
I1
sS'threw'
p908
I2
sS'lockup'
p909
I1
sS'palmerston'
p910
I7
sS'families'
p911
I3
sS'crying'
p912
I2
sS'eastern'
p913
I4
sS'drugs'
p914
I2
sS'lousyelectioneering'
p915
I1
sS'ailsa'
p916
I1
sS'worker'
p917
I5
sS'freehold'
p918
I1
sS'catering'
p919
I2
sS'attacker'
p920
I3
sS'watchers'
p921
I6
sS'corruption'
p922
I2
sS'child'
p923
I1
sS'catch'
p924
I3
sS'worked'
p925
I2
sS'stubbs'
p926
I1
sS'communityquot'
p927
I1
sS'meisterplan'
p928
I1
sS'help34'
p929
I1
sS'harms'
p930
I1
sS'publicly'
p931
I1
sS'apprehension'
p932
I1
sS'roland'
p933
I1
sS'organisers'
p934
I2
sS'favorate'
p935
I1
sS'honourable'
p936
I1
sS'taste'
p937
I2
sS'conspiracy'
p938
I1
sS'suppose'
p939
I1
sS'motorist'
p940
I1
sS'aeroplane'
p941
I1
sS'applies'
p942
I1
sS'subjugate'
p943
I1
sS'cracked'
p944
I1
sS'murders'
p945
I1
sS'ofbeat'
p946
I1
sS'launched'
p947
I2
sS'unlikely'
p948
I1
sS'remembering'
p949
I1
sS'stink'
p950
I1
sS'economics'
p951
I1
sS'beetles'
p952
I1
sS'dumped'
p953
I2
sS'complaint'
p954
I1
sS'ambition'
p955
I1
sS'programme'
p956
I4
sS'shame'
p957
I3
sS'assimilateyour'
p958
I1
sS'yearsnbsp'
p959
I1
sS'mauling'
p960
I1
sS'campaigning'
p961
I5
sS'indigenous'
p962
I3
sS'warthog'
p963
I1
sS'barker'
p964
I1
sS'breakfast'
p965
I5
sS'memorial'
p966
I1
sS'forestry'
p967
I5
sS'bottles'
p968
I2
sS'lacking'
p969
I1
sS'soldier'
p970
I2
sS'perform'
p971
I1
sS'things'
p972
I14
sS"ratepayers'"
p973
I1
sS"everybody's"
p974
I1
sS'airport'
p975
I3
sS'linked'
p976
I1
sS'speculating'
p977
I1
sS'complex'
p978
I2
sS'potentially'
p979
I1
sS'split'
p980
I1
sS'babies'
p981
I1
sS'monarch'
p982
I3
sS'several'
p983
I6
sS'convictions'
p984
I1
sS'199495'
p985
I1
sS'european'
p986
I1
sS'fairly'
p987
I1
sS'commonsense'
p988
I1
sS'abolition'
p989
I1
sS'catholic'
p990
I5
sS'1232pm'
p991
I1
sS'differing'
p992
I1
sS'lyndon'
p993
I1
sS'liberties'
p994
I10
sS'suburb'
p995
I1
sS'afraid'
p996
I1
sS'hitler'
p997
I3
sS'scale'
p998
I2
sS'angle'
p999
I1
sS'protected'
p1000
I2
sS'opportunity'
p1001
I1
sS"he'll"
p1002
I1
sS'altar'
p1003
I1
sS'cycle'
p1004
I1
sS'explains'
p1005
I1
sS'whereby'
p1006
I1
sS'changes'
p1007
I2
sS'failing'
p1008
I3
sS'smokes'
p1009
I1
sS'outrageousness'
p1010
I1
sS'falloon'
p1011
I2
sS'fathered'
p1012
I1
sS'academic'
p1013
I4
sS'megamillions'
p1014
I1
sS'academia'
p1015
I1
sS'interisland'
p1016
I1
sS'greatest'
p1017
I1
sS'detained'
p1018
I1
sS'centres'
p1019
I1
sS'claims'
p1020
I7
sS'campr'
p1021
I2
sS'384000'
p1022
I1
sS'corporate'
p1023
I1
sS'yours'
p1024
I1
sS'manawatu'
p1025
I1
sS'unfortunately'
p1026
I3
sS'bugger'
p1027
I2
sS'stringent'
p1028
I1
sS'facto'
p1029
I2
sS'traditions'
p1030
I1
sS'shipton'
p1031
I1
sS'sentence'
p1032
I15
sS'photo'
p1033
I2
sS'enjoy'
p1034
I4
sS'bruise'
p1035
I1
sS'unfair'
p1036
I1
sS'ideas'
p1037
I1
sS'assigned'
p1038
I1
sS'disguise'
p1039
I1
sS'specialises'
p1040
I1
sS'victim'
p1041
I10
sS'facts'
p1042
I3
sS'shuffle'
p1043
I1
sS'plight'
p1044
I1
sS'proofing'
p1045
I1
sS'previous'
p1046
I7
sS'adding'
p1047
I1
sS'molloy'
p1048
I1
sS"hubbard's"
p1049
I1
sS'campaign'
p1050
I21
sS'candidate'
p1051
I11
sS'instance'
p1052
I1
sS'photographer'
p1053
I1
sS'regarded'
p1054
I1
sS'assassination'
p1055
I2
sS'character'
p1056
I1
sS'countrys'
p1057
I1
sS'mcnamara'
p1058
I9
sS'spread'
p1059
I4
sS'board'
p1060
I25
sS'innocent'
p1061
I5
sS'prison'
p1062
I22
sS"'rugged"
p1063
I1
sS'apart'
p1064
I1
sS'busytown'
p1065
I1
sS'shoulder'
p1066
I1
sS'thankfully'
p1067
I1
sS'presidents'
p1068
I2
sS'casting'
p1069
I1
sS'gregg'
p1070
I1
sS'elders'
p1071
I2
sS'regard'
p1072
I1
sS'credit'
p1073
I1
sS'possible'
p1074
I6
sS'possibly'
p1075
I3
sS'whichever'
p1076
I1
sS'discreet'
p1077
I1
sS'injuring'
p1078
I1
sS'bogeyman'
p1079
I1
sS'birth'
p1080
I2
sS'consisted'
p1081
I1
sS'clustered'
p1082
I1
sS'thatthey'
p1083
I1
sS'shadow'
p1084
I1
sS'i8217ve'
p1085
I2
sS'unmolested'
p1086
I1
sS'unfounded'
p1087
I1
sS"procurator's"
p1088
I1
sS'desire'
p1089
I2
sS'brought'
p1090
I3
sS'autocratic'
p1091
I1
sS'appearing'
p1092
I1
sS'consensual'
p1093
I1
sS"gillies'"
p1094
I2
sS'obvious'
p1095
I2
sS'seaside'
p1096
I1
sS'dishonest'
p1097
I1
sS'unnecessary'
p1098
I3
sS'theyinitially'
p1099
I1
sS'lapsed'
p1100
I2
sS'intermittently'
p1101
I1
sS'remind'
p1102
I1
sS"greenpeace's"
p1103
I2
sS'steps'
p1104
I1
sS'changed'
p1105
I3
sS'longsuffering'
p1106
I2
sS'night'
p1107
I7
sS'satiated'
p1108
I1
sS'security'
p1109
I2
sS'kearney'
p1110
I2
sS'mowat'
p1111
I3
sS'greenlane'
p1112
I1
sS'right'
p1113
I27
sS'theorists'
p1114
I1
sS'appliances'
p1115
I1
sS'crowd'
p1116
I4
sS'people'
p1117
I89
sS'understand'
p1118
I3
sS'maintained'
p1119
I1
sS'crown'
p1120
I13
sS'maxim'
p1121
I1
sS'double'
p1122
I1
sS'captive'
p1123
I1
sS'nowherequot'
p1124
I1
sS'redshilarious'
p1125
I1
sS'tolda'
p1126
I1
sS'suprassing'
p1127
I1
sS'indirect'
p1128
I2
sS'theyre'
p1129
I2
sS'repeated'
p1130
I2
sS'ruben'
p1131
I3
sS'enemies'
p1132
I2
sS'specific'
p1133
I1
sS'sociology'
p1134
I1
sS'bottom'
p1135
I2
sS'armed'
p1136
I2
sS'daddy'
p1137
I1
sS'comments'
p1138
I11
sS'polluted'
p1139
I1
sS'contributing'
p1140
I1
sS'everything'
p1141
I4
sS'squeeze'
p1142
I1
sS'individuals'
p1143
I3
sS'denied'
p1144
I1
sS'offices'
p1145
I1
sS'1030am'
p1146
I1
sS'beating'
p1147
I1
sS'christmas'
p1148
I5
sS'participation'
p1149
I1
sS'officer'
p1150
I4
sS'ayers'
p1151
I1
sS'particular'
p1152
I3
sS'posttrial'
p1153
I1
sS'stablemate'
p1154
I1
sS'teach'
p1155
I1
sS'cornylooking'
p1156
I1
sS'defend'
p1157
I1
sS'payment'
p1158
I1
sS'swearing'
p1159
I1
sS'decisions'
p1160
I7
sS'1nbsp'
p1161
I1
sS'honing'
p1162
I1
sS'shapes'
p1163
I1
sS'poppies'
p1164
I1
sS'losing'
p1165
I4
sS'flaws'
p1166
I1
sS'manufacturing'
p1167
I1
sS'properties'
p1168
I2
sS'officiating'
p1169
I1
sS'trophy'
p1170
I1
sS'projected'
p1171
I1
sS'bylaw'
p1172
I1
sS'yelling'
p1173
I3
sS'intentions'
p1174
I1
sS'attacks'
p1175
I1
sS'dollars'
p1176
I5
sS'citizens'
p1177
I2
sS'ranges'
p1178
I1
sS'pride'
p1179
I2
sS'dinner'
p1180
I1
sS'montana'
p1181
I3
sS'ensure'
p1182
I5
sS'afternoon'
p1183
I1
sS'anonymii'
p1184
I1
sS'donuts'
p1185
I1
sS'commit'
p1186
I1
sS'efforts'
p1187
I2
sS'definition'
p1188
I2
sS'slightly'
p1189
I1
sS'gumboot'
p1190
I1
sS'considerations'
p1191
I1
sS'consulting'
p1192
I1
sS'indians'
p1193
I1
sS'statements'
p1194
I4
sS'fumed'
p1195
I1
sS'185000'
p1196
I2
sS'wasting'
p1197
I2
sS'lindwall'
p1198
I1
sS'marshall'
p1199
I4
sS'honeymoon'
p1200
I1
sS'bound'
p1201
I4
sS'intellectual'
p1202
I1
sS'balances'
p1203
I2
sS'accommodate'
p1204
I1
sS'handbag'
p1205
I1
sS'contract'
p1206
I1
sS'unstable'
p1207
I1
sS'34100'
p1208
I1
sS'raises'
p1209
I1
sS'coastal'
p1210
I2
sS'formidable'
p1211
I1
sS'nameless'
p1212
I1
sS'heldnbspseat'
p1213
I1
sS'reducing'
p1214
I1
sS'frightened'
p1215
I1
sS'often'
p1216
I8
sS'communists'
p1217
I1
sS'distributing'
p1218
I1
sS'severely'
p1219
I1
sS'addington'
p1220
I2
sS'mcdonald'
p1221
I2
sS'sally'
p1222
I1
sS'support'
p1223
I22
sS'flying'
p1224
I1
sS'legislation'
p1225
I5
sS'sovereign'
p1226
I5
sS'raped'
p1227
I1
sS'absolutely'
p1228
I1
sS'accordingly'
p1229
I1
sS'joseph'
p1230
I1
sS'editor'
p1231
I2
sS'unseat'
p1232
I1
sS'factions'
p1233
I1
sS'happy'
p1234
I6
sS'lowest'
p1235
I1
sS'precolonial'
p1236
I3
sS'ginette'
p1237
I1
sS'raids'
p1238
I3
sS'offer'
p1239
I1
sS'something'
p1240
I18
sS'proudly'
p1241
I2
sS'becoming'
p1242
I3
sS'differences'
p1243
I1
sS'conclusively'
p1244
I1
sS'referendums'
p1245
I1
sS'hindenburg'
p1246
I1
sS'somehow'
p1247
I2
sS"what'"
p1248
I1
sS'mysterious'
p1249
I2
sS'talents'
p1250
I1
sS'coaccused'
p1251
I1
sS'profile'
p1252
I2
sS'metres'
p1253
I2
sS'justify'
p1254
I1
sS'astonished'
p1255
I2
sS'beady'
p1256
I1
sS'surrender'
p1257
I4
sS'morrin'
p1258
I1
sS'speakers'
p1259
I2
sS'again'
p1260
I20
sS'congratulations'
p1261
I1
sS'responding'
p1262
I3
sS"occidental's"
p1263
I1
sS'consultants'
p1264
I6
sS'array'
p1265
I1
sS'hurrah'
p1266
I1
sS'inside'
p1267
I2
sS'morning'
p1268
I2
sS'attached'
p1269
I2
sS'donald'
p1270
I1
sS'devices'
p1271
I1
sS'ruined'
p1272
I1
sS'whiskey'
p1273
I1
sS'plymouth'
p1274
I2
sS'economic'
p1275
I9
sS'complications'
p1276
I1
sS'vatican'
p1277
I3
sS'emotional'
p1278
I1
sS'firewalls'
p1279
I1
sS'panels'
p1280
I1
sS'propaganda'
p1281
I3
sS'grenades'
p1282
I2
sS'1kmsq'
p1283
I1
sS'later'
p1284
I10
sS'proved'
p1285
I1
sS'moore'
p1286
I2
sS'screaming'
p1287
I1
sS'harkness'
p1288
I1
sS'nandor'
p1289
I1
sS'implications'
p1290
I1
sS'abstract'
p1291
I1
sS'mirror'
p1292
I1
sS'stooge'
p1293
I1
sS'proven'
p1294
I4
sS'evidence'
p1295
I7
sS'howling'
p1296
I1
sS'proves'
p1297
I2
sS'exist'
p1298
I4
sS'fashioned'
p1299
I1
sS'claimants'
p1300
I1
sS'request'
p1301
I3
sS'accounting'
p1302
I1
sS'incursion'
p1303
I3
sS'popularnbsp'
p1304
I1
sS'physical'
p1305
I3
sS'looked'
p1306
I10
sS'protested'
p1307
I1
sS'dying'
p1308
I1
sS'floor'
p1309
I2
sS'agreeing'
p1310
I1
sS'daytoday'
p1311
I2
sS'whereas'
p1312
I1
sS'generally'
p1313
I5
sS'proceedings'
p1314
I1
sS'topped'
p1315
I1
sS'reality'
p1316
I7
sS'website'
p1317
I9
sS'grabbing'
p1318
I1
sS'setting'
p1319
I3
sS'republic'
p1320
I16
sS'rottenly'
p1321
I1
sS'holding'
p1322
I7
sS'eyeballs'
p1323
I2
sS'unwilling'
p1324
I1
sS'confusing'
p1325
I1
sS'company'
p1326
I5
sS'system8217'
p1327
I1
sS'scored'
p1328
I1
sS'picture'
p1329
I2
sS'raided'
p1330
I1
sS'sling'
p1331
I1
sS'models'
p1332
I4
sS'emily'
p1333
I1
sS'submitters'
p1334
I1
sS'moera'
p1335
I1
sS'update'
p1336
I6
sS'defence'
p1337
I3
sS'healthiest'
p1338
I1
sS"let's"
p1339
I4
sS'brief'
p1340
I1
sS"daddy's"
p1341
I1
sS"family's"
p1342
I2
sS'westenra'
p1343
I2
sS'authorities'
p1344
I1
sS'110th'
p1345
I1
sS'weekend'
p1346
I7
sS'explosions'
p1347
I1
sS'exhibition'
p1348
I1
sS'jones'
p1349
I1
sS'grabbit'
p1350
I1
sS'immemorial'
p1351
I1
sS'happening'
p1352
I1
sS'apology'
p1353
I1
sS'bestowed'
p1354
I1
sS"workers'"
p1355
I1
sS'ogden'
p1356
I1
sS'ketch'
p1357
I1
sS'affidavit'
p1358
I1
sS'together'
p1359
I6
sS'premiums'
p1360
I1
sS'unchallenged'
p1361
I1
sS'gutting'
p1362
I1
sS"'good'"
p1363
I1
sS'libertarian'
p1364
I2
sS'lineup'
p1365
I1
sS'34she'
p1366
I1
sS'tomembers'
p1367
I1
sS'restored'
p1368
I1
sS'overdue'
p1369
I1
sS'throng'
p1370
I1
sS'concept'
p1371
I1
sS'managed'
p1372
I6
sS'chain'
p1373
I1
sS'rating'
p1374
I1
sS'glovesoff'
p1375
I1
sS'viaduct'
p1376
I1
sS'fabricated'
p1377
I1
sS'deliveries'
p1378
I1
sS'leads'
p1379
I2
sS'crocodile'
p1380
I1
sS'manager'
p1381
I1
sS'marion'
p1382
I1
sS'anand'
p1383
I1
sS"who'll"
p1384
I2
sS'battle'
p1385
I2
sS'chair'
p1386
I3
sS'creative'
p1387
I2
sS'displaying'
p1388
I1
sS'competition'
p1389
I2
sS'certainly'
p1390
I6
sS'suicide'
p1391
I1
sS'depend'
p1392
I2
sS'outflanked'
p1393
I1
sS'caldwell'
p1394
I1
sS"minister's"
p1395
I1
sS'promote'
p1396
I1
sS'april'
p1397
I3
sS'outplayed'
p1398
I1
sS'editors'
p1399
I1
sS'passage'
p1400
I2
sS"'bomb'"
p1401
I2
sS'finally'
p1402
I5
sS'asking'
p1403
I2
sS'ronald'
p1404
I1
sS'marks'
p1405
I1
sS'terror'
p1406
I2
sS'platitudes'
p1407
I1
sS'sovereignty'
p1408
I1
sS'jaywalking'
p1409
I1
sS'winemaking'
p1410
I1
sS'protestors'
p1411
I3
sS'advises'
p1412
I1
sS'brown'
p1413
I4
sS'massive'
p1414
I1
sS'supported'
p1415
I2
sS'broadly'
p1416
I1
sS'doubleact'
p1417
I1
sS'cheap'
p1418
I5
sS'mediteranian'
p1419
I1
sS'baggie'
p1420
I1
sS'unfamiliar'
p1421
I1
sS'choice'
p1422
I5
sS'begging'
p1423
I1
sS'wallets'
p1424
I1
sS'starkness'
p1425
I1
sS'lynch'
p1426
I2
sS'anonymous'
p1427
I1
sS'advised'
p1428
I2
sS'trouble'
p1429
I2
sS'blast'
p1430
I1
sS'exact'
p1431
I2
sS'minute'
p1432
I1
sS'socialist'
p1433
I7
sS'cooks'
p1434
I1
sS'couches'
p1435
I1
sS'mickeys'
p1436
I7
sS'level'
p1437
I5
sS'cleaners'
p1438
I4
sS'stiffed'
p1439
I1
sS'proposals'
p1440
I1
sS'defacto'
p1441
I1
sS'skewed'
p1442
I1
sS'leave'
p1443
I7
sS'settle'
p1444
I1
sS'excellence'
p1445
I1
sS'minimal'
p1446
I3
sS'quick'
p1447
I5
sS'loads'
p1448
I1
sS'round'
p1449
I1
sS'unaware'
p1450
I1
sS"it'll"
p1451
I2
sS'incompetence'
p1452
I3
sS'prevent'
p1453
I1
sS'revolution'
p1454
I1
sS'century'
p1455
I1
sS'pornography'
p1456
I4
sS'tougher'
p1457
I1
sS'pregnancies'
p1458
I1
sS'discover'
p1459
I1
sS'transform'
p1460
I1
sS'hobbyist'
p1461
I1
sS'colin'
p1462
I1
sS'comforting'
p1463
I2
sS'you8217re'
p1464
I2
sS'rapist'
p1465
I1
sS'lavigne'
p1466
I1
sS'offended'
p1467
I1
sS'assistance'
p1468
I2
sS'favour'
p1469
I2
sS'shares'
p1470
I2
sS'agrees'
p1471
I1
sS'current'
p1472
I7
sS'offender39s'
p1473
I3
sS'health'
p1474
I9
sS'suspect'
p1475
I4
sS'decade'
p1476
I1
sS'tarantula'
p1477
I1
sS'appeal'
p1478
I3
sS'freaky'
p1479
I1
sS'bumlicking'
p1480
I1
sS'drafted'
p1481
I1
sS'palmer'
p1482
I1
sS'finallyin'
p1483
I1
sS'honour'
p1484
I3
sS'cullens'
p1485
I3
sS'lange'
p1486
I1
sS'inspiring'
p1487
I1
sS'quotdo'
p1488
I1
sS'understanding'
p1489
I1
sS'water'
p1490
I10
sS'contemplate'
p1491
I1
sS'unanimously'
p1492
I1
sS'antinuclear'
p1493
I2
sS'groups'
p1494
I3
sS'address'
p1495
I4
sS'alone'
p1496
I4
sS'monies'
p1497
I1
sS'along'
p1498
I7
sS'popular'
p1499
I4
sS'appears'
p1500
I8
sS'change'
p1501
I14
sS'knowledge'
p1502
I2
sS'shared'
p1503
I1
sS'sending'
p1504
I2
sS'condoms'
p1505
I2
sS'ethics'
p1506
I1
sS'discount'
p1507
I1
sS'institute'
p1508
I1
sS'shift'
p1509
I2
sS'publisher'
p1510
I1
sS'funded'
p1511
I2
sS"allen's"
p1512
I1
sS'trial'
p1513
I2
sS'impacting'
p1514
I1
sS"'hidden"
p1515
I1
sS'franklin'
p1516
I1
sS'suggestion'
p1517
I2
sS'usually'
p1518
I4
sS'weird'
p1519
I2
sS'studies'
p1520
I1
sS"country's"
p1521
I1
sS'situationquot'
p1522
I1
sS"fuzzies'"
p1523
I1
sS'teenage'
p1524
I3
sS'discontinued'
p1525
I1
sS'regardless'
p1526
I2
sS'saunders'
p1527
I1
sS'kebab'
p1528
I1
sS'extra'
p1529
I4
sS'erudite'
p1530
I1
sS'merely'
p1531
I4
sS'prefer'
p1532
I1
sS'compare'
p1533
I1
sS'marked'
p1534
I2
sS'bloody'
p1535
I3
sS'uphill'
p1536
I1
sS'loophole'
p1537
I1
sS'licensing'
p1538
I1
sS'verge'
p1539
I1
sS'onerous'
p1540
I1
sS'ailing'
p1541
I1
sS'embarrassing'
p1542
I1
sS"committee's"
p1543
I1
sS'rarely'
p1544
I1
sS'carol'
p1545
I2
sS'everybody'
p1546
I1
sS'opposes'
p1547
I1
sS'except'
p1548
I3
sS'wealth'
p1549
I2
sS'working'
p1550
I20
sS'prove'
p1551
I1
sS'haven8217t'
p1552
I1
sS'positive'
p1553
I2
sS'angry'
p1554
I3
sS'prompting'
p1555
I1
sS'visit'
p1556
I1
sS'papas'
p1557
I1
sS'onthe'
p1558
I1
sS'possums'
p1559
I2
sS'explicitly'
p1560
I1
sS'upheld'
p1561
I1
sS'opposed'
p1562
I1
sS'wondering'
p1563
I5
sS'memory'
p1564
I2
sS'oneaucklandcom'
p1565
I1
sS'scope'
p1566
I1
sS'australian'
p1567
I3
sS'selects'
p1568
I1
sS'cited'
p1569
I1
sS'today'
p1570
I22
sS'wicked'
p1571
I1
sS"'nice"
p1572
I1
sS'milford'
p1573
I6
sS'sharing'
p1574
I2
sS'kerry'
p1575
I2
sS'maryan'
p1576
I1
sS'pricing'
p1577
I1
sS'afford'
p1578
I1
sS'share'
p1579
I2
sS'acceptable'
p1580
I1
sS'apparent'
p1581
I1
sS'envelope'
p1582
I1
sS'refrain'
p1583
I1
sS'odious'
p1584
I1
sS'downtown'
p1585
I1
sS'everywhere'
p1586
I1
sS'virtue'
p1587
I2
sS'scratcher'
p1588
I1
sS'downturn'
p1589
I1
sS'selfdetermination'
p1590
I1
sS'enervated'
p1591
I1
sS'effort'
p1592
I3
sS'dublin'
p1593
I1
sS'bowler'
p1594
I1
sS'deserved'
p1595
I1
sS'violence'
p1596
I5
sS'hussey'
p1597
I1
sS'thousands'
p1598
I3
sS'quoting'
p1599
I1
sS'fries'
p1600
I1
sS'abortion'
p1601
I3
sS'foods'
p1602
I2
sS'carfe'
p1603
I1
sS'hardest'
p1604
I1
sS'values'
p1605
I1
sS'three'
p1606
I26
sS"fa'anamu"
p1607
I3
sS'malespecific'
p1608
I1
sS'believed'
p1609
I1
sS'making'
p1610
I7
sS'referendum'
p1611
I10
sS'zealanders'
p1612
I10
sS'chapter'
p1613
I1
sS'tripped'
p1614
I1
sS'imitation'
p1615
I1
sS'150000'
p1616
I1
sS'heart'
p1617
I8
sS'dedicated'
p1618
I2
sS'months'
p1619
I5
sS'figure'
p1620
I2
sS'noncelebration'
p1621
I1
sS'december'
p1622
I5
sS'winston'
p1623
I1
sS"didn't"
p1624
I9
sS'confused'
p1625
I1
sS'bridesmaid'
p1626
I1
sS'heard'
p1627
I2
sS'fortunes'
p1628
I1
sS'rowling'
p1629
I1
sS'dropped'
p1630
I2
sS'naenae'
p1631
I1
sS'allowed'
p1632
I8
sS'kennett'
p1633
I1
sS'dennis'
p1634
I1
sS'viewers'
p1635
I2
sS'occur'
p1636
I1
sS'english'
p1637
I1
sS'parliamentary'
p1638
I7
sS"mcmurray's"
p1639
I1
sS'denial'
p1640
I1
sS'productive'
p1641
I1
sS'monitoring'
p1642
I2
sS'winter'
p1643
I1
sS'steve'
p1644
I2
sS'assailant'
p1645
I1
sS'attract'
p1646
I1
sS'discussion'
p1647
I2
sS'spreads'
p1648
I1
sS'mismanagement'
p1649
I1
sS'species'
p1650
I1
sS'write'
p1651
I2
sS"state's"
p1652
I1
sS'catnip'
p1653
I3
sS'vancouver'
p1654
I2
sS'actual'
p1655
I4
sS'sword'
p1656
I1
sS'holidays'
p1657
I2
sS'beans'
p1658
I1
sS'persuasion'
p1659
I1
sS'eight'
p1660
I1
sS'dominance'
p1661
I1
sS'dotty'
p1662
I7
sS'servantsquot'
p1663
I1
sS'product'
p1664
I3
sS'marlborough'
p1665
I1
sS'laundry'
p1666
I1
sS'irrational'
p1667
I1
sS'structure'
p1668
I3
sS'tvfleet'
p1669
I4
sS'slush'
p1670
I1
sS'quotvote'
p1671
I1
sS'southern'
p1672
I1
sS'needs'
p1673
I3
sS'waiwhakaiho'
p1674
I1
sS'convincingly'
p1675
I1
sS'motorway'
p1676
I1
sS'applications'
p1677
I1
sS'membership'
p1678
I2
sS'produce'
p1679
I5
sS'designed'
p1680
I1
sS'islands'
p1681
I1
sS'court'
p1682
I8
sS'revealed'
p1683
I5
sS'lifting'
p1684
I1
sS'times'
p1685
I10
sS'classroom'
p1686
I1
sS'gillespie'
p1687
I1
sS'stress'
p1688
I2
sS'natural'
p1689
I2
sS'remember'
p1690
I2
sS'johnson'
p1691
I2
sS'spraying'
p1692
I5
sS'finaloiaconsultantfeesdoc'
p1693
I1
sS"project's"
p1694
I1
sS'avant'
p1695
I1
sS'provide'
p1696
I3
sS'mcnamara39s'
p1697
I2
sS'jolted'
p1698
I1
sS'rangi'
p1699
I3
sS'forebears'
p1700
I1
sS'birdeating'
p1701
I1
sS'skirmish'
p1702
I1
sS"soveriegn's"
p1703
I1
sS'clover'
p1704
I1
sS'nobilo'
p1705
I7
sS'pulled'
p1706
I1
sS'nothingnbsp'
p1707
I1
sS'typical'
p1708
I2
sS'drunken'
p1709
I3
sS'exclusive'
p1710
I3
sS'innocuous'
p1711
I1
sS'serving'
p1712
I5
sS'notsupposed'
p1713
I1
sS'nerve'
p1714
I1
sS'assetnbsp'
p1715
I1
sS'indeed'
p1716
I4
sS'pointed'
p1717
I1
sS'beaumont'
p1718
I1
sS'wishing'
p1719
I1
sS'raised'
p1720
I2
sS'years'
p1721
I48
sS'mayhem'
p1722
I1
sS'course'
p1723
I21
sS'thinner'
p1724
I2
sS'terrace'
p1725
I1
sS'manukau'
p1726
I2
sS'argued'
p1727
I4
sS'dallies'
p1728
I1
sS'deity'
p1729
I1
sS'still'
p1730
I30
sS'benjamin'
p1731
I1
sS'birds'
p1732
I1
sS'earplugs'
p1733
I1
sS'respect'
p1734
I2
sS'accepted'
p1735
I1
sS'overhaul'
p1736
I1
sS'monitor'
p1737
I2
sS'wallace'
p1738
I1
sS'faults'
p1739
I2
sS'reluctant'
p1740
I2
sS'interesting'
p1741
I6
sS'organisation'
p1742
I5
sS'undermined'
p1743
I1
sS'proposed'
p1744
I3
sS'councillor'
p1745
I1
sS'shortland'
p1746
I3
sS'civil'
p1747
I4
sS'mayoraltynbsp'
p1748
I1
sS'larsen'
p1749
I1
sS'descended'
p1750
I1
sS'listing'
p1751
I1
sS'30mins'
p1752
I1
sS'decreased'
p1753
I1
sS'factual'
p1754
I1
sS'decades'
p1755
I1
sS'parades'
p1756
I2
sS'petition'
p1757
I3
sS'chattering'
p1758
I1
sS'roses'
p1759
I1
sS'finance'
p1760
I6
sS'recipients'
p1761
I1
sS'fling'
p1762
I1
sS'boggleeyed'
p1763
I1
sS'killer'
p1764
I1
sS'travelquot'
p1765
I1
sS'introduce'
p1766
I1
sS'nation'
p1767
I4
sS'records'
p1768
I1
sS'8220sure'
p1769
I1
sS'quoti39m'
p1770
I1
sS'republicanism'
p1771
I3
sS'aspirations'
p1772
I1
sS'sorted'
p1773
I1
sS'uncontrolled'
p1774
I1
sS'griffith'
p1775
I1
sS'killed'
p1776
I3
sS'developments'
p1777
I1
sS'frampton'
p1778
I5
sS'workload'
p1779
I1
sS'equality'
p1780
I1
sS'ohsofreudian'
p1781
I1
sS'january'
p1782
I1
sS'trainwreck'
p1783
I1
sS'jango'
p1784
I1
sS'weeklynbspnewsletter8230'
p1785
I1
sS"brash's"
p1786
I1
sS'referendumnbsp'
p1787
I1
sS'bowling'
p1788
I2
sS'instability'
p1789
I2
sS'amnesty'
p1790
I1
sS'quarter'
p1791
I6
sS'australians'
p1792
I1
sS'quartet'
p1793
I2
sS'individually'
p1794
I2
sS'republican'
p1795
I3
sS'square'
p1796
I2
sS'lowkey'
p1797
I1
sS'latin'
p1798
I1
sS'badly'
p1799
I1
sS'caughey'
p1800
I1
sS'carving'
p1801
I1
sS'begun'
p1802
I1
sS'sexually'
p1803
I4
sS'httpblairmulhollandtypepadcommulhollanddrive200708blairmulhollanhtmlcid80761247comments'
p1804
I1
sS'engines'
p1805
I1
sS'happen'
p1806
I5
sS'summary'
p1807
I1
sS'disasters'
p1808
I1
sS'reckons'
p1809
I1
sS'tried'
p1810
I4
sS'living'
p1811
I8
sS'shown'
p1812
I1
sS'followed'
p1813
I4
sS'container'
p1814
I1
sS'opened'
p1815
I1
sS'swings'
p1816
I1
sS'fish8217n'
p1817
I1
sS'reveled'
p1818
I1
sS'irony'
p1819
I2
sS'lawyers'
p1820
I4
sS'looking'
p1821
I6
sS'inflationary'
p1822
I1
sS'seriously'
p1823
I2
sS'investigation'
p1824
I3
sS'papers'
p1825
I1
sS'rational'
p1826
I1
sS'internet'
p1827
I2
sS'suggesting'
p1828
I2
sS'clowns'
p1829
I1
sS'receiving'
p1830
I1
sS'sainthood'
p1831
I3
sS'viable'
p1832
I2
sS'bordering'
p1833
I1
sS'intended'
p1834
I1
sS'inevitably'
p1835
I2
sS'cabinet'
p1836
I4
sS'earlier'
p1837
I7
sS'cooperatively'
p1838
I1
sS'existed'
p1839
I1
sS'sideways'
p1840
I1
sS'coloured'
p1841
I1
sS'million'
p1842
I17
sS'boobs'
p1843
I7
sS'governing'
p1844
I3
sS'quite'
p1845
I6
sS'disrespect'
p1846
I1
sS'banksiehe'
p1847
I1
sS'unwanted'
p1848
I1
sS'keita'
p1849
I4
sS'besides'
p1850
I1
sS'campbell'
p1851
I3
sS'kingdom'
p1852
I1
sS'customs'
p1853
I4
sS'marine'
p1854
I1
sS'inevitable'
p1855
I2
sS'reflect'
p1856
I1
sS'training'
p1857
I11
sS'dunne'
p1858
I3
sS'hamed'
p1859
I1
sS'language'
p1860
I1
sS'ministry'
p1861
I4
sS'backside'
p1862
I1
sS'vehemently'
p1863
I1
sS'british'
p1864
I12
sS'routed'
p1865
I1
sS'thing'
p1866
I5
sS'attitudefrom'
p1867
I1
sS'tangled'
p1868
I1
sS'undesirable'
p1869
I1
sS'semisociopath'
p1870
I1
sS'promotion'
p1871
I1
sS'bhatnager'
p1872
I1
sS'suffice'
p1873
I1
sS'delighted'
p1874
I1
sS'first'
p1875
I20
sS'blind'
p1876
I1
sS'initial'
p1877
I2
sS'hucker'
p1878
I2
sS'stevens'
p1879
I3
sS'spoken'
p1880
I2
sS'question'
p1881
I8
sS'diana'
p1882
I1
sS'coming'
p1883
I7
sS'safety'
p1884
I10
sS'yourself'
p1885
I8
sS'monarchist'
p1886
I7
sS'necessarynbsp'
p1887
I1
sS'directly'
p1888
I10
sS'infects'
p1889
I1
sS'carry'
p1890
I2
sS'impossible'
p1891
I2
sS'message'
p1892
I5
sS'fight'
p1893
I4
sS'tomorrow'
p1894
I1
sS'honesty'
p1895
I1
sS'quotif'
p1896
I1
sS'surveys'
p1897
I1
sS'necessarily'
p1898
I1
sS'disabled'
p1899
I2
sS'silent'
p1900
I3
sS'district'
p1901
I9
sS'pushed'
p1902
I3
sS'bookmark'
p1903
I1
sS'concentrating'
p1904
I1
sS'thankless'
p1905
I1
sS'arsehole'
p1906
I1
sS'dressed'
p1907
I1
sS'response'
p1908
I4
sS'anyone'
p1909
I8
sS'indicate'
p1910
I2
sS'shorts'
p1911
I1
sS'draft'
p1912
I1
sS'terrifying'
p1913
I1
sS'convention'
p1914
I1
sS'immortalised'
p1915
I1
sS'infected'
p1916
I1
sS'white'
p1917
I9
sS'returns'
p1918
I3
sS"cunliffe's"
p1919
I1
sS'williams'
p1920
I4
sS'bloodshed'
p1921
I1
sS'holden'
p1922
I1
sS'mining'
p1923
I1
sS'becomes'
p1924
I1
sS'mostly'
p1925
I4
sS'beltway'
p1926
I1
sS'tongue'
p1927
I1
sS'public'
p1928
I19
sS"men's"
p1929
I2
sS'shortcomings'
p1930
I1
sS'meddling'
p1931
I1
sS'broadcast'
p1932
I1
sS'released'
p1933
I4
sS'harbour'
p1934
I2
sS'ridiculous'
p1935
I1
sS'inmates'
p1936
I2
sS'eyeopening'
p1937
I1
sS'punishment'
p1938
I7
sS'representing'
p1939
I5
sS'serves'
p1940
I1
sS"here's"
p1941
I5
sS'population'
p1942
I2
sS'television'
p1943
I5
sS'nathan'
p1944
I2
sS'third'
p1945
I5
sS'elected'
p1946
I19
sS'rival'
p1947
I4
sS'gotta'
p1948
I1
sS'sphincters'
p1949
I1
sS'radionz'
p1950
I1
sS'spokeswoman'
p1951
I1
sS'ashamed'
p1952
I2
sS'future'
p1953
I10
sS'knives'
p1954
I1
sS'booted'
p1955
I1
sS'venture'
p1956
I1
sS'outcome'
p1957
I2
sS'damned'
p1958
I2
sS'1auckland'
p1959
I6
sS'prospect'
p1960
I1
sS'dutifully'
p1961
I1
sS'gathering'
p1962
I1
sS'contentious'
p1963
I1
sS"taxpayers'"
p1964
I1
sS'remained'
p1965
I2
sS'wellingtonchatha'
p1966
I1
sS'midmay'
p1967
I2
sS'higgie'
p1968
I2
sS'turned'
p1969
I6
sS'argument'
p1970
I4
sS'voices'
p1971
I1
sS'graham'
p1972
I4
sS'medical'
p1973
I5
sS'stoush'
p1974
I1
sS'journo'
p1975
I1
sS'pastime'
p1976
I1
sS'anytime'
p1977
I1
sS'allen'
p1978
I1
sS'turner'
p1979
I1
sS'recover'
p1980
I1
sS'dismissive'
p1981
I2
sS'windsor'
p1982
I1
sS'kevin'
p1983
I2
sS'frenzied'
p1984
I2
sS'coach'
p1985
I1
sS'supermarkets'
p1986
I1
sS'nikola'
p1987
I1
sS'squat'
p1988
I1
sS'cashed'
p1989
I1
sS'was34'
p1990
I1
sS'apiatas'
p1991
I1
sS'fucking'
p1992
I3
sS'oppositethe'
p1993
I1
sS'aside'
p1994
I2
sS'bigger'
p1995
I1
sS'venue'
p1996
I2
sS'nuances'
p1997
I1
sS'potential'
p1998
I5
sS"touch'"
p1999
I2
sS'online'
p2000
I1
sS'objective'
p2001
I3
sS'performance'
p2002
I2
sS'wonder'
p2003
I5
sS'blunt'
p2004
I2
sS'registered'
p2005
I1
sS'chums'
p2006
I1
sS'surfaces'
p2007
I1
sS'handing'
p2008
I2
sS'scaring'
p2009
I1
sS'theatre'
p2010
I1
sS'normal'
p2011
I1
sS'arguing'
p2012
I1
sS'price'
p2013
I4
sS'ambulance'
p2014
I1
sS'healthy'
p2015
I1
sS'yourcompetition'
p2016
I1
sS'assault'
p2017
I1
sS'importantly'
p2018
I1
sS'complaints'
p2019
I2
sS'allege'
p2020
I4
sS'america'
p2021
I4
sS'pages'
p2022
I1
sS'cowgirlbutshe'
p2023
I1
sS'planning'
p2024
I3
sS'michelle'
p2025
I3
sS'operate'
p2026
I1
sS'bishops'
p2027
I1
sS'surprising'
p2028
I1
sS'failure'
p2029
I2
sS'considered'
p2030
I4
sS'average'
p2031
I5
sS'proud'
p2032
I2
sS'blockhead'
p2033
I1
sS'drive'
p2034
I1
sS'contention'
p2035
I1
sS'order'
p2036
I8
sS'illuminating'
p2037
I1
sS'greed'
p2038
I2
sS'slaves'
p2039
I1
sS'jumped'
p2040
I2
sS'hopeless'
p2041
I1
sS'professional'
p2042
I1
sS'senior'
p2043
I6
sS'lindsay'
p2044
I5
sS'nightmare'
p2045
I4
sS'detective'
p2046
I1
sS'39what'
p2047
I1
sS'brush'
p2048
I1
sS'surplus'
p2049
I4
sS'awkward'
p2050
I1
sS'german'
p2051
I1
sS"wellington's"
p2052
I1
sS'allegations'
p2053
I1
sS'contemporary'
p2054
I2
sS'merit'
p2055
I1
sS'nzcan'
p2056
I1
sS'inconsistent'
p2057
I1
sS'serve'
p2058
I2
sS'threshold'
p2059
I1
sS'corner'
p2060
I1
sS'label'
p2061
I2
sS'fifth'
p2062
I1
sS'geography'
p2063
I1
sS'bollocking'
p2064
I1
sS"bomb'"
p2065
I1
sS'upgrade'
p2066
I2
sS'ratio'
p2067
I1
sS'adolf'
p2068
I1
sS'blessedly'
p2069
I1
sS'title'
p2070
I2
sS'husband'
p2071
I4
sS'crime'
p2072
I16
sS'fickle'
p2073
I1
sS'going'
p2074
I31
sS'black'
p2075
I3
sS'avondaleroskill'
p2076
I1
sS'haughey'
p2077
I1
sS'pollsters'
p2078
I2
sS'watching'
p2079
I4
sS'humiliate'
p2080
I1
sS'debating'
p2081
I1
sS'dispute'
p2082
I1
sS'paied'
p2083
I1
sS'ranking'
p2084
I3
sS'anderson'
p2085
I2
sS'closed'
p2086
I5
sS'committed'
p2087
I1
sS'between'
p2088
I17
sS'tissues'
p2089
I1
sS'truly'
p2090
I2
sS'apportioning'
p2091
I1
sS'simplistic'
p2092
I2
sS'hailed'
p2093
I3
sS'masterplan'
p2094
I1
sS'lighter'
p2095
I3
sS'southside'
p2096
I1
sS'honours'
p2097
I5
sS'awaiting'
p2098
I1
sS'recommending'
p2099
I1
sS'celebrate'
p2100
I3
sS'prime'
p2101
I13
sS'randhir'
p2102
I4
sS'regarding'
p2103
I4
sS'199596'
p2104
I1
sS'resource'
p2105
I1
sS'bestselling'
p2106
I1
sS'leather'
p2107
I1
sS'frustrated'
p2108
I2
sS'answering'
p2109
I1
sS'worried'
p2110
I1
sS'naked'
p2111
I2
sS'tuthill'
p2112
I1
sS'overreaction'
p2113
I1
sS'roger'
p2114
I1
sS'bryan'
p2115
I1
sS'though'
p2116
I5
sS'prevents'
p2117
I1
sS'dough'
p2118
I1
sS'discussing'
p2119
I1
sS'prosecutions'
p2120
I1
sS'vision'
p2121
I6
sS'staff'
p2122
I13
sS'affordable'
p2123
I1
sS'learn'
p2124
I3
sS'concert'
p2125
I1
sS'monarchists'
p2126
I7
sS'nonparole'
p2127
I1
sS'physically'
p2128
I1
sS'staged'
p2129
I1
sS'violated'
p2130
I1
sS'airfares'
p2131
I1
sS'choose'
p2132
I3
sS'comparable'
p2133
I1
sS'relative'
p2134
I4
sS'gangster'
p2135
I4
sS'infrastructure'
p2136
I2
sS'asleep'
p2137
I1
sS'parking'
p2138
I1
sS'apologies'
p2139
I1
sS'discredited'
p2140
I1
sS'surgery'
p2141
I1
sS'concern'
p2142
I6
sS'squandering'
p2143
I1
sS'appear'
p2144
I1
sS'suspects'
p2145
I1
sS"mothers'"
p2146
I1
sS"roper's"
p2147
I1
sS'voluntary'
p2148
I1
sS'steadfast'
p2149
I1
sS'wielding'
p2150
I1
sS'harvey'
p2151
I1
sS'review'
p2152
I4
sS'opening'
p2153
I2
sS'sites'
p2154
I2
sS'forecast'
p2155
I5
sS'weapons'
p2156
I4
sS"daughters'"
p2157
I1
sS'behind'
p2158
I6
sS'abdomen'
p2159
I2
sS'staffer'
p2160
I2
sS'10mins'
p2161
I1
sS'surfaced'
p2162
I1
sS'without'
p2163
I11
sS'dunleavy'
p2164
I1
sS'reading'
p2165
I7
sS'across'
p2166
I3
sS'jumper'
p2167
I1
sS'whispered'
p2168
I2
sS'gives'
p2169
I2
sS'notice'
p2170
I1
sS'2nbsp'
p2171
I1
sS'august'
p2172
I3
sS'parent'
p2173
I1
sS'parental'
p2174
I2
sS'march'
p2175
I5
sS'screen'
p2176
I1
sS'keelty'
p2177
I1
sS'inseparable'
p2178
I1
sS'blame'
p2179
I4
sS'adept'
p2180
I1
sS'jovial'
p2181
I1
sS'awards'
p2182
I6
sS'navigation'
p2183
I1
sS'hurts'
p2184
I1
sS"year's"
p2185
I3
sS'article'
p2186
I4
sS'harshly'
p2187
I1
sS'cities'
p2188
I12
sS'suppressed'
p2189
I1
sS'reaction'
p2190
I1
sS'dates'
p2191
I1
sS'perceptions'
p2192
I1
sS'rugby'
p2193
I6
sS'taxpayer'
p2194
I2
sS'wanganui'
p2195
I14
sS'embarrassment'
p2196
I1
sS'residence'
p2197
I1
sS'region'
p2198
I1
sS'espiner'
p2199
I1
sS'according'
p2200
I6
sS'millionaire'
p2201
I1
sS'conference'
p2202
I8
sS'enabling'
p2203
I2
sS'apiata'
p2204
I12
sS'concentrate'
p2205
I1
sS'workplace'
p2206
I2
sS'desperately'
p2207
I4
sS'holders'
p2208
I1
sS'aotearoa'
p2209
I1
sS'comes'
p2210
I4
sS'nearby'
p2211
I1
sS'korokoro'
p2212
I1
sS'forecasting'
p2213
I1
sS'labours'
p2214
I1
sS'madness'
p2215
I2
sS'cancer'
p2216
I1
sS'impost'
p2217
I1
sS'continuation'
p2218
I1
sS'mandate'
p2219
I1
sS'period'
p2220
I7
sS'insist'
p2221
I1
sS'adjudication'
p2222
I1
sS'accusation'
p2223
I1
sS'nicolle'
p2224
I1
sS'inexplicably'
p2225
I1
sS'clambered'
p2226
I1
sS'browsers'
p2227
I1
sS"couldn't"
p2228
I1
sS'disproportionately'
p2229
I1
sS'slide'
p2230
I3
sS'moreover'
p2231
I3
sS'bizarre'
p2232
I1
sS'centralised'
p2233
I1
sS'skeletons'
p2234
I1
sS'custody'
p2235
I2
sS'sticks'
p2236
I1
sS'caring'
p2237
I2
sS'sensible'
p2238
I2
sS'unusual'
p2239
I2
sS'rickards'
p2240
I3
sS'cycling'
p2241
I1
sS'fallen'
p2242
I1
sS'unconsciousness'
p2243
I1
sS"'golden"
p2244
I1
sS'informed'
p2245
I2
sS'markedly'
p2246
I1
sS"haves'"
p2247
I1
sS'breath'
p2248
I1
sS'punished'
p2249
I5
sS'recyclables'
p2250
I1
sS'dangers'
p2251
I1
sS'outweighed'
p2252
I1
sS'crawford'
p2253
I1
sS'sensibly'
p2254
I1
sS'exhaustion'
p2255
I1
sS'schoolboy'
p2256
I1
sS'wants'
p2257
I5
sS'direction'
p2258
I1
sS'enable'
p2259
I1
sS"'heroic"
p2260
I1
sS'30000'
p2261
I2
sS'fivestrong'
p2262
I1
sS'outgoing'
p2263
I1
sS'unbirthday'
p2264
I3
sS'offered'
p2265
I2
sS'visitors'
p2266
I3
sS'further'
p2267
I13
sS'wounds'
p2268
I2
sS'readings'
p2269
I1
sS'observers'
p2270
I1
sS'photos'
p2271
I1
sS'cleudotype'
p2272
I1
sS'dramatic'
p2273
I1
sS'covers'
p2274
I1
sS'peanuts'
p2275
I1
sS'suspected'
p2276
I1
sS'unclouded'
p2277
I1
sS'everest'
p2278
I1
sS'former'
p2279
I15
sS'actions'
p2280
I9
sS'sedition'
p2281
I1
sS'paying'
p2282
I2
sS'botanic'
p2283
I1
sS'hughes'
p2284
I1
sS'bullocks'
p2285
I1
sS'stand'
p2286
I6
sS'consultant'
p2287
I1
sS'tribal'
p2288
I1
sS'polls'
p2289
I1
sS'legitimise'
p2290
I1
sS'consulted'
p2291
I1
sS'intimately'
p2292
I1
sS'tragedy'
p2293
I1
sS'guessed'
p2294
I1
sS'ongoing'
p2295
I1
sS'flowon'
p2296
I1
sS'editorial'
p2297
I3
sS'promising'
p2298
I2
sS'lastminuite'
p2299
I1
sS'situation'
p2300
I2
sS'shops'
p2301
I3
sS'rally'
p2302
I2
sS'margin'
p2303
I1
sS"person's"
p2304
I2
sS'pepperell'
p2305
I1
sS'then32'
p2306
I1
sS'focussed'
p2307
I2
sS'marehua'
p2308
I2
sS'eventually'
p2309
I1
sS'sawdust'
p2310
I2
sS'endowed'
p2311
I1
sS'specialisation'
p2312
I1
sS'strait'
p2313
I1
sS'purse'
p2314
I1
sS'anaenbsp'
p2315
I1
sS'commander'
p2316
I1
sS'middle'
p2317
I6
sS'someone'
p2318
I7
sS'stewardess'
p2319
I1
sS'entrenching'
p2320
I1
sS'baths'
p2321
I1
sS'mcgregor'
p2322
I1
sS'return'
p2323
I6
sS'maunganui'
p2324
I2
sS'property'
p2325
I3
sS'technology'
p2326
I1
sS'slomo'
p2327
I1
sS'worry'
p2328
I2
sS'diseases'
p2329
I2
sS'joints'
p2330
I1
sS'different'
p2331
I6
sS'annoying'
p2332
I1
sS'develop'
p2333
I3
sS'litigious'
p2334
I1
sS'author'
p2335
I3
sS'threatens'
p2336
I1
sS'granted'
p2337
I3
sS"ambassador's"
p2338
I1
sS'point'
p2339
I12
sS'shifts'
p2340
I2
sS'followers'
p2341
I1
sS'arguments'
p2342
I3
sS'reminder'
p2343
I1
sS'immobilised'
p2344
I1
sS'events'
p2345
I10
sS'extravaganza'
p2346
I2
sS'dated'
p2347
I2
sS'status'
p2348
I3
sS'noble'
p2349
I1
sS'jeffrey'
p2350
I1
sS'males'
p2351
I1
sS'barefoot'
p2352
I1
sS'swiss'
p2353
I2
sS'leonie'
p2354
I1
sS'mockery'
p2355
I2
sS'blackmore'
p2356
I1
sS'births'
p2357
I1
sS'rainy'
p2358
I1
sS'eldine'
p2359
I1
sS'cheers'
p2360
I1
sS'running'
p2361
I7
sS'cullen'
p2362
I7
sS'driven'
p2363
I2
sS'advertisement'
p2364
I4
sS"locke's"
p2365
I1
sS'climbing'
p2366
I1
sS'mothballed'
p2367
I1
sS'totally'
p2368
I1
sS'tradition'
p2369
I1
sS'34the'
p2370
I1
sS'complained'
p2371
I2
sS'politicisation'
p2372
I1
sS'traps'
p2373
I1
sS'journalists'
p2374
I3
sS'charges'
p2375
I7
sS'austria'
p2376
I1
sS'constitutional'
p2377
I12
sS'wellington'
p2378
I35
sS'breezy'
p2379
I1
sS'incorporated'
p2380
I1
sS'costs'
p2381
I3
sS'crimean'
p2382
I1
sS'glorious'
p2383
I1
sS'bottle'
p2384
I1
sS'relied'
p2385
I1
sS'recycling'
p2386
I1
sS'republicans'
p2387
I2
sS'otherwise'
p2388
I6
sS'hysteria'
p2389
I1
sS'bodies'
p2390
I1
sS'effects'
p2391
I1
sS'heaps'
p2392
I1
sS'summer'
p2393
I2
sS'advocating'
p2394
I1
sS'shambolic'
p2395
I1
sS'ultimately'
p2396
I1
sS'gangs'
p2397
I2
sS'fifthequal'
p2398
I1
sS"ministry's"
p2399
I1
sS'being'
p2400
I50
sS'money'
p2401
I16
sS'lolcats'
p2402
I1
sS'valuable'
p2403
I1
sS'civic'
p2404
I1
sS'communities'
p2405
I2
sS'violent'
p2406
I3
sS'summed'
p2407
I1
sS'touch'
p2408
I3
sS"34he'd"
p2409
I1
sS'speed'
p2410
I1
sS'darien'
p2411
I1
sS'hayley'
p2412
I5
sS'weekly'
p2413
I3
sS'announcement'
p2414
I1
sS'alphabetical'
p2415
I1
sS'death'
p2416
I5
sS'beltowski'
p2417
I1
sS'womans'
p2418
I1
sS'thinking'
p2419
I4
sS"we've"
p2420
I3
sS'antismacking'
p2421
I1
sS"everyone's"
p2422
I2
sS'seems'
p2423
I14
sS'screwdrivers'
p2424
I1
sS'confirmed'
p2425
I1
sS'instrument'
p2426
I1
sS'contesting'
p2427
I1
sS'wilkie'
p2428
I1
sS'18monthold'
p2429
I1
sS'treatment'
p2430
I2
sS'prominently'
p2431
I1
sS'struck'
p2432
I1
sS'careers'
p2433
I1
sS'charitibly'
p2434
I1
sS'scheduled'
p2435
I1
sS'tanty'
p2436
I1
sS'larrikins'
p2437
I1
sS'discontent'
p2438
I1
sS'around'
p2439
I26
sS'7year'
p2440
I1
sS'rules'
p2441
I4
sS'disarmament'
p2442
I1
sS'emanated'
p2443
I1
sS'unveil'
p2444
I1
sS'early'
p2445
I11
sS'earnest'
p2446
I1
sS'curry'
p2447
I2
sS'traffic'
p2448
I5
sS'diack'
p2449
I1
sS'listening'
p2450
I2
sS'confined'
p2451
I1
sS'world'
p2452
I20
sS'postal'
p2453
I2
sS'disappointed'
p2454
I1
sS'ugger'
p2455
I1
sS'sensational'
p2456
I1
sS'christina'
p2457
I1
sS'martyrs'
p2458
I1
sS'apple'
p2459
I9
sS'adams'
p2460
I1
sS'christine'
p2461
I1
sS'achieve'
p2462
I1
sS"granted'"
p2463
I1
sS'earthy'
p2464
I1
sS'bracelet'
p2465
I1
sS'exploit'
p2466
I2
sS'miracle'
p2467
I2
sS'wrongful'
p2468
I2
sS'benefit'
p2469
I3
sS'serious'
p2470
I7
sS'either'
p2471
I9
sS'offenders'
p2472
I3
sS'output'
p2473
I1
sS'chinese'
p2474
I2
sS'employees'
p2475
I2
sS'sharp'
p2476
I1
sS'twelve'
p2477
I1
sS'judge'
p2478
I8
sS'fives'
p2479
I1
sS'exposed'
p2480
I3
sS'reveals'
p2481
I1
sS'splash'
p2482
I1
sS'tragedies'
p2483
I1
sS'reversed'
p2484
I1
sS'muddled'
p2485
I1
sS'pacific'
p2486
I1
sS'shallow'
p2487
I1
sS'teenagers'
p2488
I5
sS'bylaws'
p2489
I1
sS'lackeys'
p2490
I1
sS'images'
p2491
I1
sS'diving'
p2492
I1
sS'divine'
p2493
I1
sS'wisely'
p2494
I1
sS'thinks'
p2495
I3
sS'reasons'
p2496
I4
sS'generates'
p2497
I1
sS'deputy'
p2498
I8
sS'gross'
p2499
I3
sS'passions'
p2500
I1
sS'slice'
p2501
I1
sS'cookoff'
p2502
I1
sS'confirm'
p2503
I1
sS'colonial'
p2504
I5
sS'willis'
p2505
I1
sS'stages'
p2506
I2
sS'overly'
p2507
I2
sS'legal'
p2508
I8
sS'conservative'
p2509
I1
sS'chips'
p2510
I2
sS'graeme'
p2511
I3
sS'critical'
p2512
I1
sS'deficit'
p2513
I4
sS'provides'
p2514
I1
sS'aussie'
p2515
I1
sS'stopped'
p2516
I2
sS'ethos'
p2517
I1
sS'feminism'
p2518
I1
sS'willie'
p2519
I8
sS'decent'
p2520
I1
sS'knife'
p2521
I7
sS'victory'
p2522
I2
sS"'community"
p2523
I1
sS'considering'
p2524
I1
sS'welcome'
p2525
I1
sS'electionnbsp'
p2526
I1
sS'contingent'
p2527
I1
sS'power'
p2528
I27
sS'seconds'
p2529
I2
sS'treating'
p2530
I1
sS'whose'
p2531
I5
sS'sofas'
p2532
I1
sS'communicate'
p2533
I1
sS'privatize'
p2534
I1
sS'stunning'
p2535
I1
sS'polite'
p2536
I1
sS'notably'
p2537
I1
sS'broken'
p2538
I2
sS'resign'
p2539
I2
sS'pluralism'
p2540
I1
sS'innocence'
p2541
I11
sS'squarely'
p2542
I1
sS'lifes'
p2543
I1
sS'frances'
p2544
I1
sS'throw'
p2545
I3
sS'comparison'
p2546
I1
sS'stone'
p2547
I1
sS'subdued'
p2548
I1
sS'central'
p2549
I10
sS'origins'
p2550
I1
sS'stations'
p2551
I1
sS'industry'
p2552
I4
sS'capable'
p2553
I1
sS'greater'
p2554
I5
sS'ideology'
p2555
I1
sS'midnight'
p2556
I2
sS'whence'
p2557
I1
sS'journey'
p2558
I2
sS'nothing'
p2559
I9
sS'greatly'
p2560
I1
sS'waded'
p2561
I1
sS'underway'
p2562
I1
sS'butterflies'
p2563
I1
sS'mulianga'
p2564
I1
sS'assassin'
p2565
I1
sS'wills'
p2566
I4
sS'dancing'
p2567
I4
sS'allowing'
p2568
I2
sS'partied'
p2569
I1
sS'knifing'
p2570
I1
sS'quietly'
p2571
I1
sS'burning'
p2572
I1
sS'flawed'
p2573
I1
sS'press'
p2574
I9
sS'image'
p2575
I3
sS'bountiful'
p2576
I1
sS'wariness'
p2577
I1
sS'who8217srunning'
p2578
I1
sS'crossfire'
p2579
I1
sS'protesting'
p2580
I1
sS'organics'
p2581
I1
sS'rising'
p2582
I2
sS'immigrationrelated'
p2583
I1
sS'parties'
p2584
I3
sS'burton'
p2585
I1
sS'begged'
p2586
I1
sS'faced'
p2587
I2
sS'technically'
p2588
I1
sS'theory'
p2589
I2
sS'scratchy'
p2590
I1
sS'weight'
p2591
I3
sS'prepare'
p2592
I1
sS'attaine'
p2593
I1
sS'distinctions'
p2594
I1
sS'strictly'
p2595
I1
sS'exonerated'
p2596
I1
sS'racism'
p2597
I1
sS'start'
p2598
I10
sS'mindless'
p2599
I1
sS'racist'
p2600
I3
sS"seasons'"
p2601
I2
sS'stars'
p2602
I2
sS'cultures'
p2603
I1
sS'decisive'
p2604
I1
sS'valley'
p2605
I2
sS'prisonquot'
p2606
I1
sS'energy'
p2607
I1
sS'immaculate'
p2608
I1
sS'chats'
p2609
I1
sS'compensate'
p2610
I2
sS'complete'
p2611
I5
sS'jafas'
p2612
I1
sS'enough'
p2613
I19
sS'stupid'
p2614
I2
sS'peggy'
p2615
I1
sS'richandfamous'
p2616
I1
sS'pleased'
p2617
I1
sS'younger'
p2618
I1
sS'societal'
p2619
I1
sS'principles'
p2620
I2
sS'manipulative'
p2621
I1
sS'survived'
p2622
I1
sS'walkway'
p2623
I3
sS'80000'
p2624
I1
sS'nbspshe'
p2625
I1
sS'trying'
p2626
I11
sS'buying'
p2627
I2
sS'bundy'
p2628
I1
sS'abused'
p2629
I1
sS'woman'
p2630
I11
sS'october'
p2631
I12
sS'earley'
p2632
I2
sS'kathryn'
p2633
I1
sS'joint'
p2634
I1
sS'monopoly'
p2635
I1
sS'submitted'
p2636
I2
sS'sisterhood'
p2637
I1
sS'potato'
p2638
I1
sS'anyway'
p2639
I6
sS'assume'
p2640
I1
sS'dirty'
p2641
I2
sS'abuser'
p2642
I1
sS'politically'
p2643
I2
sS'advantage'
p2644
I1
sS'beliefs'
p2645
I1
sS'regimes'
p2646
I1
sS'detailed'
p2647
I1
sS'masculinist'
p2648
I1
sS'unrelated'
p2649
I1
sS'catastrophy'
p2650
I1
sS'momentarily'
p2651
I1
sS'youtube'
p2652
I2
sS'lived'
p2653
I3
sS'describe'
p2654
I1
sS'moved'
p2655
I1
sS'sales'
p2656
I2
sS'general'
p2657
I6
sS'behest'
p2658
I1
sS'tengo'
p2659
I1
sS'educated'
p2660
I1
sS'midweek'
p2661
I1
sS'diversity'
p2662
I1
sS'moves'
p2663
I1
sS'hospitals'
p2664
I1
sS'bishop'
p2665
I2
sS'ninetyfive'
p2666
I1
sS'bisected'
p2667
I1
sS'stumbled'
p2668
I1
sS'beyond'
p2669
I2
sS'heather'
p2670
I4
sS'rubbed'
p2671
I1
sS'morning39s'
p2672
I1
sS'idiot'
p2673
I1
sS'credibility'
p2674
I1
sS'drivers'
p2675
I1
sS'swords'
p2676
I1
sS'corrogated'
p2677
I1
sS"'some"
p2678
I1
sS'insurance'
p2679
I1
sS'tight'
p2680
I1
sS'maire'
p2681
I1
sS'fools'
p2682
I1
sS'forcing'
p2683
I1
sS"shvc's"
p2684
I1
sS'archivestuff'
p2685
I3
sS'preoccupation'
p2686
I1
sS'brash'
p2687
I1
sS'shaun'
p2688
I3
sS'sniggers'
p2689
I1
sS'separate'
p2690
I5
sS'students'
p2691
I7
sS'teeth'
p2692
I1
sS'souls'
p2693
I1
sS'anywhere'
p2694
I2
sS'overreact'
p2695
I1
sS'andrew'
p2696
I6
sS'gifts'
p2697
I1
sS'walker'
p2698
I1
sS'fronts'
p2699
I1
sS'important'
p2700
I8
sS'gayest'
p2701
I1
sS'recognise'
p2702
I3
sS'terry'
p2703
I1
sS'chris'
p2704
I2
sS'bottomend'
p2705
I1
sS'scrutiny'
p2706
I2
sS'powerstation'
p2707
I2
sS"bellamy's"
p2708
I2
sS'building'
p2709
I3
sS'known'
p2710
I3
sS'partitioned'
p2711
I1
sS'you8217renot'
p2712
I2
sS'visits'
p2713
I2
sS'thorn'
p2714
I1
sS'percentage'
p2715
I2
sS"city's"
p2716
I1
sS'landfill'
p2717
I1
sS'posts'
p2718
I2
sS'passed'
p2719
I3
sS'embracing'
p2720
I1
sS'alright'
p2721
I1
sS'overseas'
p2722
I1
sS'vindicate'
p2723
I1
sS'shagging'
p2724
I1
sS'original'
p2725
I7
sS'focusnbspgroups'
p2726
I1
sS'minister'
p2727
I20
sS'represent'
p2728
I3
sS'homes'
p2729
I3
sS'consider'
p2730
I5
sS'founder'
p2731
I1
sS'grassroots'
p2732
I3
sS'caused'
p2733
I3
sS'suburban'
p2734
I1
sS'dollar'
p2735
I3
sS'splitting'
p2736
I2
sS'muchtouted'
p2737
I1
sS'month'
p2738
I4
sS'founded'
p2739
I1
sS'earners'
p2740
I2
sS'debris'
p2741
I1
sS'fairness'
p2742
I1
sS'messy'
p2743
I1
sS'follow'
p2744
I4
sS'faster'
p2745
I1
sS'religious'
p2746
I3
sS'reasoning'
p2747
I2
sS'carpet'
p2748
I2
sS'anderton'
p2749
I3
sS'careful'
p2750
I1
sS'raaymakers'
p2751
I1
sS'disciples'
p2752
I1
sS'hunting'
p2753
I1
sS'auckland'
p2754
I47
sS'assuage'
p2755
I1
sS'restraining'
p2756
I1
sS'thursday'
p2757
I3
sS'spirit'
p2758
I1
sS'riots'
p2759
I1
sS'dance'
p2760
I1
sS'aaron'
p2761
I4
sS'preserved'
p2762
I1
sS'barely'
p2763
I1
sS'smile'
p2764
I2
sS'enjoying'
p2765
I1
sS'homepage'
p2766
I2
sS'immutable'
p2767
I1
sS'adapt'
p2768
I1
sS'twothirds'
p2769
I1
sS'resounding'
p2770
I1
sS'global'
p2771
I2
sS'appointment'
p2772
I3
sS'returned'
p2773
I5
sS'insults'
p2774
I2
sS'predicament'
p2775
I1
sS'caught'
p2776
I8
sS'detention'
p2777
I9
sS'floated'
p2778
I1
sS'baton'
p2779
I1
sS'securityrisk'
p2780
I1
sS'permitted'
p2781
I1
sS'decide'
p2782
I4
sS'surprise'
p2783
I5
sS'scapegoats'
p2784
I1
sS'ticket'
p2785
I6
sS'difference'
p2786
I1
sS'fourth'
p2787
I1
sS'expats'
p2788
I1
sS"robson's"
p2789
I1
sS'cheerful'
p2790
I1
sS'retrial'
p2791
I1
sS'parliaments'
p2792
I2
sS'washing'
p2793
I1
sS'cable'
p2794
I1
sS'mothers'
p2795
I2
sS'heaved'
p2796
I2
sS'prisoners'
p2797
I2
sS'joined'
p2798
I1
sS'grandfather'
p2799
I1
sS'large'
p2800
I9
sS'yesterday39s'
p2801
I2
sS'independence'
p2802
I3
sS'mutterings'
p2803
I1
sS'small'
p2804
I15
sS'possibilities'
p2805
I2
sS"'warm"
p2806
I1
sS"riversdale's"
p2807
I1
sS'correct'
p2808
I5
sS'headache'
p2809
I1
sS'withheld'
p2810
I1
sS'fence'
p2811
I2
sS'appearance'
p2812
I1
sS'penalties'
p2813
I1
sS'streets'
p2814
I4
sS'priority'
p2815
I1
sS'design'
p2816
I2
sS'displays'
p2817
I1
sS'lawyer'
p2818
I1
sS'unthinkable'
p2819
I1
sS'pokies'
p2820
I1
sS'james'
p2821
I6
sS'marginal'
p2822
I1
sS'ladley'
p2823
I1
sS'conscience'
p2824
I2
sS'mcnabb'
p2825
I1
sS'mayoralty'
p2826
I4
sS'stood'
p2827
I1
sS'darkness'
p2828
I3
sS'richard'
p2829
I3
sS'clock'
p2830
I1
sS'deeply'
p2831
I1
sS'section'
p2832
I8
sS'associate'
p2833
I3
sS'eminent'
p2834
I1
sS'burtons'
p2835
I1
sS'witnesses'
p2836
I1
sS'prevailed'
p2837
I1
sS'version'
p2838
I1
sS'constituencynbsp'
p2839
I1
sS'garth'
p2840
I3
sS'nurse'
p2841
I2
sS'applying'
p2842
I1
sS'method'
p2843
I1
sS'contrast'
p2844
I1
sS'movement'
p2845
I5
sS'unsurprisingly'
p2846
I1
sS'policies'
p2847
I3
sS'majestic'
p2848
I1
sS'for8217'
p2849
I1
sS'hungover'
p2850
I1
sS'loose'
p2851
I2
sS'wellwishers'
p2852
I1
sS'leaping'
p2853
I1
sS'answers'
p2854
I1
sS'jonah'
p2855
I1
sS'hours'
p2856
I8
sS'fleming'
p2857
I2
sS'jonas'
p2858
I1
sS'investigating'
p2859
I2
sS'november'
p2860
I4
sS'standard'
p2861
I2
sS'hightech'
p2862
I7
sS'legend'
p2863
I1
sS'loosingloosing'
p2864
I1
sS'campaigns'
p2865
I2
sS'speeches'
p2866
I1
sS'multipartisan'
p2867
I1
sS'unproven'
p2868
I1
sS'ahead'
p2869
I3
sS'marijuana'
p2870
I1
sS'bullshit'
p2871
I1
sS'inspired'
p2872
I1
sS'joiningwestenra'
p2873
I1
sS'experience'
p2874
I4
sS'quizingtonista'
p2875
I1
sS'prior'
p2876
I2
sS'amount'
p2877
I2
sS'acquittal'
p2878
I1
sS'social'
p2879
I6
sS'action'
p2880
I10
sS"would've"
p2881
I2
sS'supervision'
p2882
I1
sS'extant'
p2883
I1
sS'options'
p2884
I4
sS"regime's"
p2885
I1
sS'canonisation'
p2886
I3
sS'changenbsp'
p2887
I2
sS'shorthand'
p2888
I1
sS'zealandonly'
p2889
I1
sS'family'
p2890
I15
sS'suddenly'
p2891
I2
sS'requiring'
p2892
I1
sS'campaignnbsp'
p2893
I1
sS'africa'
p2894
I1
sS"development's"
p2895
I1
sS'marriages'
p2896
I1
sS'excellently'
p2897
I1
sS'backed'
p2898
I1
sS'semester'
p2899
I1
sS'trained'
p2900
I7
sS'pulls'
p2901
I2
sS'establish'
p2902
I1
sS'research'
p2903
I7
sS'select'
p2904
I4
sS'barked'
p2905
I1
sS'environment'
p2906
I4
sS'attendance'
p2907
I1
sS'kaik8217pub'
p2908
I1
sS'takes'
p2909
I2
sS'uniformity'
p2910
I1
sS'henare'
p2911
I3
sS'beginning'
p2912
I1
sS'mulholland'
p2913
I2
sS'sheehan'
p2914
I2
sS'closer'
p2915
I1
sS'charge'
p2916
I7
sS'governance'
p2917
I3
sS'phibbs'
p2918
I1
sS'almost'
p2919
I12
sS'sitter'
p2920
I1
sS'taken'
p2921
I11
sS'restraints'
p2922
I1
sS'markets'
p2923
I2
sS'achieving'
p2924
I1
sS'minor'
p2925
I1
sS'chestnut'
p2926
I1
sS'revolutionary'
p2927
I1
sS'restraint'
p2928
I8
sS'squid'
p2929
I1
sS'marijauanabuggerytakeyourpick'
p2930
I1
sS'knows'
p2931
I1
sS'disarmamentnbsp'
p2932
I1
sS"connell's"
p2933
I1
sS'rammed'
p2934
I1
sS'teamnbsp'
p2935
I1
sS'epistemological'
p2936
I1
sS'chucks'
p2937
I1
sS'tackiness'
p2938
I1
sS'excuse'
p2939
I2
sS'tokerau'
p2940
I1
sS'echelons'
p2941
I1
sS"ain't"
p2942
I2
sS'broke'
p2943
I2
sS'objectification'
p2944
I1
sS'nonviolent'
p2945
I1
sS'benefits'
p2946
I1
sS'mounted'
p2947
I1
sS'suffered'
p2948
I1
sS'disputeout'
p2949
I1
sS'mysteryman'
p2950
I1
sS'respected'
p2951
I3
sS'keeping'
p2952
I4
sS'context'
p2953
I2
sS'1aucklandcom'
p2954
I1
sS'offender'
p2955
I1
sS'philip'
p2956
I1
sS'phillip'
p2957
I1
sS'equation'
p2958
I1
sS'policemen'
p2959
I1
sS'goldsbury'
p2960
I2
sS'coalition'
p2961
I1
sS'flight'
p2962
I1
sS'waitakere'
p2963
I6
sS'ratepayer'
p2964
I2
sS'outwardlyfacing'
p2965
I1
sS'arrangements'
p2966
I2
sS'striped'
p2967
I1
sS'resources'
p2968
I3
sS'caveat'
p2969
I1
sS'starts'
p2970
I2
sS'seagull'
p2971
I1
sS'journos'
p2972
I1
sS'treaty'
p2973
I33
sS'history'
p2974
I5
sS'beautiful'
p2975
I1
sS'shark'
p2976
I1
sS'prompt'
p2977
I2
sS'stated'
p2978
I2
sS'longterm'
p2979
I1
sS"needn't"
p2980
I1
sS'suggestions'
p2981
I1
sS'accept'
p2982
I2
sS'states'
p2983
I4
sS'unbiased'
p2984
I1
sS'minimum'
p2985
I2
sS'appointees'
p2986
I2
sS'numbers'
p2987
I1
sS'novelist'
p2988
I1
sS'sense'
p2989
I4
sS'hourlong'
p2990
I1
sS'exclude'
p2991
I1
sS'cultivate'
p2992
I1
sS'swung'
p2993
I1
sS'boulcott'
p2994
I1
sS'weimar'
p2995
I2
sS'packrapist'
p2996
I1
sS'condemn'
p2997
I1
sS'information'
p2998
I9
sS'respective'
p2999
I2
sS'answer'
p3000
I5
sS'scratchers'
p3001
I2
sS'clint'
p3002
I2
sS'adelaide'
p3003
I2
sS'rather'
p3004
I14
sS'picton'
p3005
I1
sS'clarke'
p3006
I1
sS'greenpeace'
p3007
I6
sS'toddy'
p3008
I8
sS'american'
p3009
I4
sS'dismissed'
p3010
I1
sS'unhurt'
p3011
I1
sS'glowing'
p3012
I1
sS'otaki'
p3013
I2
sS'stemming'
p3014
I1
sS'earnings'
p3015
I1
sS'option'
p3016
I1
sS'extinguished'
p3017
I1
sS'startime'
p3018
I1
sS'endemically'
p3019
I1
sS'ensemble'
p3020
I1
sS'credible'
p3021
I1
sS'canterbury'
p3022
I4
sS'waved'
p3023
I1
sS'simplicity'
p3024
I1
sS'plant'
p3025
I2
sS'plans'
p3026
I5
sS'includes'
p3027
I4
sS'countryside'
p3028
I1
sS'disgraced'
p3029
I1
sS'advice'
p3030
I2
sS'weaknesses'
p3031
I1
sS'brett'
p3032
I2
sS'entrepreneurship'
p3033
I1
sS'umpires'
p3034
I1
sS'tries'
p3035
I1
sS'plane'
p3036
I1
sS'brands'
p3037
I1
sS'blood'
p3038
I3
sS'faculty'
p3039
I1
sS'invasion'
p3040
I1
sS'appealed'
p3041
I1
sS'protects'
p3042
I1
sS'authentic'
p3043
I2
sS'compulsory'
p3044
I1
sS'ulrika'
p3045
I1
sS'refuse'
p3046
I1
sS'short'
p3047
I6
sS'orchard'
p3048
I1
sS'susan'
p3049
I2
sS'beatification'
p3050
I1
sS'wifebeaters'
p3051
I1
sS'description'
p3052
I1
sS'trevor'
p3053
I3
sS'shore'
p3054
I4
sS'bailey'
p3055
I4
sS'tamakimaungakiekie'
p3056
I1
sS'fundamental'
p3057
I2
sS'media'
p3058
I10
sS'banks'
p3059
I5
sS'kumara'
p3060
I1
sS'dream'
p3061
I1
sS'playing'
p3062
I1
sS'davey'
p3063
I1
sS'replied'
p3064
I1
sS'chicks'
p3065
I1
sS'accuse'
p3066
I1
sS'enraged'
p3067
I1
sS'september'
p3068
I5
sS'developed'
p3069
I3
sS"zealand's"
p3070
I6
sS'trade'
p3071
I1
sS'shopfront'
p3072
I1
sS'telling'
p3073
I9
sS'attitude'
p3074
I3
sS'paper'
p3075
I3
sS'scott'
p3076
I4
sS'environmentnbsp'
p3077
I1
sS'committee'
p3078
I9
sS'signs'
p3079
I1
sS'pretext'
p3080
I1
sS'suffer'
p3081
I2
sS'avenue'
p3082
I1
sS'confounded'
p3083
I1
sS'arrogant'
p3084
I1
sS'seeming'
p3085
I1
sS'vaughan'
p3086
I1
sS'previa'
p3087
I1
sS'closednbsp'
p3088
I1
sS'starting'
p3089
I1
sS'carpeted'
p3090
I1
sS'termed'
p3091
I1
sS'botched'
p3092
I2
sS'overexcited'
p3093
I1
sS'actually'
p3094
I8
sS'corpus'
p3095
I1
sS'territorial'
p3096
I1
sS'fourdoor'
p3097
I1
sS'systems'
p3098
I3
sS'attended'
p3099
I2
sS'annual'
p3100
I3
sS'founders'
p3101
I1
sS'inquiry'
p3102
I2
sS'travelling'
p3103
I2
sS'governments'
p3104
I1
sS'might'
p3105
I17
sS'alter'
p3106
I1
sS'reasoningwas'
p3107
I1
sS'colleague'
p3108
I1
sS'worriednbsp'
p3109
I1
sS'evening'
p3110
I3
sS'tyrants'
p3111
I1
sS'sucking'
p3112
I1
sS'focus'
p3113
I3
sS'seeking'
p3114
I1
sS'propose'
p3115
I2
sS'undergone'
p3116
I1
sS'hunter'
p3117
I2
sS'perceived'
p3118
I2
sS'number'
p3119
I8
sS'obeyed'
p3120
I1
sS'olivia'
p3121
I1
sS'norman'
p3122
I1
sS'iridescent'
p3123
I1
sS'party'
p3124
I42
sS'sweeping'
p3125
I1
sS'towering'
p3126
I1
sS'speculate'
p3127
I2
sS'complain'
p3128
I1
sS"tvnz's"
p3129
I1
sS'incoherent'
p3130
I1
sS'mystery'
p3131
I1
sS'procreate'
p3132
I1
sS'document'
p3133
I8
sS'holiday'
p3134
I2
sS'kuperprebble'
p3135
I1
sS'imprisoned'
p3136
I1
sS'fantasy'
p3137
I1
sS'always'
p3138
I7
sS'disseised'
p3139
I1
sS'intervene'
p3140
I1
sS'statement'
p3141
I7
sS'critic'
p3142
I1
sS'bless'
p3143
I1
sS'fearmongering'
p3144
I1
sS'chandra'
p3145
I2
sS'exiled'
p3146
I1
sS'letting'
p3147
I2
sS'found'
p3148
I12
sS'fairy'
p3149
I1
sS'notes'
p3150
I1
sS'lifestyles'
p3151
I1
sS'referred'
p3152
I2
sS'heavy'
p3153
I2
sS'towin'
p3154
I1
sS'everyone'
p3155
I7
sS'england'
p3156
I3
sS'mental'
p3157
I2
sS'hales'
p3158
I2
sS'generation'
p3159
I4
sS'house'
p3160
I8
sS'slain'
p3161
I1
sS'reduce'
p3162
I2
sS'elbows'
p3163
I1
sS'gifford'
p3164
I1
sS'accusors'
p3165
I1
sS'tonite'
p3166
I1
sS'punitive'
p3167
I1
sS'expect'
p3168
I9
sS'ripple'
p3169
I1
sS'organised'
p3170
I1
sS'operation'
p3171
I2
sS'crosse'
p3172
I1
sS'mates'
p3173
I8
sS'event'
p3174
I1
sS'seditious'
p3175
I1
sS'really'
p3176
I23
sS"checkov's"
p3177
I1
sS'given'
p3178
I6
sS'funding'
p3179
I4
sS'alcohol'
p3180
I1
sS'wondered'
p3181
I1
sS'ingham'
p3182
I1
sS'governorgenerals'
p3183
I1
sS'robert'
p3184
I4
sS'since'
p3185
I9
sS'nownobody'
p3186
I1
sS'testify'
p3187
I1
sS'douglas'
p3188
I1
sS'denotes'
p3189
I2
sS'hayden'
p3190
I1
sS'acting'
p3191
I4
sS'signings'
p3192
I1
sS"they'll"
p3193
I2
sS'print'
p3194
I3
sS'learners'
p3195
I1
sS'triennial'
p3196
I1
sS'issue'
p3197
I12
sS'occurs'
p3198
I3
sS'officialnbsp'
p3199
I1
sS'attentions'
p3200
I1
sS'regrets'
p3201
I1
sS'reporting'
p3202
I3
sS'belief'
p3203
I2
sS'risen'
p3204
I1
sS'lawrence'
p3205
I1
sS'moroney'
p3206
I1
sS'1aucklandcomnbsp'
p3207
I1
sS'chortles'
p3208
I1
sS'friday'
p3209
I2
sS'bills'
p3210
I4
sS'horse'
p3211
I1
sS'nzherald'
p3212
I3
sS'effect'
p3213
I3
sS'pleasant'
p3214
I1
sS'houses'
p3215
I1
sS'reason'
p3216
I13
sS'members'
p3217
I11
sS'imagine'
p3218
I4
sS'straightened'
p3219
I1
sS'orewa'
p3220
I1
sS"molloy's"
p3221
I1
sS'rises'
p3222
I6
sS'turnout'
p3223
I1
sS'speculation'
p3224
I1
sS'guest'
p3225
I3
sS'bushes'
p3226
I1
sS'bumped'
p3227
I1
sS'owners'
p3228
I4
sS'convict'
p3229
I1
sS'retained'
p3230
I1
sS'thread'
p3231
I1
sS'launch'
p3232
I1
sS'stalemates'
p3233
I2
sS'sylvester'
p3234
I1
sS"woman's"
p3235
I2
sS'terrible'
p3236
I4
sS'dominionpost'
p3237
I1
sS'purposive'
p3238
I1
sS'leftwing'
p3239
I1
sS'edges'
p3240
I1
sS'expecting'
p3241
I1
sS'elective'
p3242
I1
sS'approach'
p3243
I2
sS'dangerous'
p3244
I3
sS'progressives'
p3245
I1
sS'defrauding'
p3246
I1
sS'recieve'
p3247
I1
sS'hardcore'
p3248
I1
sS'jukebox'
p3249
I1
sS'reinforced'
p3250
I2
sS"door's"
p3251
I1
sS'copper'
p3252
I1
sS'major'
p3253
I8
sS'here8217s'
p3254
I1
sS'probability'
p3255
I1
sS'upper'
p3256
I2
sS'moderately'
p3257
I2
sS'pests'
p3258
I1
sS'knocking'
p3259
I1
sS'brutally'
p3260
I1
sS'zealands'
p3261
I2
sS'valentine'
p3262
I1
sS'sympathy'
p3263
I1
sS'thresher'
p3264
I1
sS'least'
p3265
I4
sS'commenters'
p3266
I1
sS'copped'
p3267
I2
sS'fantabulous'
p3268
I1
sS'wages'
p3269
I4
sS'visions'
p3270
I1
sS'sheep'
p3271
I3
sS'corporal'
p3272
I6
sS'passes'
p3273
I1
sS'guess'
p3274
I2
sS'heads'
p3275
I4
sS'leverage'
p3276
I1
sS'introduction'
p3277
I1
sS'twenty'
p3278
I6
sS'interviews'
p3279
I1
sS'demonstrate'
p3280
I1
sS'threatening'
p3281
I1
sS'leighton'
p3282
I1
sS'wonderful'
p3283
I1
sS'hangi'
p3284
I1
sS'expand'
p3285
I1
sS'saint'
p3286
I3
sS'sixmember'
p3287
I1
sS'compromise'
p3288
I1
sS'essays'
p3289
I1
sS'scheme'
p3290
I3
sS'subsidise'
p3291
I1
sS'observations'
p3292
I2
sS'quothe'
p3293
I3
sS'sympathies'
p3294
I1
sS'pains'
p3295
I1
sS'relationship'
p3296
I2
sS'trapped'
p3297
I1
sS'relieved'
p3298
I1
sS'helloooo'
p3299
I1
sS'gilmer'
p3300
I1
sS'hotel'
p3301
I2
sS'corporations'
p3302
I1
sS'interviewed'
p3303
I3
sS'immediate'
p3304
I2
sS'opponentsexpose'
p3305
I1
sS'whilst'
p3306
I2
sS'luckily'
p3307
I2
sS'boredom'
p3308
I1
sS'doctors'
p3309
I1
sS"zealand'"
p3310
I1
sS'believe'
p3311
I11
sS'stairs'
p3312
I1
sS'startimes'
p3313
I1
sS'modes'
p3314
I1
sS"you'd"
p3315
I1
sS'albeit'
p3316
I1
sS'critically'
p3317
I1
sS'gotten'
p3318
I1
sS'instruction'
p3319
I1
sS'youth'
p3320
I1
sS'tummy'
p3321
I1
sS'marriage'
p3322
I2
sS'supposed'
p3323
I3
sS'hewitt'
p3324
I1
sS'treated'
p3325
I1
sS'remembers'
p3326
I1
sS'risky'
p3327
I1
sS'mickey'
p3328
I11
sS'rationalizations'
p3329
I1
sS'oclock'
p3330
I1
sS'substantiated'
p3331
I1
sS'prechristmas'
p3332
I1
sS'farrar'
p3333
I1
sS'identically'
p3334
I1
sS'fights'
p3335
I2
sS'organisations'
p3336
I2
sS'forlorn'
p3337
I1
sS'initially'
p3338
I2
sS'biggest'
p3339
I4
sS'direct'
p3340
I8
sS'download'
p3341
I2
sS'selling'
p3342
I1
sS'graffiti'
p3343
I1
sS"'personal"
p3344
I1
sS'sentences'
p3345
I2
sS'analysis'
p3346
I4
sS'ilearned'
p3347
I1
sS'confirms'
p3348
I1
sS'organs'
p3349
I1
sS'fading'
p3350
I1
sS'ditched'
p3351
I1
sS'quotthe'
p3352
I6
sS'ratings'
p3353
I2
sS'wilson'
p3354
I2
sS'speaking'
p3355
I2
sS'built'
p3356
I1
sS'milnes'
p3357
I1
sS'depending'
p3358
I2
sS'tarnish'
p3359
I1
sS'arshad'
p3360
I2
sS'officers'
p3361
I1
sS'cockupoh'
p3362
I1
sS'client'
p3363
I1
sS'eighties'
p3364
I1
sS'majority'
p3365
I2
sS'articles'
p3366
I3
sS'internal'
p3367
I3
sS'useless'
p3368
I1
sS"brookfield's"
p3369
I1
sS'murray'
p3370
I1
sS'8211update'
p3371
I1
sS'youre'
p3372
I5
sS'restarant'
p3373
I1
sS'brendon'
p3374
I1
sS'critics'
p3375
I1
sS'quoti'
p3376
I4
sS'afghanistan'
p3377
I2
sS'quote'
p3378
I2
sS'inconvenience'
p3379
I1
sS'reach'
p3380
I1
sS'chart'
p3381
I1
sS'breaking'
p3382
I3
sS'singlet'
p3383
I1
sS'cigarette'
p3384
I1
sS'breathing'
p3385
I1
sS'hired'
p3386
I1
sS'sponsored'
p3387
I1
sS'significant'
p3388
I5
sS"deterrence'"
p3389
I1
sS'services'
p3390
I15
sS'byher'
p3391
I1
sS'chancery'
p3392
I1
sS'extremely'
p3393
I1
sS'approved'
p3394
I2
sS'croft'
p3395
I1
sS'salary'
p3396
I3
sS'waimarino'
p3397
I1
sS'overinflated'
p3398
I1
sS'pliable'
p3399
I1
sS'1000pm'
p3400
I1
sS'unspoken'
p3401
I1
sS'noone'
p3402
I3
sS'sometimes'
p3403
I4
sS'cover'
p3404
I2
sS'commentors'
p3405
I1
sS'inspector'
p3406
I1
sS'hyena'
p3407
I1
sS'charitable'
p3408
I1
sS'blundell'
p3409
I2
sS'bureaucrats'
p3410
I1
sS'organise'
p3411
I1
sS'cultivating'
p3412
I1
sS'clean'
p3413
I3
sS'hindrance'
p3414
I1
sS'charged'
p3415
I4
sS'microsoft'
p3416
I1
sS'lying'
p3417
I1
sS'western'
p3418
I4
sS'sector'
p3419
I3
sS"cottrell's"
p3420
I1
sS'thomas'
p3421
I1
sS'think'
p3422
I27
sS'particularly'
p3423
I3
sS'stunned'
p3424
I3
sS'twoyear'
p3425
I1
sS'flicker'
p3426
I1
sS'hillside'
p3427
I1
sS'businesses'
p3428
I2
sS'entity'
p3429
I1
sS'broadcaster'
p3430
I1
sS"man's"
p3431
I1
sS'fianc'
p3432
I1
sS'overwhelmed'
p3433
I1
sS'costing'
p3434
I1
sS'occupation'
p3435
I1
sS'impact'
p3436
I3
sS'giant'
p3437
I1
sS'heiress'
p3438
I6
sS'northern'
p3439
I1
sS'justice'
p3440
I15
sS'nonpartisan'
p3441
I13
sS'writes'
p3442
I1
sS'writer'
p3443
I3
sS'distributed'
p3444
I1
sS'assertion'
p3445
I1
sS'worthy'
p3446
I2
sS'penalty'
p3447
I1
sS'failed'
p3448
I5
sS'wayne'
p3449
I3
sS'surveyed'
p3450
I1
sS'pretty'
p3451
I3
sS'criticising'
p3452
I1
sS'concisely'
p3453
I1
sS'circle'
p3454
I1
sS'merged'
p3455
I1
sS'sarahkate'
p3456
I1
sS'boulder'
p3457
I1
sS'lombard'
p3458
I1
sS'policing'
p3459
I2
sS'publicity'
p3460
I2
sS'upstanding'
p3461
I1
sS'invoke'
p3462
I1
sS'meanwhile'
p3463
I2
sS'compiled'
p3464
I1
sS'wellurban'
p3465
I1
sS'watering'
p3466
I1
sS"they'd"
p3467
I4
sS'feels'
p3468
I2
sS'storey'
p3469
I1
sS'closely'
p3470
I2
sS'international'
p3471
I8
sS'registration'
p3472
I2
sS'squeaky'
p3473
I1
sS'penaia'
p3474
I1
sS'excuses'
p3475
I1
sS'banner'
p3476
I1
sS'blogging'
p3477
I3
sS'guile'
p3478
I1
sS'enemy'
p3479
I3
sS'catches'
p3480
I1
sS'resolve'
p3481
I1
sS'motorcycles'
p3482
I1
sS'progressive'
p3483
I1
sS'rotomanu'
p3484
I1
sS'celebrates'
p3485
I1
sS'calls'
p3486
I4
sS'brookes'
p3487
I10
sS'sacrifices'
p3488
I1
sS'investigate'
p3489
I3
sS'mistakes'
p3490
I2
sS'croatia'
p3491
I1
sS'common'
p3492
I5
sS'recommendations'
p3493
I2
sS'switzerland'
p3494
I1
sS'obscure'
p3495
I1
sS'river'
p3496
I1
sS'bloated'
p3497
I2
sS'wrote'
p3498
I3
sS'approaching'
p3499
I1
sS'tauras'
p3500
I2
sS'nzare'
p3501
I1
sS'lillee'
p3502
I1
sS'cynical'
p3503
I1
sS'supporting'
p3504
I1
sS'throwing'
p3505
I1
sS'activists'
p3506
I7
sS'bhatnagar'
p3507
I1
sS'monarchies'
p3508
I1
sS'achieves'
p3509
I1
sS'collectively'
p3510
I1
sS'immorality'
p3511
I1
sS'individual'
p3512
I3
sS'migration'
p3513
I1
sS'leanings'
p3514
I1
sS'close'
p3515
I2
sS'constellation'
p3516
I1
sS'comfort'
p3517
I1
sS'locals'
p3518
I1
sS'dwarf'
p3519
I1
sS'outrageous'
p3520
I1
sS'workers'
p3521
I9
sS'campaigner'
p3522
I2
sS'expert'
p3523
I2
sS'visiting'
p3524
I4
sS'stuck'
p3525
I2
sS'distinctive'
p3526
I3
sS"julie's"
p3527
I1
sS'currently'
p3528
I4
sS'electoral'
p3529
I6
sS'exwife'
p3530
I1
sS'powerhouse'
p3531
I1
sS'plush'
p3532
I1
sS'unions'
p3533
I1
sS'classes'
p3534
I2
sS'myriad'
p3535
I1
sS'futile'
p3536
I1
sS'managers'
p3537
I1
sS'probably'
p3538
I2
sS'bottomless'
p3539
I1
sS'champagne'
p3540
I1
sS'conditions'
p3541
I3
sS'beasts'
p3542
I1
sS'thrive'
p3543
I1
sS'risks'
p3544
I1
sS'available'
p3545
I2
sS'quotthere'
p3546
I1
sS'enquiry'
p3547
I2
sS'recently'
p3548
I9
sS'shopsdown'
p3549
I1
sS'excessive'
p3550
I1
sS'missing'
p3551
I2
sS'targeted'
p3552
I1
sS'dividends'
p3553
I1
sS'attention'
p3554
I3
sS'undone'
p3555
I1
sS'taxpayers'
p3556
I3
sS'lunch'
p3557
I3
sS'deliberately'
p3558
I1
sS'let8217s'
p3559
I1
sS'blatant'
p3560
I1
sS'incident'
p3561
I3
sS'nicky'
p3562
I1
sS'printable'
p3563
I3
sS'wielded'
p3564
I1
sS'invisible'
p3565
I1
sS'dividend'
p3566
I1
sS'outlying'
p3567
I1
sS'pissed'
p3568
I2
sS"individualism'"
p3569
I1
sS'substation'
p3570
I1
sS'league'
p3571
I9
sS'prospects'
p3572
I1
sS'herne'
p3573
I2
sS'improved'
p3574
I2
sS'kirwan'
p3575
I1
sS'downloaded'
p3576
I1
sS'influential'
p3577
I2
sS"wouldn't"
p3578
I4
sS'offending'
p3579
I3
sS'declare'
p3580
I1
sS'sensitive'
p3581
I1
sS'connection'
p3582
I1
sS'became'
p3583
I3
sS'electification'
p3584
I1
sS'scams'
p3585
I1
sS'forgotten'
p3586
I2
sS'focused'
p3587
I1
sS'hangout'
p3588
I1
sS'whole'
p3589
I8
sS'13062005'
p3590
I1
sS'reside'
p3591
I1
sS'sentenced'
p3592
I2
sS'wouldnt'
p3593
I2
sS'words'
p3594
I4
sS'majesty'
p3595
I3
sS'drunk'
p3596
I1
sS'battery'
p3597
I2
sS'acted'
p3598
I1
sS'congestion'
p3599
I8
sS'allegiance'
p3600
I1
sS'whatever'
p3601
I4
sS'coincidence'
p3602
I1
sS"colin's"
p3603
I1
sS'fashion'
p3604
I1
sS'simply'
p3605
I18
sS'likes'
p3606
I3
sS'church'
p3607
I3
sS'ieremia'
p3608
I1
sS'townhouse'
p3609
I1
sS'slots'
p3610
I1
sS'improvement'
p3611
I1
sS'underlay'
p3612
I1
sS'eyewitness'
p3613
I1
sS'sheepless'
p3614
I1
sS'39get'
p3615
I1
sS'worthless'
p3616
I2
sS'described'
p3617
I7
sS'contraception'
p3618
I1
sS'agree'
p3619
I4
sS'monthly'
p3620
I1
sS'preamble'
p3621
I1
sS'create'
p3622
I2
sS'acceptance'
p3623
I1
sS'political'
p3624
I35
sS'responsibility'
p3625
I4
sS'strategy'
p3626
I1
sS'convicted'
p3627
I3
sS'geoffrey'
p3628
I1
sS'mikee'
p3629
I1
sS'dropping'
p3630
I1
sS'extravagant'
p3631
I2
sS'ensured'
p3632
I2
sS'ireland'
p3633
I3
sS'denouncing'
p3634
I1
sS'perth'
p3635
I1
sS'empire'
p3636
I1
sS'meeting'
p3637
I2
sS'empty'
p3638
I1
sS'astonishment'
p3639
I1
sS'budgeted'
p3640
I1
sS'alongside'
p3641
I2
sS'partly'
p3642
I1
sS'champion'
p3643
I2
sS'brother'
p3644
I1
sS'girls'
p3645
I4
sS"what's"
p3646
I4
sS'blessings'
p3647
I1
sS'circus'
p3648
I2
sS'convert'
p3649
I1
sS'deter'
p3650
I1
sS'bossley'
p3651
I1
sS"coke's"
p3652
I1
sS'lives'
p3653
I5
sS'bloggrrl'
p3654
I1
sS'predicated'
p3655
I2
sS'demand'
p3656
I1
sS'prices'
p3657
I2
sS'insiders'
p3658
I1
sS'towns'
p3659
I1
sS'awfully'
p3660
I1
sS'extensive'
p3661
I4
sS'doctorates'
p3662
I1
sS'honestly'
p3663
I1
sS'wake45up'
p3664
I1
sS'stolen'
p3665
I1
sS'politician'
p3666
I7
sS'solid'
p3667
I2
sS'judicial'
p3668
I1
sS'enrollment'
p3669
I1
sS'expanded'
p3670
I3
sS'tolerate'
p3671
I1
sS'budget'
p3672
I3
sS'governor'
p3673
I2
sS'cluster'
p3674
I1
sS'technical'
p3675
I1
sS'while'
p3676
I36
sS'substantial'
p3677
I3
sS'replaced'
p3678
I3
sS'ought'
p3679
I2
sS'leaning'
p3680
I1
sS"'dutiful"
p3681
I1
sS'mitchell'
p3682
I3
sS'sevenyear'
p3683
I1
sS'advising'
p3684
I1
sS'indulging'
p3685
I1
sS"mongrel'"
p3686
I1
sS'selected'
p3687
I1
sS'larger'
p3688
I3
sS'orders'
p3689
I1
sS'reassure'
p3690
I3
sS'voters'
p3691
I5
sS'backing'
p3692
I1
sS'mystic'
p3693
I1
sS'cleaned'
p3694
I1
sS'binding'
p3695
I1
sS'ducks'
p3696
I4
sS'decoration'
p3697
I1
sS'rulers'
p3698
I1
sS'reads'
p3699
I1
sS'equalopportunities'
p3700
I1
sS'frantic'
p3701
I1
sS'lodged'
p3702
I1
sS'triple'
p3703
I1
sS'wanganuis'
p3704
I2
sS'fairer'
p3705
I1
sS'cuisine'
p3706
I1
sS'lengthy'
p3707
I2
sS'italy'
p3708
I2
sS'justification'
p3709
I1
sS'grant'
p3710
I7
sS'mainly'
p3711
I2
sS'gillies'
p3712
I12
sS'disappearance'
p3713
I1
sS'ponting'
p3714
I1
sS'marcus'
p3715
I1
sS'constricting'
p3716
I1
sS'hinchcliffe'
p3717
I4
sS'firearms'
p3718
I1
sS'peoples'
p3719
I1
sS'survey'
p3720
I3
sS'inmate'
p3721
I1
sS'prosectuted'
p3722
I1
sS'composition'
p3723
I1
sS'conflict'
p3724
I4
sS'higher'
p3725
I2
sS'development'
p3726
I4
sS'temporary'
p3727
I3
sS'fiscal'
p3728
I1
sS'forced'
p3729
I5
sS'camera'
p3730
I3
sS'gallery'
p3731
I7
sS'blair'
p3732
I3
sS'recovered'
p3733
I1
sS'yesterday'
p3734
I11
sS'attempted'
p3735
I2
sS'stacy'
p3736
I1
sS'warrents'
p3737
I2
sS'moment'
p3738
I4
sS'leapt'
p3739
I1
sS'moving'
p3740
I1
sS'purpose'
p3741
I1
sS'dearnbsp'
p3742
I1
sS'bartlett'
p3743
I1
sS'assortment'
p3744
I1
sS'stack'
p3745
I1
sS'consist'
p3746
I1
sS'recent'
p3747
I10
sS'canned'
p3748
I1
sS'lower'
p3749
I3
sS'doreen'
p3750
I1
sS'finesse'
p3751
I1
sS'older'
p3752
I2
sS'salvation'
p3753
I1
sS'alleging'
p3754
I1
sS'spent'
p3755
I7
sS'county'
p3756
I1
sS'obviously'
p3757
I3
sS'sports'
p3758
I2
sS'person'
p3759
I11
sS'priced'
p3760
I1
sS'inflation'
p3761
I5
sS'patents'
p3762
I1
sS'withdraw'
p3763
I1
sS'thoroughly'
p3764
I2
sS'kelly'
p3765
I1
sS'entry'
p3766
I2
sS'spend'
p3767
I3
sS'lattes'
p3768
I1
sS'presume'
p3769
I1
sS'threat'
p3770
I5
sS'ludicrous'
p3771
I1
sS'removed'
p3772
I4
sS'crackled'
p3773
I1
sS'competitive'
p3774
I2
sS'arrests'
p3775
I2
sS'shape'
p3776
I2
sS'questions'
p3777
I4
sS'using'
p3778
I5
sS'useful'
p3779
I1
sS'alternative'
p3780
I5
sS'praying'
p3781
I1
sS'injuries'
p3782
I3
sS'decisionquot'
p3783
I1
sS'discipline'
p3784
I2
sS'quasi'
p3785
I1
sS'superficial'
p3786
I1
sS'retirement'
p3787
I1
sS'helping'
p3788
I2
sS'readers'
p3789
I6
sS'youquot'
p3790
I1
sS'admission'
p3791
I1
sS'it8217s'
p3792
I2
sS'advertisements'
p3793
I1
sS'tauranga'
p3794
I2
sS'contractor'
p3795
I1
sS'revenue'
p3796
I2
sS'source'
p3797
I5
sS'threepronged'
p3798
I1
sS'labour'
p3799
I45
sS'parents'
p3800
I6
sS'location'
p3801
I1
sS'sydney'
p3802
I1
sS'bollard'
p3803
I3
sS'relevance'
p3804
I2
sS'contrary'
p3805
I1
sS'furniture'
p3806
I3
sS'easter'
p3807
I1
sS'remaining'
p3808
I2
sS'surprised'
p3809
I2
sS'luxury'
p3810
I3
sS'tamihere'
p3811
I3
sS'customers'
p3812
I1
sS'australia'
p3813
I6
sS'victims'
p3814
I4
sS'forces'
p3815
I2
sS'emergency'
p3816
I2
sS'governorgeneral'
p3817
I18
sS'anonimity'
p3818
I1
sS'couple'
p3819
I7
sS'condemnation'
p3820
I3
sS'wives'
p3821
I1
sS'matters'
p3822
I2
sS'boost'
p3823
I1
sS'commentary'
p3824
I1
sS'damage'
p3825
I2
sS'entrenched'
p3826
I3
sS'bullock'
p3827
I4
sS'hurling'
p3828
I1
sS'projects'
p3829
I3
sS'formal'
p3830
I2
sS'laban'
p3831
I1
sS'imposed'
p3832
I2
sS'zealand'
p3833
I60
sS'submission'
p3834
I2
sS'admitted'
p3835
I2
sS'addressed'
p3836
I1
sS'ignore'
p3837
I2
sS'communications'
p3838
I1
sS'arthur'
p3839
I1
sS'continue'
p3840
I5
sS'pender'
p3841
I2
sS'patrick'
p3842
I5
sS'translated'
p3843
I2
sS'tribes'
p3844
I3
sS'foolish'
p3845
I1
sS'machinegun'
p3846
I1
sS"victim's"
p3847
I1
sS'negroid'
p3848
I1
sS'google'
p3849
I2
sS'partying'
p3850
I1
sS'parade'
p3851
I8
sS'queens'
p3852
I1
sS'diocese'
p3853
I1
sS'drove'
p3854
I3
sS'spring'
p3855
I1
sS'fathers'
p3856
I3
sS'magnificent'
p3857
I1
sS"who've"
p3858
I1
sS'pings'
p3859
I1
sS'robson'
p3860
I1
sS'incriminate'
p3861
I1
sS'loser'
p3862
I1
sS'trends'
p3863
I1
sS'towards'
p3864
I7
sS'russell'
p3865
I2
sS'examples'
p3866
I1
sS'infest'
p3867
I1
sS'kinda'
p3868
I1
sS'curious'
p3869
I1
sS'ourselves'
p3870
I4
sS'brent'
p3871
I2
sS'emigrating'
p3872
I1
sS'delivered'
p3873
I1
sS'acquaintance'
p3874
I1
sS'weathertight'
p3875
I2
sS'resolution'
p3876
I2
sS'contacts'
p3877
I1
sS'mummy'
p3878
I2
sS'affects'
p3879
I1
sS'victim39s'
p3880
I2
sS'18300'
p3881
I1
sS'audience'
p3882
I1
sS'foreign'
p3883
I1
sS'linkages'
p3884
I2
sS'quickly'
p3885
I2
sS'bothwere'
p3886
I1
sS'behave'
p3887
I1
sS'prosecuted'
p3888
I2
sS'increasesquot'
p3889
I1
sS'atlas'
p3890
I1
sS'carried'
p3891
I1
sS'osborne'
p3892
I2
sS"key's"
p3893
I1
sS'trotskyist'
p3894
I3
sS'investigations'
p3895
I1
sS'varying'
p3896
I1
sS'restarants'
p3897
I1
sS'nonreligious'
p3898
I1
sS'dictates'
p3899
I1
sS'continuing'
p3900
I2
sS'agreement'
p3901
I1
sS'refused'
p3902
I1
sS'architects'
p3903
I1
sS'served'
p3904
I5
sS'uncounted'
p3905
I1
sS'chairman'
p3906
I2
sS'relating'
p3907
I1
sS'offspring'
p3908
I1
sS'dictated'
p3909
I1
sS'troops'
p3910
I1
sS'changing'
p3911
I1
sS'seriousness'
p3912
I1
sS'anything'
p3913
I6
sS'signing'
p3914
I3
sS'debate'
p3915
I9
sS'australias'
p3916
I1
sS'reduced'
p3917
I2
sS'melbourne'
p3918
I3
sS'remains'
p3919
I4
sS'regular'
p3920
I1
sS'extensions'
p3921
I1
sS'deserve'
p3922
I2
sS'stuart'
p3923
I2
sS'blocked'
p3924
I1
sS'germany'
p3925
I2
sS'womens'
p3926
I1
sS'gregor'
p3927
I1
sS'silence'
p3928
I1
sS'newstalk'
p3929
I2
sS'miracles'
p3930
I1
sS'seeing'
p3931
I2
sS'association'
p3932
I2
sS'extracurricular'
p3933
I1
sS'schoolbased'
p3934
I1
sS'transmittable'
p3935
I1
sS'mitchellanyon'
p3936
I1
sS'procter'
p3937
I1
sS'within'
p3938
I4
sS'hourthey'
p3939
I1
sS'lawswatch'
p3940
I1
sS'bastards'
p3941
I1
sS'neutrality'
p3942
I1
sS'appropriate'
p3943
I1
sS'controversies'
p3944
I1
sS'primarily'
p3945
I1
sS'returning'
p3946
I1
sS'lesson'
p3947
I1
sS'france'
p3948
I1
sS'bankruptcy'
p3949
I1
sS'calming'
p3950
I1
sS'unavailable'
p3951
I1
sS'criticisms'
p3952
I1
sS'story'
p3953
I25
sS'kirsty'
p3954
I1
sS'warned'
p3955
I2
sS'spending'
p3956
I5
sS'statutory'
p3957
I1
sS'specifically'
p3958
I2
sS'custom'
p3959
I1
sS'moseley'
p3960
I1
sS'crackdown'
p3961
I1
sS'milne'
p3962
I2
sS'reduction'
p3963
I1
sS'heritage'
p3964
I1
sS'forward'
p3965
I9
sS'mayoral'
p3966
I18
sS'bored'
p3967
I1
sS'fisheries'
p3968
I1
sS'record'
p3969
I3
sS'manufacture'
p3970
I1
sS'considerably'
p3971
I1
sS'fabio'
p3972
I1
sS'himself'
p3973
I5
sS'arise'
p3974
I1
sS'elsewhere'
p3975
I1
sS'hapless'
p3976
I1
sS'cockup'
p3977
I5
sS'relaxed'
p3978
I1
sS'motivational'
p3979
I1
sS'peers'
p3980
I1
sS'hoped'
p3981
I4
sS'quothowever'
p3982
I1
sS'timetable'
p3983
I1
sS"sovereign's"
p3984
I1
sS'properly'
p3985
I2
sS'quiescent'
p3986
I1
sS'library'
p3987
I1
sS'tragically'
p3988
I1
sS'overviews'
p3989
I1
sS'hopes'
p3990
I1
sS'embarassed'
p3991
I1
sS'harangue'
p3992
I1
sS'raising'
p3993
I1
sS'groupings'
p3994
I1
sS'nuremberg'
p3995
I1
sS'chronicle'
p3996
I1
sS'skull'
p3997
I2
sS'circuits'
p3998
I1
sS'northland'
p3999
I1
sS"hasn't"
p4000
I2
sS'seven'
p4001
I5
sS'father'
p4002
I2
sS'celebrating'
p4003
I3
sS'grabbed'
p4004
I2
sS'reflects'
p4005
I2
sS'planes'
p4006
I1
sS'fiefs'
p4007
I1
sS'highlight'
p4008
I1
sS'similar'
p4009
I5
sS'calculated'
p4010
I1
sS'yelled'
p4011
I2
sS'insignia'
p4012
I3
sS'popularity'
p4013
I2
sS'aerial'
p4014
I4
sS'adults'
p4015
I1
sS'sometime'
p4016
I1
sS'bureaucracy'
p4017
I3
sS'defined'
p4018
I1
sS'likewise'
p4019
I1
sS'taser'
p4020
I1
sS'mckinnon'
p4021
I4
sS'influence'
p4022
I2
sS'haunt'
p4023
I1
sS'doesn'
p4024
I1
sS'hardly'
p4025
I2
sS'91million'
p4026
I1
sS'single'
p4027
I5
sS'warning'
p4028
I2
sS'aweful'
p4029
I1
sS"frampton's"
p4030
I1
sS'dragging'
p4031
I1
sS'gecko'
p4032
I1
sS'denying'
p4033
I2
sS'fremantle'
p4034
I1
sS'brethren'
p4035
I2
sS'trick'
p4036
I1
sS'fogged'
p4037
I2
sS'ancestors'
p4038
I2
sS'parliament'
p4039
I30
sS'upcoming'
p4040
I1
sS'anthology'
p4041
I1
sS'amounts'
p4042
I2
sS'charitible'
p4043
I1
sS'peace'
p4044
I3
sS'fears'
p4045
I1
sS'plugged'
p4046
I1
sS'application'
p4047
I3
sS'politicians'
p4048
I10
sS'points'
p4049
I6
sS'actors'
p4050
I1
sS'transport'
p4051
I2
sS'fuzzies'
p4052
I1
sS'department'
p4053
I4
sS'sykes'
p4054
I1
sS'reflections'
p4055
I1
sS'explaining'
p4056
I1
sS'scapegoat'
p4057
I1
sS'700000'
p4058
I1
sS'wrongly'
p4059
I1
sS'beginnings'
p4060
I1
sS'provided'
p4061
I3
sS'favourite'
p4062
I3
sS'sided'
p4063
I1
sS"parliament's"
p4064
I2
sS'litigants'
p4065
I1
sS'trustnbsp'
p4066
I1
sS'aussies'
p4067
I1
sS'cranking'
p4068
I1
sS'william'
p4069
I6
sS'springbok'
p4070
I1
sS'meaning'
p4071
I1
sS'rested'
p4072
I1
sS'fitquot'
p4073
I1
sS'suppression'
p4074
I1
sS'pretender'
p4075
I1
sS'ellis'
p4076
I2
sS'desert'
p4077
I1
sS'leaflets'
p4078
I1
sS'revamped'
p4079
I1
sS'invitations'
p4080
I1
sS'statesman'
p4081
I1
sS'rescued'
p4082
I1
sS'required'
p4083
I4
sS'humiliated'
p4084
I2
sS'amused'
p4085
I1
sS'pamphlets'
p4086
I1
sS'depth'
p4087
I2
sS'carrying'
p4088
I1
sS'weights'
p4089
I1
sS'demonstrates'
p4090
I2
sS'inaccuracy'
p4091
I1
sS"she's"
p4092
I3
sS'requires'
p4093
I2
sS'having'
p4094
I10
sS'beholden'
p4095
I1
sS'aguilera'
p4096
I1
sS'kilometre'
p4097
I1
sS'dogged'
p4098
I1
sS'monthsof'
p4099
I1
sS'saying'
p4100
I15
sS'issued'
p4101
I1
sS"valley's"
p4102
I1
sS'results'
p4103
I1
sS'extensively'
p4104
I2
sS'highways'
p4105
I1
sS"'exhibits'"
p4106
I1
sS'swedish'
p4107
I1
sS'outoftown'
p4108
I1
sS'8216practise'
p4109
I1
sS'gossip'
p4110
I1
sS'westwood'
p4111
I2
sS'golfer'
p4112
I1
sS'cases'
p4113
I5
sS'issues'
p4114
I9
sS'seemed'
p4115
I1
sS'christchurch'
p4116
I7
sS'simon'
p4117
I6
sS'turkish'
p4118
I1
sS'anointed'
p4119
I1
sS'harvest'
p4120
I1
sS'concerned'
p4121
I2
sS'wizard'
p4122
I1
sS'young'
p4123
I15
sS'mower'
p4124
I1
sS'literary'
p4125
I2
sS'attackers'
p4126
I1
sS'compost'
p4127
I1
sS'institutions'
p4128
I1
sS'blaze'
p4129
I1
sS'mishandling'
p4130
I2
sS'atomsplitting'
p4131
I1
sS'dislike'
p4132
I2
sS'through'
p4133
I15
sS'waiting'
p4134
I2
sS'indicating'
p4135
I1
sS'brigade'
p4136
I1
sS'uploaded'
p4137
I1
sS'virtuous'
p4138
I2
sS'queen'
p4139
I6
sS'wished'
p4140
I3
sS'torture'
p4141
I1
sS'outside'
p4142
I4
sS'imprisonment'
p4143
I2
sS'continues'
p4144
I2
sS'reopened'
p4145
I1
sS'barbara'
p4146
I3
sS'particularily'
p4147
I1
sS'murder'
p4148
I3
sS'putting'
p4149
I3
sS'enslaved'
p4150
I1
sS'abduction'
p4151
I1
sS'there8217s'
p4152
I2
sS'precinct'
p4153
I1
sS'ending'
p4154
I1
sS'continued'
p4155
I2
sS'mythical'
p4156
I1
sS'taito'
p4157
I1
sS'entire'
p4158
I1
sS'tokyo'
p4159
I1
sS'scrapers'
p4160
I1
sS'targeting'
p4161
I1
sS'gender'
p4162
I2
sS'constitution'
p4163
I1
sS'compassionate'
p4164
I1
sS'michael'
p4165
I17
sS"they've"
p4166
I4
sS'fewer'
p4167
I4
sS'anxious'
p4168
I1
sS"eve's"
p4169
I1
sS'relief'
p4170
I3
sS"public's"
p4171
I1
sS'dealt'
p4172
I1
sS"auditorgeneral's"
p4173
I2
sS'relation'
p4174
I1
sS'300000'
p4175
I1
sS'taits'
p4176
I1
sS'noted'
p4177
I6
sS"government's"
p4178
I3
sS'concluded'
p4179
I2
sS'strongly'
p4180
I1
sS'smaller'
p4181
I1
sS'affadavit'
p4182
I3
sS'bleeding'
p4183
I1
sS'blitz'
p4184
I1
sS'clive'
p4185
I1
sS'waking'
p4186
I1
sS'carefully'
p4187
I3
sS"y'know"
p4188
I1
sS'waimakariri'
p4189
I1
sS'picked'
p4190
I1
sS'earth'
p4191
I3
sS'incidentally'
p4192
I2
sS'copenhagen'
p4193
I1
sS'20yearold'
p4194
I1
sS'among'
p4195
I3
sS'depression'
p4196
I1
sS'victor'
p4197
I1
sS'universities'
p4198
I2
sS'index'
p4199
I1
sS'sausage'
p4200
I1
sS'woodchopping'
p4201
I1
sS'reviewer'
p4202
I1
sS'business'
p4203
I13
sS'morse'
p4204
I2
sS'giving'
p4205
I2
sS'woodend'
p4206
I1
sS'assisted'
p4207
I1
sS'multimedia'
p4208
I1
sS'recommendation'
p4209
I1
sS'expressed'
p4210
I3
sS'practices'
p4211
I1
sS'access'
p4212
I2
sS'consistently'
p4213
I2
sS'augie'
p4214
I5
sS'indian'
p4215
I1
sS'turnaround'
p4216
I2
sS'dompost'
p4217
I1
sS'remain'
p4218
I3
sS'capital'
p4219
I3
sS'collins'
p4220
I3
sS'charade'
p4221
I1
sS'exercise'
p4222
I3
sS'paranoidevery'
p4223
I1
sS"'lives'"
p4224
I1
sS'elect'
p4225
I1
sS'exchange'
p4226
I2
sS'ohoka'
p4227
I1
sS'gathered'
p4228
I1
sS'pushing'
p4229
I1
sS'2frac12'
p4230
I2
sS'nonexistent'
p4231
I1
sS'delivering'
p4232
I1
sS'highly'
p4233
I1
sS'following'
p4234
I6
sS'poverty'
p4235
I1
sS'others'
p4236
I10
sS"god's"
p4237
I1
sS'decision'
p4238
I21
sS"national's"
p4239
I1
sS'talked'
p4240
I1
sS'updatenbsp'
p4241
I1
sS'suggest'
p4242
I6
sS'cyclist'
p4243
I2
sS'great'
p4244
I11
sS'securing'
p4245
I1
sS'metro'
p4246
I1
sS'receive'
p4247
I3
sS'involved'
p4248
I12
sS'overseen'
p4249
I1
sS'hinchliffe'
p4250
I1
sS'contradiction'
p4251
I2
sS'branch'
p4252
I2
sS'reinterpretation'
p4253
I1
sS'resulting'
p4254
I1
sS"america's"
p4255
I1
sS'defeat'
p4256
I3
sS'opinion'
p4257
I5
sS'residents'
p4258
I3
sS'proof'
p4259
I3
sS'makes'
p4260
I3
sS'clicksuite'
p4261
I1
sS'thats'
p4262
I3
sS'named'
p4263
I3
sS'drums'
p4264
I1
sS'clark'
p4265
I9
sS'danger'
p4266
I1
sS'lowpaid'
p4267
I3
sS'manage'
p4268
I1
sS'crazy'
p4269
I1
sS'private'
p4270
I4
sS'sledgehammer'
p4271
I1
sS'brookhammer'
p4272
I1
sS'hardy'
p4273
I1
sS'encumbent'
p4274
I1
sS'gordon'
p4275
I1
sS'names'
p4276
I3
sS'muliaga'
p4277
I6
sS'andrewfalloon'
p4278
I1
sS'expense'
p4279
I2
sS'quotminderquot'
p4280
I1
sS'cloud'
p4281
I1
sS'predicted'
p4282
I1
sS'standing'
p4283
I13
sS'confidence'
p4284
I1
sS'excursions'
p4285
I1
sS'bolshie'
p4286
I1
sS'yearsquot'
p4287
I1
sS'illegal'
p4288
I1
sS'whipping'
p4289
I1
sS'hudson'
p4290
I1
sS'ministers'
p4291
I6
sS'tractorsquot'
p4292
I1
sS'doubt'
p4293
I3
sS'examination'
p4294
I2
sS'refuge'
p4295
I3
sS'vehicle'
p4296
I1
sS'timing'
p4297
I3
sS'agreeable'
p4298
I1
sS'themselves'
p4299
I5
sS'jonathan'
p4300
I2
sS'nonpolitical'
p4301
I9
sS'belgian'
p4302
I1
sS'pencil'
p4303
I1
sS'supposedly'
p4304
I2
sS'unilaterally'
p4305
I1
sS'snatching'
p4306
I1
sS'arresting'
p4307
I1
sS'started'
p4308
I3
sS'statutes'
p4309
I1
sS'vivid'
p4310
I1
sS'occurred'
p4311
I3
sS'improve'
p4312
I1
sS'supplying'
p4313
I1
sS'indispensable'
p4314
I1
sS'operational'
p4315
I1
sS'opposing'
p4316
I1
sS'paroled'
p4317
I2
sS'rubbish'
p4318
I2
sS'framptonpainted'
p4319
I1
sS'todaythe'
p4320
I1
sS'whaleoil'
p4321
I1
sS'division'
p4322
I1
sS'appointee'
p4323
I1
sS'appointed'
p4324
I12
sS'starter'
p4325
I1
sS'women'
p4326
I15
sS'sample'
p4327
I1
sS'account'
p4328
I4
sS'animals'
p4329
I1
sS'aucklanders'
p4330
I1
sS'announcing'
p4331
I1
sS'anika'
p4332
I1
sS'admiring'
p4333
I1
sS'clients'
p4334
I1
sS'prager'
p4335
I4
sS'gruff'
p4336
I1
sS'wildest'
p4337
I1
sS'crossed'
p4338
I3
sS'servants'
p4339
I2
sS'universe'
p4340
I1
sS'mcveagh'
p4341
I2
sS'didnt'
p4342
I2
sS'coffin'
p4343
I2
sS'corrugated'
p4344
I1
sS'control'
p4345
I11
sS'wearing'
p4346
I1
sS'wishes'
p4347
I2
sS'wharf'
p4348
I5
sS'prohibiting'
p4349
I1
sS'council'
p4350
I38
sS'links'
p4351
I5
sS'process'
p4352
I4
sS'proportions'
p4353
I1
sS'purposes'
p4354
I2
sS'escaped'
p4355
I1
sS'effectively'
p4356
I2
sS'hilton'
p4357
I2
sS'taking'
p4358
I2
sS'sought'
p4359
I2
sS'founding'
p4360
I1
sS'voice'
p4361
I1
sS'overtly'
p4362
I1
sS'polling'
p4363
I1
sS'fearsome'
p4364
I1
sS'gains'
p4365
I1
sS'practical'
p4366
I1
sS'educational'
p4367
I2
sS'counting'
p4368
I1
sS'boasting'
p4369
I1
sS'democracy'
p4370
I12
sS'guatemalas'
p4371
I1
sS'turnstiles'
p4372
I1
sS'boxing'
p4373
I1
sS'inaugural'
p4374
I2
sS'arrangement'
p4375
I1
sS'delay'
p4376
I1
sS'located'
p4377
I3
sS'varies'
p4378
I1
sS'winners'
p4379
I1
sS'contempt'
p4380
I1
sS'animal'
p4381
I2
sS'instead'
p4382
I12
sS'mysteries'
p4383
I1
sS'toddler'
p4384
I1
sS'establishment'
p4385
I1
sS'stock'
p4386
I1
sS'fergusonleaky'
p4387
I1
sS'tension'
p4388
I1
sS'cobwebs'
p4389
I1
sS'alwaysthought'
p4390
I1
sS'maternal'
p4391
I1
sS'attend'
p4392
I1
sS'easily'
p4393
I3
sS'waters'
p4394
I1
sS'youve'
p4395
I2
sS'middleaged'
p4396
I1
sS'collection'
p4397
I1
sS'ditzy'
p4398
I1
sS'chiefs'
p4399
I2
sS"link'"
p4400
I1
sS'united'
p4401
I4
sS'ponsonby'
p4402
I1
sS'preferring'
p4403
I1
sS'birthday'
p4404
I3
sS'8216try8217'
p4405
I1
sS'referring'
p4406
I1
sS'engineering'
p4407
I1
sS'introduced'
p4408
I2
sS'advocated'
p4409
I2
sS'whistle'
p4410
I3
sS'pansies'
p4411
I1
sS'arduous'
p4412
I1
sS'guatemala'
p4413
I5
sS'element'
p4414
I1
sS'edicts'
p4415
I1
sS'scoop'
p4416
I1
sS'chief'
p4417
I2
sS'crazed'
p4418
I3
sS'encyclopedia'
p4419
I1
sS'allow'
p4420
I4
sS'takeaway'
p4421
I1
sS'convenor'
p4422
I1
sS'startstart'
p4423
I1
sS'swimming'
p4424
I1
sS'fastest'
p4425
I1
sS'churton'
p4426
I1
sS'antelope'
p4427
I1
sS'holds'
p4428
I3
sS'politicised'
p4429
I5
sS'producer'
p4430
I1
sS'freeing'
p4431
I1
sS'areas'
p4432
I2
sS'speech'
p4433
I9
sS'salivating'
p4434
I1
sS'holyoake'
p4435
I1
sS'struggles'
p4436
I1
sS'produced'
p4437
I2
sS'offences'
p4438
I3
sS'celebrations'
p4439
I2
sS"won't"
p4440
I4
sS'looks'
p4441
I7
sS'during'
p4442
I9
sS'mentioned'
p4443
I3
sS'can39t'
p4444
I1
sS'nonexecutive'
p4445
I2
sS'mcgrath'
p4446
I4
sS'unchecked'
p4447
I1
sS'goodbye'
p4448
I1
sS'warren'
p4449
I1
sS'yknow'
p4450
I1
sS'punchup'
p4451
I1
sS'blake'
p4452
I1
sS'shoplifting'
p4453
I1
sS'bridget'
p4454
I1
sS'brian'
p4455
I7
sS'chosen'
p4456
I1
sS'bothatodd'
p4457
I1
sS'backers'
p4458
I1
sS'sunday'
p4459
I12
sS'winning'
p4460
I3
sS'meantime'
p4461
I1
sS'boardnbsp'
p4462
I1
sS'hobbs'
p4463
I1
sS'degrees'
p4464
I5
sS'copies'
p4465
I2
sS'reilly'
p4466
I1
sS'orange'
p4467
I1
sS'covered'
p4468
I1
sS'criminal'
p4469
I4
sS'crowds'
p4470
I1
sS'spreading'
p4471
I1
sS'forest'
p4472
I1
sS'bolting'
p4473
I1
sS'freeman'
p4474
I1
sS'bumbling'
p4475
I2
sS'skilled'
p4476
I2
sS'locating'
p4477
I1
sS'lunatic'
p4478
I1
sS'python'
p4479
I1
sS'cardno'
p4480
I1
sS'practice'
p4481
I2
sS'urewera'
p4482
I5
sS'flout'
p4483
I1
sS'mention'
p4484
I3
sS'courtroom'
p4485
I1
sS'geddis'
p4486
I1
sS'hands'
p4487
I4
sS'front'
p4488
I10
sS'insisting'
p4489
I1
sS'garner'
p4490
I1
sS'realize'
p4491
I1
sS'presidential'
p4492
I1
sS'strive'
p4493
I1
sS'state'
p4494
I48
sS'peaceful'
p4495
I1
sS'february'
p4496
I4
sS'speaks'
p4497
I2
sS'birdwing'
p4498
I1
sS'greens'
p4499
I4
sS'opine'
p4500
I1
sS'university'
p4501
I11
sS'countries'
p4502
I5
sS'blowout'
p4503
I1
sS'pathway'
p4504
I2
sS'preelection'
p4505
I1
sS"disobedience'"
p4506
I1
sS'transmitted'
p4507
I1
sS'inlocal'
p4508
I1
sS'truth'
p4509
I6
sS'brendan'
p4510
I1
sS'accompanied'
p4511
I1
sS'beneath'
p4512
I1
sS'economy'
p4513
I2
sS'wellingtonista'
p4514
I2
sS'experienced'
p4515
I1
sS'prevailing'
p4516
I2
sS'commonwealth'
p4517
I2
sS'otago'
p4518
I2
sS'thwart'
p4519
I1
sS'anklet'
p4520
I1
sS'junkets'
p4521
I1
sS'doing'
p4522
I22
sS'aucklandnbsp'
p4523
I1
sS'dreaming'
p4524
I1
sS'staying'
p4525
I1
sS'related'
p4526
I4
sS'kitchen'
p4527
I1
sS'society'
p4528
I14
sS'books'
p4529
I1
sS'exacerbates'
p4530
I1
sS'remove'
p4531
I1
sS"westenra's"
p4532
I1
sS'banal'
p4533
I1
sS'margins'
p4534
I1
sS'differ'
p4535
I1
sS'agriculture'
p4536
I1
sS'shearing'
p4537
I1
sS'special'
p4538
I2
sS'hippopotamus'
p4539
I1
sS'economically'
p4540
I2
sS'semen'
p4541
I2
sS'offsetting'
p4542
I1
sS'interpreted'
p4543
I1
sS'reawakening'
p4544
I1
sS'undemocratic'
p4545
I1
sS'occupied'
p4546
I1
sS'relinquishing'
p4547
I1
sS'apartment'
p4548
I1
sS'anbspyoung'
p4549
I1
sS'underfives'
p4550
I1
sS'insisted'
p4551
I1
sS'citynbsp'
p4552
I1
sS'activist'
p4553
I6
sS'smashyour'
p4554
I1
sS'shambles'
p4555
I2
sS'scimitar'
p4556
I1
sS'mongolia'
p4557
I1
sS'forlong'
p4558
I1
sS'blowouts'
p4559
I1
sS'cause'
p4560
I7
sS'sacrifice'
p4561
I2
sS'announced'
p4562
I5
sS"one's"
p4563
I1
sS'deals'
p4564
I2
sS'model'
p4565
I4
sS'shitload'
p4566
I1
sS'fogelberg'
p4567
I1
sS'experiment'
p4568
I2
sS'raise'
p4569
I3
sS'wines'
p4570
I3
sS'frank'
p4571
I1
sS'godly'
p4572
I1
sS'activity'
p4573
I1
sS'delegates'
p4574
I1
sS'mequot'
p4575
I2
sS'embassy'
p4576
I1
sS'attending'
p4577
I1
sS'completely'
p4578
I6
sS'please'
p4579
I6
sS'surely'
p4580
I3
sS'nonceleb'
p4581
I1
sS'tempt'
p4582
I1
sS'ridge'
p4583
I1
sS'delegated'
p4584
I1
sS'disgusted'
p4585
I1
sS'likelihood'
p4586
I2
sS'assiduously'
p4587
I1
sS'resumed'
p4588
I1
sS'scary'
p4589
I1
sS'worldwar'
p4590
I1
sS'backwards'
p4591
I1
sS'crashed'
p4592
I1
sS'concerns'
p4593
I2
sS'determining'
p4594
I2
sS'could'
p4595
I37
sS'scars'
p4596
I1
sS'childless'
p4597
I3
sS'irking'
p4598
I1
sS'david'
p4599
I9
sS'conversation'
p4600
I1
sS'nutters'
p4601
I1
sS'woman39s'
p4602
I1
sS'neutron'
p4603
I1
sS'davis'
p4604
I1
sS'retain'
p4605
I1
sS'successor'
p4606
I1
sS'wrongfully'
p4607
I1
sS'framptons'
p4608
I1
sS'south'
p4609
I2
sS'mankind'
p4610
I1
sS'astle'
p4611
I1
sS'jurists'
p4612
I1
sS'clamour'
p4613
I1
sS'evans'
p4614
I3
sS'powerful'
p4615
I2
sS'touring'
p4616
I2
sS'owned'
p4617
I1
sS'brute'
p4618
I1
sS'bonnet'
p4619
I1
sS'standards'
p4620
I1
sS'improvements'
p4621
I1
sS'puppet'
p4622
I2
sS'innovation'
p4623
I1
sS'lagging'
p4624
I1
sS'owner'
p4625
I2
sS'reached'
p4626
I1
sS'blows'
p4627
I2
sS'importation'
p4628
I1
sS'quality'
p4629
I5
sS'pauper'
p4630
I1
sS'hiding'
p4631
I3
sS'beatup'
p4632
I1
sS'commendations'
p4633
I2
sS'sharon'
p4634
I1
sS'management'
p4635
I5
sS'sadly'
p4636
I4
sS'reference'
p4637
I4
sS'bears'
p4638
I1
sS'nomination'
p4639
I1
sS'chased'
p4640
I1
sS'system'
p4641
I14
sS'relations'
p4642
I3
sS'lamentable'
p4643
I1
sS'featherston'
p4644
I1
sS'forgery'
p4645
I1
sS'attack'
p4646
I7
sS"listener's"
p4647
I1
sS'pressuring'
p4648
I1
sS'decorations'
p4649
I1
sS'patterson'
p4650
I1
sS'wrapped'
p4651
I1
sS'travelled'
p4652
I1
sS'behaved'
p4653
I1
sS'final'
p4654
I3
sS'beard'
p4655
I1
sS'interests'
p4656
I7
sS'enforcement'
p4657
I1
sS'shell'
p4658
I1
sS'camps'
p4659
I1
sS'fireman'
p4660
I1
sS'rearmed'
p4661
I1
sS'postgraduate'
p4662
I1
sS'explanation'
p4663
I3
sS'nobody'
p4664
I3
sS'apologise'
p4665
I1
sS'lists'
p4666
I2
sS'environmental'
p4667
I2
sS'regards'
p4668
I2
sS'director'
p4669
I4
sS"'needy'"
p4670
I1
sS'alleges'
p4671
I2
sS'vanburn'
p4672
I1
sS'closet'
p4673
I1
sS'loved'
p4674
I2
sS'colleagues'
p4675
I2
sS'culture'
p4676
I2
sS'matarikinetnz'
p4677
I1
sS'bother'
p4678
I2
sS'reacted'
p4679
I1
sS'extraordinarily'
p4680
I1
sS'metre'
p4681
I1
sS'roberts'
p4682
I1
sS'whenever'
p4683
I1
sS'orchestrated'
p4684
I2
sS'ferry'
p4685
I1
sS'maybe'
p4686
I7
sS'identical'
p4687
I1
sS'providing'
p4688
I2
sS'distinguished'
p4689
I1
sS'blogosphere'
p4690
I1
sS'collecting'
p4691
I1
sS'enforced'
p4692
I1
sS'false'
p4693
I2
sS'lightly'
p4694
I1
sS'earliest'
p4695
I1
sS'julian'
p4696
I1
sS'cricket'
p4697
I1
sS"'celebration'"
p4698
I1
sS'tonight'
p4699
I4
sS'corrupt'
p4700
I2
sS'alerted'
p4701
I2
sS'duping'
p4702
I1
sS'defending'
p4703
I1
sS'chambers'
p4704
I1
sS'whowhat'
p4705
I1
sS'apparently'
p4706
I4
sS'clearly'
p4707
I12
sS'crisis'
p4708
I1
sS'screw'
p4709
I1
sS'documents'
p4710
I1
sS'incomes'
p4711
I3
sS'pupils'
p4712
I1
sS'gallipoli'
p4713
I1
sS'8220a'
p4714
I1
sS'seizing'
p4715
I1
sS'vested'
p4716
I3
sS'contact'
p4717
I1
sS'rejects'
p4718
I1
sS'issuing'
p4719
I1
sS'sirianously'
p4720
I1
sS'exalted'
p4721
I1
sS'linda'
p4722
I1
sS'divert'
p4723
I1
sS'injunctions'
p4724
I1
sS'mongrel'
p4725
I1
sS'surfers'
p4726
I1
sS"bachelor's"
p4727
I1
sS'ariki'
p4728
I1
sS'unless'
p4729
I3
sS'agenda'
p4730
I2
sS'ferretand'
p4731
I1
sS'centre'
p4732
I3
sS'pakeha'
p4733
I1
sS"where's"
p4734
I2
sS'offend'
p4735
I2
sS'moths'
p4736
I1
sS'againstfind'
p4737
I1
sS'connected'
p4738
I3
sS'amongst'
p4739
I2
sS'moveable'
p4740
I1
sS'sedan'
p4741
I1
sS'capacity'
p4742
I1
sS'camped'
p4743
I1
sS'sophisticated'
p4744
I1
sS'mcvicar'
p4745
I4
sS'class'
p4746
I5
sS'cellphone'
p4747
I1
sS"clark's"
p4748
I1
sS'postcolonial'
p4749
I2
sS'faumui'
p4750
I1
sS'spleen'
p4751
I1
sS'temptation'
p4752
I1
sS'frederick'
p4753
I1
sS'disease'
p4754
I1
sS'astonishing'
p4755
I1
sS"you'll"
p4756
I2
sS'artificially'
p4757
I1
sS'fiasco'
p4758
I2
sS'highest'
p4759
I5
sS'painting'
p4760
I1
sS'affair'
p4761
I2
sS'selection'
p4762
I3
sS'convinced'
p4763
I1
sS'stream'
p4764
I1
sS'agreed'
p4765
I1
sS'adjudicator'
p4766
I1
sS'tagged'
p4767
I1
sS'quotremuera'
p4768
I1
sS'bring'
p4769
I4
sS'decorative'
p4770
I1
sS'bikes'
p4771
I4
sS'parked'
p4772
I1
sS'nov2002'
p4773
I1
sS'bedroom'
p4774
I1
sS'dorothy'
p4775
I2
sS'utter'
p4776
I2
sS'rough'
p4777
I2
sS'longer'
p4778
I7
sS'economist'
p4779
I1
sS'thicker'
p4780
I1
sS'he39d'
p4781
I1
sS'shoes'
p4782
I1
sS'partners'
p4783
I1
sS'inflationnbsp'
p4784
I1
sS'governorsgeneral'
p4785
I2
sS'based'
p4786
I7
sS'underclassgart'
p4787
I1
sS'tantamount'
p4788
I1
sS'holder'
p4789
I3
sS'shareholder'
p4790
I1
sS'winner'
p4791
I1
sS'credited'
p4792
I1
sS'gouging'
p4793
I1
sS'reveal'
p4794
I1
sS'should'
p4795
I45
sS'surroundings'
p4796
I1
sS'grabber'
p4797
I1
sS'unable'
p4798
I3
sS'candidates'
p4799
I22
sS'constituents'
p4800
I1
sS'attained'
p4801
I1
sS'riding'
p4802
I1
sS'communist'
p4803
I2
sS'marsden'
p4804
I1
sS'local'
p4805
I29
sS'mayors'
p4806
I2
sS'mortality'
p4807
I2
sS'meant'
p4808
I5
sS'means'
p4809
I8
sS'ralston'
p4810
I1
sS'intellectually'
p4811
I1
sS'massacre'
p4812
I1
sS'background'
p4813
I2
sS'lucky'
p4814
I1
sS'prisons'
p4815
I1
sS'likely'
p4816
I7
sS'listener'
p4817
I2
sS'candidatesespecially'
p4818
I1
sS'community'
p4819
I21
sS'fraud'
p4820
I5
sS'fallout'
p4821
I1
sS'werent'
p4822
I2
sS'buyer'
p4823
I1
sS'itisa'
p4824
I1
sS'parlance'
p4825
I1
sS'thomson'
p4826
I1
sS'procedures'
p4827
I4
sS'nearly'
p4828
I4
sS"'unsustainable'"
p4829
I1
sS'quiet'
p4830
I1
sS'smash'
p4831
I2
sS'evolution'
p4832
I1
sS'edenalbert'
p4833
I6
sS'organ'
p4834
I2
sS'ended'
p4835
I2
sS'tolerance'
p4836
I1
sS'19052007'
p4837
I1
sS'stanford'
p4838
I1
sS'subways'
p4839
I1
sS'taxes'
p4840
I2
sS'calling'
p4841
I2
sS'tribute'
p4842
I1
sS"wasn't"
p4843
I6
sS'stuff'
p4844
I10
sS'blurb'
p4845
I2
sS'disclaimer'
p4846
I1
sS'levin'
p4847
I1
sS'proponents'
p4848
I1
sS'including'
p4849
I7
sS'deans'
p4850
I1
sS'fixed'
p4851
I1
sS'dunedin'
p4852
I3
sS'generations'
p4853
I1
sS'relatively'
p4854
I3
sS'guessing'
p4855
I1
sS'iwere'
p4856
I1
sS'problem'
p4857
I15
sS'national'
p4858
I23
sS'shake'
p4859
I1
sS'islamophobia'
p4860
I1
sS'yachties'
p4861
I1
sS'legislated'
p4862
I1
sS'charting'
p4863
I1
sS'officials'
p4864
I3
sS"students'"
p4865
I1
sS'desperate'
p4866
I1
sS'operated'
p4867
I1
sS'flashbacks'
p4868
I2
sS'goingquot'
p4869
I1
sS'creating'
p4870
I2
sS'destroyed'
p4871
I2
sS'academictype'
p4872
I1
sS'drama'
p4873
I1
sS'referenda'
p4874
I3
sS'reform'
p4875
I5
sS'nuclear'
p4876
I11
sS'partisan'
p4877
I3
sS'below'
p4878
I7
sS'discounts'
p4879
I1
sS'written'
p4880
I5
sS'quickest'
p4881
I1
sS'correctly'
p4882
I1
sS'nominees'
p4883
I1
sS'limit'
p4884
I2
sS'neither'
p4885
I1
sS'bunch'
p4886
I2
sS'sabotage'
p4887
I1
sS'email'
p4888
I9
sS'disgruntled'
p4889
I1
sS'bought'
p4890
I2
sS'zeitgeist'
p4891
I1
sS'keynote'
p4892
I1
sS'various'
p4893
I4
sS'reproduced'
p4894
I1
sS'spares'
p4895
I1
sS'generalities'
p4896
I1
sS'over2years'
p4897
I1
sS'jamieson'
p4898
I1
sS'monarchy'
p4899
I10
sS'deliver'
p4900
I1
sS'interfere'
p4901
I1
sS'efficiency'
p4902
I2
sS'belinda'
p4903
I1
sS'sitting'
p4904
I3
sS'police'
p4905
I38
sS'absentee'
p4906
I1
sS'biosecurity'
p4907
I2
sS'marty'
p4908
I1
sS'restrictions'
p4909
I1
sS'sexed'
p4910
I1
sS'grass'
p4911
I1
sS"ombudsman's"
p4912
I1
sS'multimillion'
p4913
I1
sS'sewerage'
p4914
I1
sS'freely'
p4915
I2
sS'invited'
p4916
I2
sS'antisocial'
p4917
I1
sS'escape'
p4918
I1
sS'equal'
p4919
I3
sS'minds'
p4920
I3
sS'display'
p4921
I4
sS'plenty'
p4922
I2
sS'nicole'
p4923
I2
sS'figures'
p4924
I1
sS'rangiora'
p4925
I1
sS'tactical'
p4926
I1
sS'behaviour'
p4927
I9
sS'passing'
p4928
I3
sS'rodney'
p4929
I1
sS'jersey'
p4930
I1
sS'chest'
p4931
I2
sS'comment'
p4932
I11
sS'fester'
p4933
I1
sS'relevant'
p4934
I3
sS'censorship'
p4935
I1
sS'flecked'
p4936
I1
sS"'shot"
p4937
I1
sS'malcolm'
p4938
I1
sS'disservice'
p4939
I1
sS'habitual'
p4940
I1
sS'solve'
p4941
I1
sS'batch'
p4942
I2
sS'javelin'
p4943
I1
sS'denis'
p4944
I1
sS'laugh'
p4945
I3
sS'cynicism'
p4946
I1
sS'kings'
p4947
I1
sS"nobilo's"
p4948
I1
sS'trackpants'
p4949
I1
sS'republics'
p4950
I7
sS'you8217ve'
p4951
I1
sS'hawkins'
p4952
I2
sS'powered'
p4953
I1
sS'addition'
p4954
I1
sS'catholicism'
p4955
I1
sS'silvia'
p4956
I1
sS'cowboys'
p4957
I1
sS'window'
p4958
I1
sS'statute'
p4959
I1
sS'bwooce'
p4960
I1
sS'exhausted'
p4961
I1
sS'willing'
p4962
I2
sS'growth'
p4963
I3
sS'certain'
p4964
I5
sS'indicators'
p4965
I1
sS'onnbsp'
p4966
I1
sS'proposal'
p4967
I1
sS'waste'
p4968
I8
sS'define'
p4969
I1
sS'suggested'
p4970
I3
sS'senses'
p4971
I1
sS'nonsense'
p4972
I6
sS"helen's"
p4973
I1
sS'painted'
p4974
I8
sS'rioting'
p4975
I2
sS'zealander'
p4976
I3
sS'protect'
p4977
I2
sS'marijuanabuggerylsdtakeyourpick'
p4978
I1
sS'assert'
p4979
I1
sS'policy'
p4980
I7
sS'tense'
p4981
I1
sS'angles'
p4982
I1
sS'showered'
p4983
I1
sS'millar'
p4984
I1
sS'smoking'
p4985
I2
sS'fellow'
p4986
I3
sS'reeves'
p4987
I1
sS'present'
p4988
I4
sS'statist'
p4989
I1
sS'carter'
p4990
I3
sS'mountier'
p4991
I1
sS'ndash'
p4992
I1
sS'basket'
p4993
I1
sS'unlike'
p4994
I5
sS'fearful'
p4995
I1
sS'plain'
p4996
I2
sS'runway'
p4997
I1
sS'harder'
p4998
I3
sS'examine'
p4999
I1
sS'value'
p5000
I2
sS'meridian'
p5001
I1
sS'chalk'
p5002
I1
sS'frameworks'
p5003
I1
sS'hovering'
p5004
I1
sS'fault'
p5005
I3
sS'rigged'
p5006
I1
sS'balance'
p5007
I1
sS'happened'
p5008
I5
sS'avtivists'
p5009
I1
sS'trailer'
p5010
I4
sS'unquestioningly'
p5011
I1
sS'potentialnbsp'
p5012
I1
sS'group'
p5013
I10
sS'ringing'
p5014
I1
sS'plaza'
p5015
I1
sS'resident'
p5016
I3
sS"appeal's"
p5017
I1
sS'certainty'
p5018
I1
sS'ticketnbsp'
p5019
I1
sS'helped'
p5020
I2
sS'examined'
p5021
I1
sS'against'
p5022
I25
sS'politics'
p5023
I3
sS'claimed'
p5024
I3
sS'partner'
p5025
I3
sS'lambs'
p5026
I1
sS'overspend'
p5027
I1
sS'gosche'
p5028
I1
sS'stands'
p5029
I3
sS'hubbard'
p5030
I9
sS'productivity'
p5031
I2
sS'thereby'
p5032
I1
sS'perhaps'
p5033
I5
sS'began'
p5034
I4
sS'valour'
p5035
I1
sS'administration'
p5036
I1
sS'cross'
p5037
I5
sS'member'
p5038
I10
sS'matthew'
p5039
I5
sS'report'
p5040
I19
sS'parts'
p5041
I5
sS'oddities'
p5042
I1
sS'incumbent'
p5043
I2
sS'nosupport'
p5044
I1
sS'outbreak'
p5045
I1
sS'terrorism'
p5046
I1
sS'win8221if'
p5047
I1
sS'solution'
p5048
I3
sS'difficult'
p5049
I4
sS'injured'
p5050
I9
sS'tighten'
p5051
I1
sS'kidnapping'
p5052
I1
sS'practitioner'
p5053
I1
sS'raymond'
p5054
I1
sS"auckland's"
p5055
I4
sS'promoters'
p5056
I1
sS'tuesdaynight'
p5057
I1
sS'breasts'
p5058
I1
sS'drink'
p5059
I2
sS'dalziel'
p5060
I1
sS'unwelcome'
p5061
I1
sS'ferguson'
p5062
I2
sS'forecasts'
p5063
I1
sS'beast'
p5064
I1
sS'presentations'
p5065
I2
sS'assessing'
p5066
I2
sS'student'
p5067
I4
sS'freyberg'
p5068
I1
sS'frequently'
p5069
I1
sS'edmond'
p5070
I1
sS'judgment'
p5071
I3
sS'collar'
p5072
I1
sS'identity'
p5073
I1
sS'destruction'
p5074
I2
sS'audit'
p5075
I1
sS'illogical'
p5076
I1
sS'elinor'
p5077
I1
sS'ashley'
p5078
I1
sS'valerie'
p5079
I2
sS'fully'
p5080
I3
sS'weapon'
p5081
I1
sS'variety'
p5082
I1
sS'householder'
p5083
I1
sS'thought'
p5084
I8
sS'failures'
p5085
I1
sS'flexing'
p5086
I1
sS'gutted'
p5087
I1
sS'personnel'
p5088
I1
sS'firstly'
p5089
I3
sS'position'
p5090
I7
sS'audio'
p5091
I2
sS'draconian'
p5092
I1
sS'latest'
p5093
I7
sS'restore'
p5094
I1
sS'coaster'
p5095
I1
sS'legendary'
p5096
I1
sS'cried'
p5097
I1
sS'littering'
p5098
I1
sS'moments'
p5099
I1
sS'percent'
p5100
I2
sS'accurate'
p5101
I1
sS'wealthy'
p5102
I2
sS'domestic'
p5103
I3
sS'obtain'
p5104
I2
sS'mistaken'
p5105
I1
sS'nazis'
p5106
I1
sS'apolitical'
p5107
I1
sS'trust'
p5108
I4
sS'clocks'
p5109
I1
sS'distant'
p5110
I1
sS'ritchie'
p5111
I1
sS'protecting'
p5112
I3
sS'volunteersnbsp'
p5113
I1
sS'commemoration'
p5114
I2
sS'wether'
p5115
I1
sS'begin'
p5116
I1
sS'sagely'
p5117
I1
sS'claim'
p5118
I9
sS'expendable'
p5119
I1
sS'field'
p5120
I4
sS'headed'
p5121
I2
sS'smith'
p5122
I5
sS'patricia'
p5123
I1
sS'mcconnell'
p5124
I1
sS'undulating'
p5125
I1
sS'gratification'
p5126
I1
sS'simple'
p5127
I3
sS"energy's"
p5128
I3
sS'lured'
p5129
I1
sS'crack'
p5130
I1
sS'executive'
p5131
I8
sS'cullinane'
p5132
I5
sS'practise'
p5133
I3
sS'warrant'
p5134
I2
sS'unprecedented'
p5135
I1
sS'smart'
p5136
I1
sS'resolved'
p5137
I2
sS'vehicles'
p5138
I1
sS'tests'
p5139
I2
sS'navman'
p5140
I2
sS'banquet'
p5141
I1
sS'increased'
p5142
I5
sS'today39s'
p5143
I1
sS'government'
p5144
I53
sS'checking'
p5145
I1
sS"who's"
p5146
I1
sS'judiciary'
p5147
I1
sS'propelled'
p5148
I2
sS'whispers'
p5149
I1
sS'increases'
p5150
I10
sS'historic'
p5151
I1
sS'lightweight'
p5152
I1
sS'munches'
p5153
I1
sS'burden'
p5154
I2
sS'deployment'
p5155
I1
sS'whopping'
p5156
I1
sS'immediately'
p5157
I2
sS'debates'
p5158
I1
sS'cartwright'
p5159
I2
sS'antiparent'
p5160
I1
sS'prominent'
p5161
I2
sS'computerworld'
p5162
I1
sS'offerings'
p5163
I1
sS'showing'
p5164
I4
sS'success'
p5165
I4
sS'chairs'
p5166
I2
sS'crawled'
p5167
I1
sS'accelerating'
p5168
I1
sS"president's"
p5169
I1
sS'sized'
p5170
I1
sS'garage'
p5171
I1
sS'payments'
p5172
I1
sS'martin'
p5173
I5
sS"unitec's"
p5174
I1
sS'become'
p5175
I19
sS'works'
p5176
I4
sS'squillions'
p5177
I1
sS'amendment'
p5178
I2
sS'lance'
p5179
I4
sS'exceed'
p5180
I1
sS'because'
p5181
I53
sS'glare'
p5182
I2
sS'classical'
p5183
I1
sS'takehome'
p5184
I1
sS'newsworthy'
p5185
I1
sS'briefly'
p5186
I2
sS'authority'
p5187
I2
sS'socialists'
p5188
I1
sS'matariki'
p5189
I15
sS'francisco'
p5190
I1
sS'recommision'
p5191
I1
sS'ecocity'
p5192
I1
sS'choosing'
p5193
I1
sS'springs'
p5194
I1
sS'paddock'
p5195
I1
sS'little'
p5196
I17
sS'peter'
p5197
I9
sS'employment'
p5198
I2
sS'thereis'
p5199
I1
sS'recognition'
p5200
I1
sS'happens'
p5201
I4
sS'solving'
p5202
I1
sS'contested'
p5203
I1
sS'throughout'
p5204
I2
sS'divisionary'
p5205
I1
sS'literally'
p5206
I3
sS'kettle'
p5207
I1
sS'upswing'
p5208
I1
sS'morris'
p5209
I1
sS'salaries'
p5210
I1
sS'boultbee'
p5211
I1
sS'civilization'
p5212
I1
sS'wendy'
p5213
I1
sS'assuming'
p5214
I2
sS'forgiven'
p5215
I1
sS'largest'
p5216
I2
sS'headlights'
p5217
I1
sS'leader'
p5218
I6
sS'stockholm'
p5219
I1
sS'locate'
p5220
I1
sS'flatlined'
p5221
I1
sS'ripped'
p5222
I1
sS'blowing'
p5223
I1
sS'maslin'
p5224
I2
sS'realise'
p5225
I3
sS'allout'
p5226
I1
sS'monetary'
p5227
I1
sS'downmarket'
p5228
I1
sS'ability'
p5229
I3
sS'pressure'
p5230
I1
sS'kristin'
p5231
I5
sS'although'
p5232
I10
sS'monumentally'
p5233
I1
sS'posterity'
p5234
I1
sS'abdominal'
p5235
I1
sS'gandalf'
p5236
I1
sS'kaumatua'
p5237
I1
sS'entirely'
p5238
I2
sS'counties'
p5239
I1
sS'stage'
p5240
I3
sS'widespread'
p5241
I1
sS'judging'
p5242
I3
sS'sister'
p5243
I3
sS'focuse'
p5244
I1
sS'lifestyle'
p5245
I1
sS'eradication'
p5246
I5
sS'getting'
p5247
I17
sS'column'
p5248
I4
sS'freedom'
p5249
I4
sS'luxurious'
p5250
I1
sS'stephenson'
p5251
I1
sS'doddle'
p5252
I1
sS'traditionalism'
p5253
I1
sS'nightclub'
p5254
I2
sS'railways'
p5255
I1
sS'holdings'
p5256
I4
sS'delicacies'
p5257
I1
sS'way39quot'
p5258
I1
sS'dominion'
p5259
I2
sS'barnsey'
p5260
I1
sS'gatley'
p5261
I1
sS'concession'
p5262
I1
sS"aren't"
p5263
I2
sS"commission's"
p5264
I2
sS'rhammer'
p5265
I1
sS"speaker's"
p5266
I1
sS'equally'
p5267
I1
sS'alliance'
p5268
I1
sS'letters'
p5269
I1
sS'unsustainable'
p5270
I1
sS'libertarians'
p5271
I1
sS'previously'
p5272
I3
sS'rediscovered'
p5273
I1
sS'guards'
p5274
I1
sS'washington'
p5275
I1
sS'commitment'
p5276
I3
sS'besmirched'
p5277
I1
sS'libertarianz'
p5278
I3
sS'chronic'
p5279
I2
sS'guard'
p5280
I1
sS'doesnt'
p5281
I1
sS'promise'
p5282
I1
sS'esteem'
p5283
I1
sS'female'
p5284
I3
sS'theyd'
p5285
I1
sS'dahya'
p5286
I4
sS"zealander's"
p5287
I1
sS'forget'
p5288
I1
sS'closing'
p5289
I1
sS'prompted'
p5290
I1
sS'hitting'
p5291
I1
sS"'pool'"
p5292
I1
sS'accused'
p5293
I1
sS'additional'
p5294
I2
sS'annabel'
p5295
I1
sS'housing'
p5296
I1
sS'caviar'
p5297
I1
sS'schollum'
p5298
I1
sS'awarded'
p5299
I11
sS'resentment'
p5300
I1
sS'intention'
p5301
I1
sS'andwhatever'
p5302
I1
sS'notices'
p5303
I1
sS'specimens'
p5304
I1
sS'naturally'
p5305
I3
sS'function'
p5306
I2
sS'tricky'
p5307
I1
sS'funnel'
p5308
I1
sS'maori'
p5309
I14
sS'north'
p5310
I10
sS'interest'
p5311
I5
sS'problems'
p5312
I2
sS'shane'
p5313
I1
sS'funds'
p5314
I1
sS'brand'
p5315
I4
sS'billion'
p5316
I5
sS'preparations'
p5317
I1
sS'murder3939'
p5318
I1
sS'delivery'
p5319
I1
sS'expected'
p5320
I2
sS'neutral'
p5321
I2
sS'lowered'
p5322
I1
sS'wealthier'
p5323
I1
sS'courts'
p5324
I2
sS'backstop'
p5325
I4
sS'candidacy'
p5326
I2
sS'advertising'
p5327
I2
sS'deterrence'
p5328
I1
sS'count'
p5329
I1
sS'selfish'
p5330
I2
sS'fragmentation'
p5331
I1
sS'tossed'
p5332
I2
sS'princes'
p5333
I4
sS'places'
p5334
I5
sS'grounds'
p5335
I1
sS'whether'
p5336
I23
sS'httpmikeenzblogspotcom200708standingforedenalbertcommunityboardhtml'
p5337
I1
sS'official'
p5338
I8
sS'hosting'
p5339
I1
sS'signed'
p5340
I1
sS'roped'
p5341
I1
sS'dehumanization'
p5342
I1
sS'placed'
p5343
I1
sS'cruel'
p5344
I1
sS'stories'
p5345
I8
sS'monument'
p5346
I1
sS'fenton'
p5347
I1
sS'static'
p5348
I1
sS'nominations'
p5349
I5
sS'piece'
p5350
I2
sS'minutes'
p5351
I4
sS'12month'
p5352
I1
sS'urging'
p5353
I1
sS'skating'
p5354
I1
sS'bearing'
p5355
I2
sS'irish'
p5356
I5
sS'fundypost'
p5357
I1
sS'universal'
p5358
I1
sS'contribute'
p5359
I1
sS'topless'
p5360
I2
sS'emery'
p5361
I1
sS'beats'
p5362
I1
sS"queen's"
p5363
I4
sS'periods'
p5364
I1
sS'goodness'
p5365
I2
sS'antiterror'
p5366
I1
sS'education'
p5367
I13
sS'naming'
p5368
I1
sS'iratim'
p5369
I1
sS'deeper'
p5370
I1
sS'planting'
p5371
I1
sS'compared'
p5372
I2
sS'worse'
p5373
I3
sS'glendene'
p5374
I1
sS'nonetheless'
p5375
I1
sS'fortunate'
p5376
I1
sS'fencing'
p5377
I1
sS'attacked'
p5378
I1
sS'claiming'
p5379
I2
sS'saviour'
p5380
I1
sS'other'
p5381
I47
sS'keepingus'
p5382
I1
sS'invitees'
p5383
I1
sS'beverages'
p5384
I1
sS'traditional'
p5385
I1
sS'misconceptions'
p5386
I1
sS'fledgling'
p5387
I1
sS'lianne'
p5388
I1
sS'scandal'
p5389
I1
sS'budgeting'
p5390
I1
sS'reckless'
p5391
I1
sS'conclusion'
p5392
I2
sS'dictatorships'
p5393
I1
sS'category'
p5394
I1
sS'prendergast'
p5395
I1
sS'repeat'
p5396
I1
sS'topic'
p5397
I3
sS'monday'
p5398
I2
sS'utilised'
p5399
I1
sS'shredded'
p5400
I1
sS'dismantle'
p5401
I1
sS'outlets'
p5402
I1
sS'pharmac'
p5403
I1
sS'semipresidential'
p5404
I1
sS'margaret'
p5405
I1
sS'chance'
p5406
I4
sS"blair's"
p5407
I1
sS'ground'
p5408
I2
sS'stephen'
p5409
I1
sS'earthly'
p5410
I1
sS'cheque'
p5411
I1
sS'jackson'
p5412
I2
sS'repeal'
p5413
I3
sS'friends'
p5414
I3
sS'christians'
p5415
I3
sS'wilma'
p5416
I5
sS'parttime'
p5417
I1
sS'batting'
p5418
I1
sS'ranks'
p5419
I1
sS'atheist'
p5420
I1
sS'baker'
p5421
I1
sS'factors'
p5422
I1
sS'subscribe'
p5423
I3
sS'persistent'
p5424
I1
sS'perigo'
p5425
I2
sS'strings'
p5426
I1
sS'hikes'
p5427
I2
sS"britain's"
p5428
I1
sS'extras'
p5429
I1
sS"we're"
p5430
I3
sS'defensible'
p5431
I1
sS"ridge's"
p5432
I3
sS'multimilliondollar'
p5433
I1
sS'buttcovering'
p5434
I1
sS'parole'
p5435
I16
sS'gardens'
p5436
I4
sS'simpson'
p5437
I6
s.