(dp1
S'unscientific'
p2
I1
sS'woods'
p3
I1
sS'hanging'
p4
I2
sS'marching'
p5
I2
sS'videoed'
p6
I1
sS'eligible'
p7
I2
sS'electricity'
p8
I17
sS'unanswered'
p9
I1
sS'fingernails'
p10
I1
sS'marketled'
p11
I1
sS'sinking'
p12
I1
sS'constituents8221'
p13
I1
sS'race22082007'
p14
I1
sS'regional'
p15
I3
sS'presser'
p16
I1
sS'bringing'
p17
I2
sS'markers'
p18
I2
sS'uttering'
p19
I1
sS'bassett'
p20
I2
sS'wednesday'
p21
I4
sS'commented'
p22
I1
sS'charter'
p23
I1
sS'tired'
p24
I5
sS'miller'
p25
I1
sS'elections'
p26
I22
sS'elegant'
p27
I1
sS'second'
p28
I14
sS'imploding'
p29
I1
sS'available'
p30
I4
sS'loathing'
p31
I1
sS'8216playing'
p32
I1
sS'brownlee'
p33
I3
sS'errors'
p34
I1
sS'whaling'
p35
I1
sS'contributed'
p36
I1
sS'fingers'
p37
I2
sS'usenet'
p38
I2
sS'increasing'
p39
I6
sS'specialist'
p40
I1
sS'leaning'
p41
I1
sS'atoms'
p42
I1
sS'specialise'
p43
I1
sS'reported'
p44
I6
sS'doesn8217t'
p45
I2
sS'affiliated'
p46
I1
sS'doldrums'
p47
I1
sS'substance'
p48
I3
sS'unwillingness'
p49
I1
sS'climbed'
p50
I1
sS'reports'
p51
I8
sS'controversy'
p52
I3
sS'aampe'
p53
I1
sS'military'
p54
I1
sS'criticism'
p55
I4
sS'golden'
p56
I1
sS'criticise'
p57
I4
sS'explained'
p58
I4
sS'replace'
p59
I8
sS'brought'
p60
I6
sS'beneficiaries'
p61
I3
sS'opponents'
p62
I4
sS'music'
p63
I3
sS'telegraph'
p64
I2
sS'strike'
p65
I8
sS'marchers'
p66
I1
sS'until'
p67
I16
sS'successful'
p68
I11
sS'mercurys'
p69
I1
sS'glass'
p70
I1
sS'milestones'
p71
I1
sS'midst'
p72
I2
sS'circumstances'
p73
I5
sS'morally'
p74
I4
sS"kerr's"
p75
I1
sS'theives'
p76
I1
sS'emitters'
p77
I1
sS'soundbite'
p78
I1
sS'apoplexy'
p79
I1
sS'revenues'
p80
I1
sS'example'
p81
I18
sS"muliaga's"
p82
I2
sS"post's"
p83
I1
sS'household'
p84
I1
sS'malign'
p85
I1
sS'ishowedafriendthepoll'
p86
I1
sS'ridinghard'
p87
I1
sS'absolute'
p88
I1
sS'committeeit8217s'
p89
I1
sS'worldview'
p90
I1
sS'statemoneygrubbing'
p91
I1
sS'beyer'
p92
I4
sS'travel'
p93
I3
sS'damage'
p94
I7
sS'machine'
p95
I5
sS'symposium'
p96
I2
sS'preferable'
p97
I1
sS'wrong'
p98
I20
sS'destined'
p99
I1
sS'sentencing'
p100
I1
sS'quotmeanwhile'
p101
I1
sS'types'
p102
I3
sS'effective'
p103
I6
sS'sickening'
p104
I2
sS'unlawfully'
p105
I1
sS'keeps'
p106
I7
sS'democratic'
p107
I8
sS'feedback'
p108
I1
sS'govern'
p109
I3
sS'didn8217t'
p110
I2
sS'hucker'
p111
I1
sS'marketbased'
p112
I1
sS'matures'
p113
I1
sS'rankings'
p114
I1
sS'wales'
p115
I1
sS'hidden'
p116
I1
sS'easier'
p117
I1
sS'inoculated'
p118
I1
sS'charitablyseriously'
p119
I1
sS'effects'
p120
I2
sS'schools'
p121
I3
sS'internally'
p122
I3
sS'saddened'
p123
I1
sS'represents'
p124
I1
sS'c8217mon'
p125
I1
sS'disconnection'
p126
I2
sS'averse'
p127
I1
sS'interfering'
p128
I1
sS'expectancy'
p129
I1
sS'financial'
p130
I13
sS'series'
p131
I3
sS'allah'
p132
I5
sS'allan'
p133
I1
sS'fortnight'
p134
I1
sS'substantially'
p135
I3
sS'carterton'
p136
I4
sS'encourage'
p137
I6
sS'underfoot'
p138
I1
sS'threatened'
p139
I3
sS'estimate'
p140
I1
sS'enormous'
p141
I3
sS'bater'
p142
I1
sS'ministries'
p143
I1
sS"today's"
p144
I5
sS'1970s'
p145
I1
sS'shacking'
p146
I1
sS'dailies'
p147
I1
sS'secondguessing'
p148
I1
sS'channels'
p149
I1
sS'spinning'
p150
I2
sS'clarity'
p151
I2
sS'gaverment'
p152
I1
sS'service'
p153
I18
sS'similarly'
p154
I1
sS'needed'
p155
I9
sS'master'
p156
I1
sS'listed'
p157
I2
sS'hypothetical'
p158
I1
sS'ranging'
p159
I1
sS'listen'
p160
I5
sS'collapse'
p161
I1
sS'expelling'
p162
I1
sS'wisdom'
p163
I3
sS'predictable'
p164
I1
sS'sulphur'
p165
I1
sS'white'
p166
I4
sS'surer'
p167
I1
sS'peril'
p168
I1
sS'showed'
p169
I1
sS'rotorua'
p170
I1
sS'cccrazy'
p171
I1
sS'nations'
p172
I4
sS'project'
p173
I7
sS'endure'
p174
I1
sS'onnbspstuffconz'
p175
I2
sS'entail'
p176
I2
sS'nutrition'
p177
I1
sS'spectrum'
p178
I4
sS'affairs'
p179
I6
sS'responsible'
p180
I11
sS'recommended'
p181
I1
sS'causing'
p182
I2
sS'reelection'
p183
I2
sS'shall'
p184
I1
sS'object'
p185
I2
sS'victoria'
p186
I6
sS'mouth'
p187
I7
sS'letter'
p188
I6
sS'retaining'
p189
I1
sS'bradford'
p190
I6
sS'gordons'
p191
I1
sS'government8217s'
p192
I2
sS'invercargill'
p193
I1
sS'saying'
p194
I24
sS'meetings'
p195
I2
sS'advisors'
p196
I1
sS'undue'
p197
I1
sS'hounded'
p198
I1
sS'lessons'
p199
I1
sS'apace'
p200
I1
sS'touches'
p201
I2
sS'shuffling'
p202
I1
sS'headline'
p203
I1
sS'scribefire'
p204
I5
sS'theme'
p205
I2
sS'foolishly'
p206
I1
sS'pocket'
p207
I2
sS'reversal'
p208
I1
sS'greens'
p209
I56
sS'release'
p210
I16
sS"leader's"
p211
I2
sS'sanctioning'
p212
I1
sS'respond'
p213
I3
sS'mandatory'
p214
I1
sS'beatup'
p215
I1
sS'expediency'
p216
I1
sS'niche'
p217
I1
sS'yearsusing'
p218
I1
sS'result'
p219
I16
sS'resigned'
p220
I2
sS'clarifies'
p221
I1
sS'doesquot'
p222
I1
sS'spokeswoman'
p223
I2
sS'campaigners'
p224
I1
sS'ambitions'
p225
I2
sS'droves'
p226
I1
sS'pressures'
p227
I6
sS'score'
p228
I4
sS'letting'
p229
I3
sS'parallels'
p230
I1
sS'extend'
p231
I2
sS'nature'
p232
I6
sS'rolled'
p233
I1
sS'councillors'
p234
I1
sS'extent'
p235
I2
sS'carbon'
p236
I3
sS'accident'
p237
I2
sS'disdain'
p238
I1
sS'country'
p239
I19
sS'conclusions'
p240
I3
sS'demanded'
p241
I3
sS'logie'
p242
I1
sS'planned'
p243
I3
sS'waitangi'
p244
I1
sS'logic'
p245
I1
sS'argue'
p246
I5
sS'asked'
p247
I22
sS'organisational'
p248
I1
sS"'doctor'"
p249
I1
sS'shouting'
p250
I1
sS'union'
p251
I7
sS'doomsaying'
p252
I1
sS'criticised'
p253
I2
sS'privilege'
p254
I4
sS'parents'
p255
I19
sS'obese'
p256
I1
sS'worker'
p257
I3
sS'child'
p258
I10
sS'worked'
p259
I6
sS'commerce'
p260
I7
sS'cheapened'
p261
I1
sS'organisers'
p262
I1
sS'remembering'
p263
I1
sS'played'
p264
I3
sS'ditching'
p265
I1
sS'player'
p266
I1
sS'shitflinging'
p267
I1
sS'campaigning'
p268
I11
sS'trusted'
p269
I1
sS'things'
p270
I16
sS'cumulative'
p271
I1
sS'selfreliance'
p272
I1
sS'democracies'
p273
I5
sS'split'
p274
I8
sS'principals'
p275
I1
sS'european'
p276
I3
sS'fairly'
p277
I3
sS'flipflops'
p278
I2
sS'qualifications'
p279
I4
sS'workforce'
p280
I2
sS'marched'
p281
I5
sS'ownership'
p282
I4
sS"someone's"
p283
I1
sS'burgers'
p284
I1
sS'academia'
p285
I1
sS'corporate'
p286
I8
sS'opinions'
p287
I4
sS'sleeps'
p288
I1
sS'homogeneity'
p289
I1
sS"leuschke's"
p290
I1
sS'plight'
p291
I1
sS'previous'
p292
I9
sS'enters'
p293
I1
sS'advancement'
p294
I1
sS'macdonald'
p295
I1
sS'innocent'
p296
I3
sS'match'
p297
I1
sS'scamwatch'
p298
I1
sS'survival'
p299
I2
sS'possible'
p300
I10
sS'possibly'
p301
I5
sS'birth'
p302
I1
sS'unique'
p303
I2
sS'massively'
p304
I1
sS'90000it'
p305
I1
sS'desire'
p306
I4
sS'misled'
p307
I1
sS'steps'
p308
I7
sS'nighties'
p309
I1
sS'right'
p310
I67
sS'creek'
p311
I1
sS'people'
p312
I145
sS'crown'
p313
I1
sS'proportionally'
p314
I1
sS'crows'
p315
I1
sS'billboard'
p316
I1
sS'fiduciary'
p317
I1
sS'enemies'
p318
I1
sS'chorus'
p319
I1
sS'bottom'
p320
I4
sS'individuals'
p321
I7
sS'landscape'
p322
I1
sS'summoned'
p323
I1
sS"anywhere'"
p324
I1
sS"'chewing"
p325
I1
sS'substituted'
p326
I1
sS'shifting'
p327
I1
sS'poppies'
p328
I1
sS'losing'
p329
I4
sS'kedgleythe'
p330
I1
sS'bencher'
p331
I1
sS'benches'
p332
I2
sS'8220helen'
p333
I1
sS'futule'
p334
I1
sS'dollars'
p335
I5
sS'citizens'
p336
I3
sS'entrants'
p337
I2
sS'wsourfi'
p338
I1
sS'slightly'
p339
I6
sS'raised'
p340
I6
sS'statements'
p341
I8
sS'dyson'
p342
I15
sS'honeymoon'
p343
I2
sS'beings'
p344
I3
sS'raises'
p345
I1
sS'reducing'
p346
I2
sS'often'
p347
I22
sS"feely's"
p348
I1
sS'support'
p349
I62
sS'constantly'
p350
I1
sS'humorous'
p351
I1
sS'joseph'
p352
I1
sS'resulted'
p353
I4
sS'bollocks'
p354
I1
sS'overhang'
p355
I4
sS'therefore'
p356
I18
sS'selection'
p357
I4
sS'underestimated'
p358
I2
sS'offer'
p359
I4
sS'conclusively'
p360
I1
sS'soyinka'
p361
I2
sS'talents'
p362
I2
sS'unamended'
p363
I1
sS'robertson'
p364
I1
sS'tasmania'
p365
I3
sS'powder'
p366
I1
sS'masquerading'
p367
I1
sS'asuming'
p368
I1
sS'inside'
p369
I1
sS'rerun'
p370
I1
sS'thricemarried'
p371
I1
sS'fiefdoms'
p372
I1
sS'later'
p373
I6
sS'liberal'
p374
I2
sS'quintupled'
p375
I1
sS'implications'
p376
I1
sS'proven'
p377
I2
sS'heritagewhile'
p378
I1
sS'somebody'
p379
I3
sS'8216focused'
p380
I1
sS'proves'
p381
I1
sS"o'dear"
p382
I1
sS'negotiations'
p383
I3
sS'descriptionwas'
p384
I1
sS'floor'
p385
I3
sS'actor'
p386
I1
sS'flood'
p387
I2
sS'republic'
p388
I3
sS'protester'
p389
I1
sS'ambitious'
p390
I1
sS'becuase'
p391
I1
sS'intend'
p392
I1
sS"consumer's"
p393
I2
sS'palme'
p394
I1
sS'invested'
p395
I1
sS'professional'
p396
I7
sS'rolling'
p397
I1
sS'hawkes'
p398
I2
sS'contacts'
p399
I1
sS'beamed'
p400
I1
sS'overturned'
p401
I1
sS'chain'
p402
I2
sS'perch'
p403
I3
sS'umbrage'
p404
I1
sS'chair'
p405
I3
sS'bribes'
p406
I6
sS"minister's"
p407
I4
sS'freelance'
p408
I1
sS'oversight'
p409
I3
sS'quotsmokestack'
p410
I1
sS'icing'
p411
I1
sS'cheap'
p412
I1
sS'choice'
p413
I10
sS'perview'
p414
I1
sS'stays'
p415
I1
sS'exact'
p416
I2
sS'minute'
p417
I3
sS'amoral'
p418
I1
sS'leave'
p419
I36
sS'pursue'
p420
I1
sS'speculation'
p421
I3
sS'unaware'
p422
I1
sS'prevent'
p423
I2
sS'occurrence'
p424
I1
sS'findings'
p425
I1
sS'insignificant'
p426
I1
sS'thatnbsp'
p427
I1
sS'bagging'
p428
I1
sS'educate'
p429
I1
sS'exempts'
p430
I1
sS'current'
p431
I20
sS'drafted'
p432
I2
sS'climbs'
p433
I1
sS'honour'
p434
I2
sS'funeral'
p435
I3
sS'cullens'
p436
I2
sS'lange'
p437
I1
sS'31000'
p438
I1
sS'nemesis'
p439
I2
sS'yards'
p440
I1
sS'address'
p441
I14
sS'alone'
p442
I9
sS'along'
p443
I13
sS'benson'
p444
I3
sS'brilliant'
p445
I2
sS'studied'
p446
I2
sS'funded'
p447
I10
sS'commonly'
p448
I2
sS'studies'
p449
I2
sS'tasks'
p450
I1
sS'prefer'
p451
I1
sS'halfright'
p452
I1
sS'logical'
p453
I3
sS'bloody'
p454
I4
sS'wwwfamilyfirstorgnzmedia'
p455
I1
sS'working'
p456
I30
sS'positive'
p457
I11
sS'angry'
p458
I3
sS"brownlee's"
p459
I2
sS'opposed'
p460
I10
sS'keynbsp'
p461
I1
sS'46nbsp'
p462
I2
sS'theoretical'
p463
I1
sS'loving'
p464
I1
sS'scratched'
p465
I1
sS'introducing'
p466
I4
sS'afford'
p467
I4
sS'apparent'
p468
I2
sS'approving'
p469
I1
sS'visual'
p470
I1
sS'behalf'
p471
I5
sS'honey'
p472
I1
sS'valued'
p473
I2
sS'lifethreatening'
p474
I1
sS'originally'
p475
I1
sS'abortion'
p476
I4
sS'believes'
p477
I3
sS'values'
p478
I8
sS'believed'
p479
I2
sS'previousnbsppoll'
p480
I1
sS'awesome'
p481
I1
sS'8220can'
p482
I1
sS'allowed'
p483
I11
sS'stole'
p484
I1
sS'evidently'
p485
I1
sS'monitoring'
p486
I1
sS'winter'
p487
I2
sS'sudden'
p488
I1
sS'vainly'
p489
I1
sS'immune'
p490
I3
sS'elephant'
p491
I1
sS'optimal'
p492
I1
sS'taxpayerfunded'
p493
I2
sS'date8217'
p494
I1
sS'misjudgments'
p495
I1
sS'nannystate'
p496
I1
sS'applications'
p497
I1
sS'politicalnbspactivists'
p498
I1
sS'improving'
p499
I1
sS'57nbsp'
p500
I1
sS'revealed'
p501
I7
sS'stress'
p502
I3
sS'natural'
p503
I3
sS'complaining'
p504
I3
sS'gapthere'
p505
I1
sS'definitions'
p506
I1
sS'pulled'
p507
I2
sS'drunken'
p508
I1
sS'unsolicited'
p509
I1
sS'unacceptable'
p510
I1
sS'years'
p511
I52
sS'hiring'
p512
I1
sS'tendency'
p513
I1
sS'constituted'
p514
I1
sS'yawning'
p515
I1
sS'internationally'
p516
I3
sS'britten'
p517
I1
sS'advertisingcampaigning'
p518
I1
sS'petition'
p519
I1
sS'egoismnbsp'
p520
I1
sS'recipients'
p521
I4
sS'nation'
p522
I1
sS'records'
p523
I2
sS'arriving'
p524
I1
sS'httpwwwsolopassioncomnode2642phpsessid03e3e44e75604194ad8469ee1ff86c8d'
p525
I1
sS"hickey's"
p526
I1
sS'probusiness'
p527
I3
sS'tauheinotts'
p528
I1
sS"brash's"
p529
I1
sS'amnesty'
p530
I1
sS'quarter'
p531
I2
sS'square'
p532
I1
sS'repeatno'
p533
I1
sS'revised'
p534
I1
sS'entering'
p535
I3
sS'selfishshellfish'
p536
I1
sS'reveled'
p537
I1
sS'contained'
p538
I2
sS'investigation'
p539
I5
sS'internet'
p540
I7
sS'suggesting'
p541
I3
sS'nz240m'
p542
I1
sS'hibernate'
p543
I1
sS'prostitutes'
p544
I1
sS'million'
p545
I12
sS'governing'
p546
I3
sS'quite'
p547
I20
sS'lucrative'
p548
I1
sS'besides'
p549
I1
sS'scarred'
p550
I1
sS'havenbspshifted'
p551
I1
sS'training'
p552
I17
sS'dunne'
p553
I16
sS'discussing'
p554
I1
sS"saturday's"
p555
I1
sS'gordon'
p556
I9
sS'emotion'
p557
I1
sS'scorers'
p558
I3
sS'garnering'
p559
I1
sS'ignored'
p560
I5
sS'spoken'
p561
I1
sS'clause'
p562
I7
sS'wotyla'
p563
I1
sS'reopen'
p564
I1
sS'wellingtonians'
p565
I1
sS'ripping'
p566
I1
sS'quotif'
p567
I1
sS'quotin'
p568
I1
sS'337greens'
p569
I1
sS'stuffed'
p570
I1
sS'handbook'
p571
I1
sS'structures'
p572
I1
sS'williams'
p573
I7
sS'surges'
p574
I1
sS'proving'
p575
I1
sS'meddling'
p576
I1
sS'ridiculous'
p577
I5
sS'ideologynbsp'
p578
I1
sS'specialists'
p579
I2
sS'inventor'
p580
I2
sS'iceberg'
p581
I1
sS'rival'
p582
I1
sS'tendancy'
p583
I1
sS"o'connor"
p584
I1
sS'actorthat'
p585
I1
sS'future'
p586
I25
sS'damned'
p587
I1
sS'prospect'
p588
I1
sS'dutifully'
p589
I1
sS'considerably'
p590
I3
sS'turned'
p591
I5
sS'argument'
p592
I13
sS"in'it"
p593
I1
sS'8220bleating8221'
p594
I1
sS'allen'
p595
I2
sS'invite'
p596
I1
sS'winmaildat'
p597
I2
sS'aside'
p598
I4
sS'intends'
p599
I3
sS'wanting'
p600
I4
sS'europeans'
p601
I1
sS'merkel8217s'
p602
I1
sS'maneuvering'
p603
I1
sS'opposite'
p604
I3
sS'discerning'
p605
I1
sS'immigration'
p606
I4
sS'knowingly'
p607
I1
sS'pages'
p608
I4
sS'brunton'
p609
I5
sS"benefits'"
p610
I2
sS'farmers'
p611
I1
sS'drive'
p612
I9
sS'unabated'
p613
I2
sS'incentivise'
p614
I1
sS'accented'
p615
I1
sS'surplus'
p616
I2
sS'merit'
p617
I1
sS'thurs'
p618
I1
sS'opportunism'
p619
I4
sS'bright'
p620
I1
sS'soviets'
p621
I3
sS'fibre'
p622
I1
sS'unkind'
p623
I2
sS'recomended'
p624
I1
sS'liberation'
p625
I1
sS'going'
p626
I40
sS'outrage'
p627
I1
sS'dispute'
p628
I2
sS'leaderact'
p629
I1
sS'blanketing'
p630
I1
sS'countered'
p631
I1
sS'prime'
p632
I23
sS'resource'
p633
I1
sS'borrow'
p634
I1
sS'worried'
p635
I8
sS'overreaction'
p636
I1
sS'roger'
p637
I4
sS'bombs'
p638
I1
sS'vision'
p639
I6
sS'inequalities'
p640
I1
sS'enlightening'
p641
I1
sS'alarming'
p642
I1
sS'sites'
p643
I5
sS'partiasan'
p644
I1
sS'enjoys'
p645
I1
sS'scrutinise'
p646
I1
sS'rapacious'
p647
I1
sS'awards'
p648
I1
sS'undermine'
p649
I3
sS'busting'
p650
I1
sS'puerile'
p651
I1
sS'bill8221'
p652
I3
sS'8216the'
p653
I1
sS'loudly'
p654
I2
sS'workplace'
p655
I2
sS'expression'
p656
I2
sS'handouts'
p657
I1
sS'newstalknbsp'
p658
I1
sS'extinct'
p659
I1
sS'considers'
p660
I1
sS'caring'
p661
I5
sS'unconsciousness'
p662
I1
sS'stretch'
p663
I1
sS'locally'
p664
I1
sS'concede'
p665
I3
sS'raging'
p666
I1
sS'combined'
p667
I2
sS'motives'
p668
I1
sS'renewables'
p669
I1
sS'wants'
p670
I14
sS'enable'
p671
I3
sS'thousand'
p672
I1
sS'formed'
p673
I1
sS'readings'
p674
I1
sS'photos'
p675
I1
sS'observe'
p676
I1
sS'former'
p677
I15
sS'000saying'
p678
I1
sS'polls'
p679
I18
sS'consulted'
p680
I1
sS'hayes'
p681
I2
sS'invoking'
p682
I1
sS'policies'
p683
I23
sS'newspaper'
p684
I6
sS'situation'
p685
I11
sS'constituency'
p686
I6
sS'spotlight'
p687
I3
sS'operate'
p688
I3
sS'threequarters'
p689
I1
sS'purse'
p690
I2
sS'dubious'
p691
I1
sS'uncredible'
p692
I1
sS'technology'
p693
I2
sS'expenditures'
p694
I1
sS'breakdown'
p695
I5
sS'sickness'
p696
I11
sS'arden'
p697
I1
sS'membershipunited'
p698
I1
sS'allocation'
p699
I1
sS'cullen'
p700
I50
sS'advertisement'
p701
I10
sS'nonlabour'
p702
I1
sS'renewable'
p703
I1
sS'gingrich'
p704
I4
sS'odium'
p705
I1
sS'costs'
p706
I7
sS"herald's"
p707
I2
sS'dimension'
p708
I1
sS'summer'
p709
I1
sS'morons'
p710
I1
sS'being'
p711
I79
sS'interrupt'
p712
I1
sS'lmcintyreparadisenetnz'
p713
I1
sS'underline'
p714
I1
sS'weekly'
p715
I7
sS'occasional'
p716
I2
sS'contesting'
p717
I1
sS'overthrow'
p718
I1
sS"leigh's"
p719
I1
sS'aspects'
p720
I3
sS'around'
p721
I38
sS'bodeker'
p722
I1
sS'traffic'
p723
I1
sS'world'
p724
I19
sS'vague'
p725
I4
sS'legalised'
p726
I5
sS'stranger'
p727
I1
sS'sausagefactory'
p728
I1
sS'montesquieu'
p729
I1
sS'discarded'
p730
I1
sS'supplementary'
p731
I4
sS'brits'
p732
I1
sS'divine'
p733
I1
sS'thinks'
p734
I11
sS'scandals'
p735
I1
sS'whould'
p736
I1
sS'cannabis'
p737
I2
sS'restoring'
p738
I1
sS'biased'
p739
I3
sS'scientific'
p740
I3
sS'power'
p741
I42
sS"doctor's"
p742
I1
sS'leadership'
p743
I11
sS'industry'
p744
I4
sS'aren8217t'
p745
I2
sS'theproposal'
p746
I1
sS'fundraising'
p747
I1
sS'flawed'
p748
I8
sS'tuckshops'
p749
I1
sS'enrolments'
p750
I1
sS'homeless'
p751
I1
sS'parties'
p752
I131
sS'agaist'
p753
I1
sS'springbook'
p754
I1
sS'800000'
p755
I1
sS"soe's"
p756
I1
sS"fairbrother's"
p757
I1
sS"how's"
p758
I1
sS'myths'
p759
I4
sS'mindless'
p760
I3
sS'futile'
p761
I2
sS'bubble'
p762
I1
sS'recommends'
p763
I1
sS'complete'
p764
I4
sS'dangers'
p765
I1
sS'shonky'
p766
I1
sS'technologies'
p767
I1
sS'housewives'
p768
I1
sS'buying'
p769
I5
sS'abused'
p770
I1
sS'october'
p771
I2
sS'monopoly'
p772
I2
sS'dirty'
p773
I6
sS'maharey'
p774
I5
sS'abuses'
p775
I1
sS'dependents'
p776
I1
sS'politically'
p777
I8
sS'trips'
p778
I3
sS'detailed'
p779
I2
sS'carves'
p780
I1
sS'exhausted'
p781
I1
sS'certain'
p782
I7
sS'stealing'
p783
I3
sS'legalising'
p784
I1
sS'behest'
p785
I1
sS'participationnbsp'
p786
I1
sS'tuckshop'
p787
I1
sS'novice'
p788
I1
sS'abolish'
p789
I1
sS'tight'
p790
I5
sS'hekia'
p791
I1
sS'someones'
p792
I1
sS'bizarrely'
p793
I1
sS'congress'
p794
I1
sS'napier'
p795
I1
sS'fraudulent'
p796
I1
sS'original'
p797
I4
sS'consider'
p798
I6
sS'caused'
p799
I4
sS'instincts'
p800
I1
sS'welfare'
p801
I17
sS'causes'
p802
I3
sS'anderton'
p803
I8
sS"'wandering"
p804
I2
sS'toforce'
p805
I1
sS'socialistquot'
p806
I1
sS'chewing'
p807
I2
sS'asterisks'
p808
I1
sS'countless'
p809
I1
sS'homepage'
p810
I2
sS'lawyering'
p811
I1
sS'arseholed'
p812
I1
sS'hughes'
p813
I2
sS'manageable'
p814
I1
sS"'reforms'"
p815
I1
sS'overprotective'
p816
I1
sS'harre'
p817
I1
sS'laying'
p818
I3
sS'large'
p819
I11
sS'small'
p820
I19
sS'mammal'
p821
I1
sS'periodocal'
p822
I1
sS'penalties'
p823
I1
sS'19yearolds'
p824
I2
sS'she8217s'
p825
I2
sS'honourable'
p826
I1
sS'quotreserve'
p827
I1
sS'investment'
p828
I2
sS'mayoralty'
p829
I6
sS'richard'
p830
I4
sS'clock'
p831
I1
sS'disruptions'
p832
I1
sS'section'
p833
I3
sS'whiff'
p834
I1
sS'method'
p835
I4
sS'nationalnbsp'
p836
I2
sS'lobbyist'
p837
I2
sS'hours'
p838
I19
sS'smartest'
p839
I1
sS'november'
p840
I1
sS'backlash'
p841
I1
sS'reshaped'
p842
I1
sS'compliance'
p843
I1
sS'winstonnbsp'
p844
I1
sS'prior'
p845
I4
sS'social'
p846
I39
sS'action'
p847
I9
sS"would've"
p848
I1
sS'dehumanized'
p849
I1
sS'followed'
p850
I4
sS'acheive'
p851
I1
sS'marriages'
p852
I1
sS'rodneyepsomorgnz'
p853
I1
sS'indoors'
p854
I1
sS'technology8217'
p855
I1
sS'behelf'
p856
I1
sS'select'
p857
I14
sS"parties'"
p858
I3
sS'nbsp4nbsp'
p859
I1
sS'objectives'
p860
I2
sS'archives'
p861
I1
sS'billresearch'
p862
I1
sS'masculine'
p863
I1
sS'company'
p864
I22
sS'freeland'
p865
I3
sS"bank's"
p866
I1
sS'someone8221'
p867
I2
sS'partiesa'
p868
I1
sS'objections'
p869
I1
sS'negativity'
p870
I1
sS'cunning'
p871
I3
sS'keeping'
p872
I3
sS'damien'
p873
I2
sS'phillip'
p874
I2
sS'8220poaching'
p875
I1
sS'thickest'
p876
I1
sS'125000signaturesagainst'
p877
I1
sS'indicating'
p878
I1
sS'morgan'
p879
I2
sS'learn'
p880
I3
sS'facelift'
p881
I1
sS'seagull'
p882
I1
sS'scramble'
p883
I1
sS'beautiful'
p884
I2
sS'impacts'
p885
I1
sS'stated'
p886
I4
sS'neglected'
p887
I1
sS'accept'
p888
I8
sS'states'
p889
I3
sS'marginalized'
p890
I3
sS'sense'
p891
I14
sS'disliked'
p892
I1
sS'condemn'
p893
I1
sS'information'
p894
I16
sS'hickey'
p895
I2
sS'deterred'
p896
I1
sS'clint'
p897
I1
sS'imminent'
p898
I1
sS'dismissed'
p899
I1
sS'earnings'
p900
I4
sS'browns'
p901
I2
sS'plant'
p902
I1
sS'plans'
p903
I5
sS'disgraced'
p904
I2
sS'plane'
p905
I1
sS'pintoduschinsky'
p906
I2
sS'waves'
p907
I1
sS'ethics'
p908
I3
sS'authentic'
p909
I1
sS'refuse'
p910
I3
sS'register'
p911
I7
sS'broadcasting'
p912
I2
sS'tentacles'
p913
I1
sS'fundamental'
p914
I4
sS'overcooked'
p915
I1
sS'insignificent'
p916
I1
sS'replied'
p917
I1
sS'clarifications'
p918
I1
sS'leigh'
p919
I4
sS'trade'
p920
I6
sS'paper'
p921
I5
sS'replies'
p922
I1
sS'roots'
p923
I1
sS'kneejerk'
p924
I1
sS'travelling'
p925
I3
sS'timely'
p926
I1
sS'severely'
p927
I3
sS'propose'
p928
I1
sS'reminder'
p929
I1
sS'sucked'
p930
I2
sS'always'
p931
I15
sS'mandarins'
p932
I1
sS'assosciation'
p933
I1
sS'instruct'
p934
I1
sS'courses'
p935
I3
sS'found'
p936
I14
sS'investigators'
p937
I1
sS'engendered'
p938
I1
sS'england'
p939
I1
sS'accelerator'
p940
I1
sS'reduce'
p941
I7
sS'measurement'
p942
I1
sS'operation'
p943
I2
sS'murders'
p944
I1
sS'tamaki'
p945
I2
sS'really'
p946
I40
sS'wairarapa'
p947
I2
sS'missed'
p948
I2
sS'blacks'
p949
I1
sS'mattered'
p950
I1
sS'research'
p951
I9
sS'misses'
p952
I1
sS'ministerial'
p953
I2
sS'triennial'
p954
I1
sS'occurs'
p955
I1
sS'highway'
p956
I1
sS'belief'
p957
I2
sS'sparked'
p958
I1
sS'qualify'
p959
I1
sS'proxy'
p960
I3
sS'imagine'
p961
I4
sS'448230'
p962
I2
sS'rises'
p963
I4
sS'director'
p964
I3
sS'owners'
p965
I4
sS'drivel'
p966
I1
sS'bumper'
p967
I1
sS'exhibited'
p968
I1
sS'euphemism'
p969
I2
sS'major'
p970
I21
sS'forwards'
p971
I1
sS'contender'
p972
I1
sS'number'
p973
I28
sS'preservation'
p974
I2
sS'frasers'
p975
I1
sS'pledge'
p976
I5
sS'guess'
p977
I7
sS'industriesnot'
p978
I1
sS'introduction'
p979
I2
sS'threatening'
p980
I2
sS'litany'
p981
I1
sS'calculations'
p982
I1
sS"'bums"
p983
I1
sS'relationship'
p984
I2
sS'interviewee'
p985
I1
sS'appreciation'
p986
I1
sS'consult'
p987
I2
sS'focusing'
p988
I2
sS'endlessly'
p989
I1
sS'determines'
p990
I1
sS'vocal'
p991
I1
sS'defends'
p992
I2
sS'tummy'
p993
I1
sS'dismantling'
p994
I1
sS'marriage'
p995
I4
sS'fights'
p996
I1
sS'organisations'
p997
I7
sS'quotthe'
p998
I4
sS'tough'
p999
I2
sS'samoan'
p1000
I1
sS'heterosexual'
p1001
I1
sS'outsourcing'
p1002
I1
sS'significent'
p1003
I1
sS'internal'
p1004
I3
sS'analogy'
p1005
I2
sS"fairfax's"
p1006
I1
sS'kneecap'
p1007
I1
sS'blackboard'
p1008
I1
sS'swiftly'
p1009
I2
sS'unused'
p1010
I1
sS'accepting'
p1011
I2
sS'understands'
p1012
I1
sS'sometimes'
p1013
I10
sS'cover'
p1014
I8
sS'dragged'
p1015
I1
sS'extractions'
p1016
I1
sS'defended'
p1017
I2
sS'defender'
p1018
I1
sS'occupation'
p1019
I1
sS'impact'
p1020
I7
sS'writes'
p1021
I6
sS'writer'
p1022
I1
sS'failed'
p1023
I12
sS'twins'
p1024
I1
sS'ingram'
p1025
I2
sS'dependent'
p1026
I4
sS'lastname'
p1027
I1
sS'banned'
p1028
I3
sS'resent'
p1029
I1
sS"they'd"
p1030
I1
sS'preparing'
p1031
I2
sS'reporters'
p1032
I2
sS'parties8221'
p1033
I1
sS'helenms'
p1034
I1
sS'enemy'
p1035
I1
sS'progressive'
p1036
I9
sS'disregarding'
p1037
I1
sS'teachersto'
p1038
I1
sS'banking'
p1039
I1
sS'surrendering'
p1040
I1
sS'obscure'
p1041
I1
sS'river'
p1042
I3
sS'insane'
p1043
I1
sS'creator'
p1044
I1
sS'largesse'
p1045
I1
sS'activists'
p1046
I9
sS'frontrunner'
p1047
I1
sS'migration'
p1048
I1
sS'shower'
p1049
I3
sS'currently'
p1050
I9
sS'diluted'
p1051
I1
sS'acutely'
p1052
I1
sS'knowing'
p1053
I4
sS'hardship'
p1054
I3
sS'targeted'
p1055
I2
sS'richto'
p1056
I1
sS'untouched'
p1057
I1
sS'incident'
p1058
I1
sS'dividend'
p1059
I1
sS'premised'
p1060
I1
sS'prospects'
p1061
I2
sS'tangible'
p1062
I1
sS'troppo'
p1063
I1
sS'connection'
p1064
I2
sS'scams'
p1065
I7
sS'crushing'
p1066
I1
sS'goverment'
p1067
I1
sS'whole'
p1068
I14
sS'shortsighted'
p1069
I1
sS'wagesas'
p1070
I1
sS'mallards'
p1071
I7
sS'drunk'
p1072
I2
sS'acted'
p1073
I1
sS'community'
p1074
I15
sS'coincidence'
p1075
I2
sS'scottish'
p1076
I1
sS'keynbspresidence'
p1077
I1
sS'worthless'
p1078
I1
sS'acceptance'
p1079
I2
sS'satire'
p1080
I1
sS'convicted'
p1081
I3
sS'geoffrey'
p1082
I8
sS'extravagant'
p1083
I2
sS'extreme'
p1084
I2
sS'veneer'
p1085
I1
sS'repayments'
p1086
I1
sS"what's"
p1087
I4
sS'moderation'
p1088
I1
sS'races'
p1089
I1
sS'representative'
p1090
I1
sS'handling'
p1091
I1
sS'judicial'
p1092
I1
sS'straight'
p1093
I3
sS'budget'
p1094
I35
sS'technical'
p1095
I2
sS'error'
p1096
I3
sS'weren8217t'
p1097
I1
sS'hoping'
p1098
I6
sS'ducks'
p1099
I1
sS'triple'
p1100
I1
sS'chase'
p1101
I2
sS"germany's"
p1102
I1
sS'funny'
p1103
I6
sS'barnet'
p1104
I1
sS'virtually'
p1105
I3
sS'offence'
p1106
I3
sS'spiralling'
p1107
I1
sS'baldock'
p1108
I2
sS'snail'
p1109
I1
sS'comprehensive'
p1110
I2
sS'levels'
p1111
I3
sS'rabid'
p1112
I2
sS'nickname'
p1113
I1
sS'recent'
p1114
I10
sS'early'
p1115
I7
sS'alleging'
p1116
I1
sS'picks'
p1117
I2
sS'person'
p1118
I18
sS'regulating'
p1119
I4
sS'afternoonquot'
p1120
I1
sS'listening'
p1121
I10
sS'buchanan'
p1122
I1
sS'respectquotnbsp'
p1123
I1
sS'sundaystar'
p1124
I1
sS"o'neill"
p1125
I2
sS'readers'
p1126
I5
sS'workers8217'
p1127
I1
sS'surprises'
p1128
I1
sS'admission'
p1129
I3
sS'it8217s'
p1130
I10
sS'advertisements'
p1131
I4
sS'signals'
p1132
I1
sS'eager'
p1133
I1
sS'8220might'
p1134
I1
sS'relevance'
p1135
I2
sS'submissions'
p1136
I9
sS'surprised'
p1137
I2
sS'australia'
p1138
I14
sS'victims'
p1139
I1
sS'emergency'
p1140
I1
sS'format'
p1141
I1
sS'couple'
p1142
I8
sS'coupla'
p1143
I1
sS'suffering'
p1144
I3
sS'quest'
p1145
I1
sS'entrenched'
p1146
I1
sS'formal'
p1147
I1
sS"'entertainment'"
p1148
I1
sS'imposed'
p1149
I1
sS'attacks8221'
p1150
I1
sS'consensus'
p1151
I5
sS'communications'
p1152
I1
sS'continue'
p1153
I18
sS'privately'
p1154
I1
sS'methods'
p1155
I3
sS'bounce'
p1156
I1
sS'comesquot'
p1157
I1
sS'tm4fm'
p1158
I1
sS'mighty'
p1159
I3
sS"thresholdi'm"
p1160
I1
sS'thismorninginoticed'
p1161
I1
sS'mummy'
p1162
I1
sS'religion'
p1163
I2
sS'behave'
p1164
I2
sS'prosecuted'
p1165
I3
sS"key's"
p1166
I8
sS'performed'
p1167
I1
sS'agreement'
p1168
I4
sS'nowhere'
p1169
I1
sS'relating'
p1170
I1
sS'leuschke'
p1171
I1
sS'anything'
p1172
I24
sS'exaggerated'
p1173
I1
sS'deserves'
p1174
I1
sS'boyfrends'
p1175
I1
sS'flying'
p1176
I1
sS'clinton'
p1177
I2
sS'garbage'
p1178
I1
sS'campaign8221'
p1179
I1
sS'legalise'
p1180
I4
sS'lawswatch'
p1181
I2
sS'appropriate'
p1182
I2
sS'month8217s'
p1183
I1
sS'kimberley'
p1184
I1
sS'criticisms'
p1185
I1
sS'spending'
p1186
I72
sS'submit'
p1187
I5
sS'milne'
p1188
I3
sS'rhetorical'
p1189
I1
sS'fragmented'
p1190
I1
sS'elsewhere'
p1191
I2
sS'relaxed'
p1192
I2
sS"ball'"
p1193
I1
sS'competition'
p1194
I6
sS'considerable'
p1195
I3
sS'posted'
p1196
I10
sS'verification'
p1197
I1
sS'continuously'
p1198
I1
sS'yelled'
p1199
I1
sS'armstrong'
p1200
I2
sS'defined'
p1201
I1
sS'likewise'
p1202
I2
sS'lowincome'
p1203
I1
sS'influence'
p1204
I8
sS'globally'
p1205
I1
sS"beginning'"
p1206
I1
sS'diverse'
p1207
I3
sS'paradox'
p1208
I1
sS'invalid'
p1209
I6
sS'preventing'
p1210
I1
sS'points'
p1211
I12
sS'actors'
p1212
I1
sS'sails'
p1213
I2
sS'principle'
p1214
I2
sS'ferried'
p1215
I1
sS'scapegoat'
p1216
I1
sS'elements'
p1217
I2
sS'wrongly'
p1218
I1
sS'sided'
p1219
I1
sS'prosecution'
p1220
I2
sS'kaiser'
p1221
I1
sS'sides'
p1222
I4
sS'emigration'
p1223
I1
sS'consumer'
p1224
I3
sS'baby8221families'
p1225
I1
sS'enrolled'
p1226
I2
sS'fresh'
p1227
I2
sS'having'
p1228
I33
sS'essay'
p1229
I3
sS'partial'
p1230
I3
sS'illustrates'
p1231
I2
sS'scratch'
p1232
I1
sS'results'
p1233
I22
sS'existing'
p1234
I8
sS"shipley's"
p1235
I1
sS'stops'
p1236
I1
sS'gossip'
p1237
I3
sS'seemed'
p1238
I4
sS'resourced'
p1239
I1
sS'concerned'
p1240
I3
sS'young'
p1241
I27
sS'debunking'
p1242
I2
sS'usstyle'
p1243
I1
sS'dislike'
p1244
I2
sS'postings'
p1245
I4
sS'resources'
p1246
I22
sS'jurisdiction'
p1247
I3
sS'street'
p1248
I4
sS'continues'
p1249
I6
sS'daviskiller'
p1250
I1
sS'manipulated'
p1251
I1
sS'there8217s'
p1252
I2
sS'continued'
p1253
I1
sS'categories'
p1254
I4
sS'taito'
p1255
I5
sS'rigourous'
p1256
I1
sS'magic'
p1257
I1
sS'experiencing'
p1258
I1
sS"they've"
p1259
I3
sS'fewer'
p1260
I6
sS'damning'
p1261
I3
sS'715pm'
p1262
I1
sS"auditorgeneral's"
p1263
I1
sS'obesity'
p1264
I1
sS'realtions'
p1265
I1
sS'boonish'
p1266
I1
sS'antii69'
p1267
I1
sS'recruitment'
p1268
I1
sS'imply'
p1269
I1
sS'video'
p1270
I1
sS'quotmaking'
p1271
I1
sS'incidentally'
p1272
I2
sS'electionnbsp'
p1273
I1
sS'leakage'
p1274
I1
sS'victor'
p1275
I1
sS'graduating'
p1276
I1
sS'index'
p1277
I1
sS'shoein'
p1278
I1
sS'expressed'
p1279
I2
sS'consistently'
p1280
I2
sS'indian'
p1281
I1
sS'turnaround'
p1282
I1
sS'dompost'
p1283
I1
sS'lolly'
p1284
I1
sS'scepticism'
p1285
I1
sS'delivering'
p1286
I5
sS'slogans'
p1287
I1
sS'poverty'
p1288
I4
sS'great'
p1289
I19
sS'engage'
p1290
I7
sS'uneasy'
p1291
I1
sS'receive'
p1292
I11
sS'involved'
p1293
I12
sS'shipley'
p1294
I1
sS'hinchliffe'
p1295
I1
sS'survey'
p1296
I2
sS'defeat'
p1297
I4
sS'opinion'
p1298
I18
sS'residents'
p1299
I2
sS'makes'
p1300
I26
sS'explain'
p1301
I4
sS'involves'
p1302
I2
sS'thats'
p1303
I7
sS'panicked'
p1304
I1
sS'wedge'
p1305
I1
sS'outcomes'
p1306
I6
sS'encumbent'
p1307
I1
sS'overestimating'
p1308
I1
sS'tools'
p1309
I2
sS'inconveniently'
p1310
I1
sS'standing'
p1311
I6
sS'confidence'
p1312
I2
sS'certificate'
p1313
I1
sS'illegal'
p1314
I7
sS'ministers'
p1315
I10
sS'doubt'
p1316
I12
sS'ministeri'
p1317
I1
sS'midday'
p1318
I1
sS'washnbspnow'
p1319
I1
sS'occurred'
p1320
I2
sS'dealings'
p1321
I1
sS'opposing'
p1322
I3
sS'labelled'
p1323
I2
sS'rubbish'
p1324
I2
sS'delegating'
p1325
I1
sS'charity'
p1326
I2
sS'bensonpope'
p1327
I12
sS'challenge'
p1328
I5
sS'clients'
p1329
I1
sS'publications'
p1330
I1
sS'outofcharacter'
p1331
I1
sS'quottoo'
p1332
I1
sS'process'
p1333
I13
sS'billboards'
p1334
I1
sS'trumped'
p1335
I1
sS'purposes'
p1336
I13
sS'pieces'
p1337
I2
sS'nbsp3'
p1338
I1
sS'destroying'
p1339
I2
sS'delay'
p1340
I4
sS'reinstated'
p1341
I1
sS'120000'
p1342
I7
sS"reminder'"
p1343
I1
sS'establishment'
p1344
I2
sS'scammed'
p1345
I2
sS'dominon'
p1346
I1
sS'solidarity'
p1347
I3
sS'counter'
p1348
I1
sS'element'
p1349
I4
sS'allow'
p1350
I13
sS'taxdodge'
p1351
I4
sS'produces'
p1352
I2
sS'outlook'
p1353
I2
sS'produced'
p1354
I1
sS'hampshire'
p1355
I1
sS'perfect'
p1356
I4
sS'byline'
p1357
I1
sS'chauvanism'
p1358
I1
sS'chosen'
p1359
I2
sS'feminazi'
p1360
I1
sS'surgeons'
p1361
I1
sS'meantime'
p1362
I1
sS'hobbs'
p1363
I1
sS'degrees'
p1364
I2
sS'nbsp32nbsp'
p1365
I1
sS'outlined'
p1366
I1
sS'launder'
p1367
I1
sS'disrupted'
p1368
I1
sS'pompous'
p1369
I1
sS'presidential'
p1370
I1
sS'intelligent'
p1371
I1
sS'sufficiently'
p1372
I1
sS'delightful'
p1373
I1
sS'truth'
p1374
I16
sS'shortage'
p1375
I2
sS'accompanied'
p1376
I1
sS'beneath'
p1377
I1
sS'otago'
p1378
I2
sS'exacerbated'
p1379
I1
sS'doing'
p1380
I42
sS'society'
p1381
I17
sS'books'
p1382
I2
sS'static'
p1383
I1
sS'thirteen'
p1384
I1
sS'tenth'
p1385
I1
sS'fundamentally'
p1386
I1
sS'rigging'
p1387
I1
sS'nowadays'
p1388
I1
sS'slutboy'
p1389
I1
sS'favours'
p1390
I1
sS'hilarious'
p1391
I3
sS'grilled'
p1392
I1
sS'surely'
p1393
I6
sS'regulatory'
p1394
I7
sS'scary'
p1395
I1
sS'could'
p1396
I71
sS'david'
p1397
I31
sS'length'
p1398
I2
sS'assumed'
p1399
I3
sS'gamekeeper'
p1400
I1
sS'blown'
p1401
I1
sS'owned'
p1402
I7
sS"interest'"
p1403
I1
sS'owner'
p1404
I3
sS'disaster'
p1405
I3
sS"shareholders'"
p1406
I1
sS'deceptive'
p1407
I1
sS'reference'
p1408
I3
sS'detailing'
p1409
I1
sS'system'
p1410
I53
sS'backdoor'
p1411
I1
sS'travelled'
p1412
I1
sS'pervasive'
p1413
I1
sS'enforcement'
p1414
I2
sS'stars'
p1415
I1
sS'happy'
p1416
I6
sS'shouldn8217t'
p1417
I1
sS'unityblogthe'
p1418
I1
sS'stresses'
p1419
I2
sS'won8217t'
p1420
I2
sS'elite'
p1421
I1
sS'steel'
p1422
I1
sS'colleagues'
p1423
I5
sS'bother'
p1424
I1
sS'orchestrated'
p1425
I3
sS'blogosphere'
p1426
I1
sS'collecting'
p1427
I1
sS'angsting'
p1428
I1
sS'false'
p1429
I4
sS'tonight'
p1430
I2
sS'defending'
p1431
I2
sS'clearly'
p1432
I19
sS'viewed'
p1433
I2
sS'studying'
p1434
I1
sS'mills'
p1435
I1
sS'mechanism'
p1436
I1
sS'triumphal'
p1437
I1
sS'competence'
p1438
I1
sS'accuracy'
p1439
I2
sS'regard'
p1440
I3
sS'flipside'
p1441
I1
sS'courtesy'
p1442
I1
sS'rollout'
p1443
I2
sS'falloon8217s'
p1444
I1
sS'regressing'
p1445
I1
sS'segment'
p1446
I2
sS'hypocrite'
p1447
I1
sS'placement'
p1448
I1
sS'stronger'
p1449
I4
sS"you'll"
p1450
I4
sS'fiasco'
p1451
I1
sS'wounded'
p1452
I1
sS'painting'
p1453
I1
sS'bring'
p1454
I15
sS'manchester'
p1455
I1
sS'greenhouse'
p1456
I1
sS'ripoff'
p1457
I1
sS'economist'
p1458
I5
sS'decade'
p1459
I4
sS'principal'
p1460
I3
sS'podcast'
p1461
I1
sS'championed'
p1462
I1
sS'mrtips'
p1463
I1
sS'should'
p1464
I130
sS'entities'
p1465
I2
sS'quotfor'
p1466
I1
sS'willams'
p1467
I1
sS'mayors'
p1468
I2
sS'meant'
p1469
I9
sS'handle'
p1470
I3
sS'listened'
p1471
I2
sS'means'
p1472
I28
sS'familiar'
p1473
I1
sS'lucky'
p1474
I1
sS'sensationalising'
p1475
I1
sS'exchanges'
p1476
I3
sS'antimmp'
p1477
I1
sS'shaping'
p1478
I1
sS'committees'
p1479
I3
sS'taxes'
p1480
I9
sS'stuff'
p1481
I9
sS'allegation'
p1482
I5
sS'prises'
p1483
I1
sS'correlations'
p1484
I1
sS'we8217ve'
p1485
I1
sS'cleverer'
p1486
I2
sS'destiny'
p1487
I3
sS'fastquotnbsp'
p1488
I1
sS'nuclear'
p1489
I7
sS'partisan'
p1490
I3
sS'pased'
p1491
I1
sS'email'
p1492
I22
sS'disgruntled'
p1493
I1
sS'specious'
p1494
I1
sS'restrictions'
p1495
I4
sS'figured'
p1496
I1
sS'baubles'
p1497
I1
sS'invited'
p1498
I2
sS'figures'
p1499
I9
sS'nbsp27nbsp'
p1500
I1
sS'adjusted'
p1501
I1
sS'conclude'
p1502
I1
sS'authorised'
p1503
I3
sS'demonise'
p1504
I1
sS'whispering'
p1505
I1
sS'allocated'
p1506
I2
sS'dogooder'
p1507
I1
sS'powered'
p1508
I5
sS'poured'
p1509
I2
sS'frighten'
p1510
I1
sS'compensating'
p1511
I1
sS'waste'
p1512
I5
sS'keynbspanyone'
p1513
I1
sS'laser'
p1514
I1
sS'8220free'
p1515
I1
sS'deductible'
p1516
I1
sS'concerted'
p1517
I1
sS'overspent'
p1518
I2
sS'surprisingly'
p1519
I1
sS'they8217ll'
p1520
I1
sS'politics'
p1521
I56
sS'slagging'
p1522
I1
sS'cohort'
p1523
I1
sS'8220national'
p1524
I1
sS'denial'
p1525
I1
sS'servicesnbsp'
p1526
I1
sS'spends'
p1527
I3
sS'matthew'
p1528
I2
sS'matthes'
p1529
I1
sS'digging'
p1530
I3
sS'outbreak'
p1531
I1
sS'terrorism'
p1532
I1
sS'joyously'
p1533
I1
sS'conflicting'
p1534
I3
sS'timesage'
p1535
I1
sS'columbia'
p1536
I1
sS'raymond'
p1537
I1
sS'drink'
p1538
I1
sS'electorates'
p1539
I2
sS'infinite'
p1540
I1
sS'identity'
p1541
I2
sS'audit'
p1542
I1
sS'polys'
p1543
I1
sS'colour'
p1544
I1
sS"left's'"
p1545
I1
sS'command'
p1546
I1
sS"howard's"
p1547
I1
sS'audio'
p1548
I2
sS'drawing'
p1549
I3
sS'flesh'
p1550
I1
sS'moments'
p1551
I1
sS'disconnections'
p1552
I1
sS'generous'
p1553
I3
sS'caucuses'
p1554
I1
sS'arrest'
p1555
I1
sS'neoliberal'
p1556
I2
sS'crack'
p1557
I1
sS'practise'
p1558
I1
sS'increased'
p1559
I10
sS'government'
p1560
I143
sS'increases'
p1561
I4
sS'gambling'
p1562
I1
sS'whopping'
p1563
I1
sS'edgeler'
p1564
I1
sS'chairs'
p1565
I1
sS"quotthat's"
p1566
I1
sS'aoraki'
p1567
I1
sS'become'
p1568
I23
sS'nz40m'
p1569
I1
sS'inexperienced'
p1570
I3
sS'replacement'
p1571
I2
sS'amendment'
p1572
I6
sS'requested'
p1573
I2
sS'justimagine'
p1574
I1
sS'choosing'
p1575
I1
sS'ballot'
p1576
I1
sS'transport'
p1577
I3
sS'avoid'
p1578
I5
sS'8220corporate8221'
p1579
I1
sS'blowing'
p1580
I3
sS'selecting'
p1581
I1
sS'pressure'
p1582
I7
sS'loans'
p1583
I1
sS'counties'
p1584
I1
sS'stage'
p1585
I9
sS'gained'
p1586
I2
sS'sister'
p1587
I1
sS'lifestyle'
p1588
I3
sS'triviality'
p1589
I1
sS'cannae'
p1590
I1
sS'langes'
p1591
I1
sS'ufnbsp'
p1592
I1
sS'executives'
p1593
I1
sS'centrist'
p1594
I1
sS'alliance'
p1595
I3
sS'letters'
p1596
I4
sS'libertarians'
p1597
I1
sS'flailing'
p1598
I1
sS'commitment'
p1599
I3
sS'libertarianz'
p1600
I9
sS'nzeir'
p1601
I1
sS'embarassingly'
p1602
I1
sS'stocks'
p1603
I1
sS'housing'
p1604
I1
sS'peters'
p1605
I8
sS'restricts'
p1606
I1
sS'annette'
p1607
I7
sS'troubling'
p1608
I1
sS'songsheet'
p1609
I1
sS'function'
p1610
I3
sS'building'
p1611
I6
sS'maori'
p1612
I23
sS'billcos8217'
p1613
I1
sS'construction'
p1614
I2
sS'candidacy'
p1615
I2
sS'count'
p1616
I7
sS'postbudget'
p1617
I1
sS'tossed'
p1618
I1
sS'places'
p1619
I8
sS'wellfunded'
p1620
I1
sS'official'
p1621
I8
sS'smooth'
p1622
I2
sS'placed'
p1623
I4
sS'convince'
p1624
I1
sS'distribution'
p1625
I3
sS'bearing'
p1626
I1
sS'rightly'
p1627
I1
sS'palmerston'
p1628
I1
sS'nurses'
p1629
I1
sS'contribute'
p1630
I5
sS'slowing'
p1631
I1
sS'wordly'
p1632
I1
sS'jools'
p1633
I1
sS'compared'
p1634
I4
sS'prosperous'
p1635
I1
sS'variety'
p1636
I1
sS'lately'
p1637
I1
sS'compares'
p1638
I1
sS'details'
p1639
I8
sS'antigreens'
p1640
I2
sS'francisco'
p1641
I1
sS'monday'
p1642
I7
sS'outlets'
p1643
I2
sS'chance'
p1644
I15
sS'repeal'
p1645
I2
sS'exposure'
p1646
I1
sS'parttime'
p1647
I2
sS'stunt'
p1648
I1
sS'eddies'
p1649
I1
sS'mercenary'
p1650
I1
sS'systemhunt'
p1651
I1
sS'rural'
p1652
I1
sS'suicidal'
p1653
I1
sS'infebruary'
p1654
I1
sS'saver'
p1655
I1
sS'yikes'
p1656
I1
sS'rapid'
p1657
I1
sS'tenuous'
p1658
I1
sS'pollonthe'
p1659
I1
sS'oldest'
p1660
I1
sS'saved'
p1661
I2
sS'relationships'
p1662
I3
sS'votes'
p1663
I29
sS'voter'
p1664
I3
sS'neighbours'
p1665
I2
sS'edward'
p1666
I1
sS'voted'
p1667
I8
sS'treehuggers'
p1668
I1
sS'worth'
p1669
I8
sS'geology'
p1670
I1
sS'compassion'
p1671
I1
sS'blanket'
p1672
I1
sS'micromanage'
p1673
I1
sS'exporters'
p1674
I2
sS"we'll"
p1675
I1
sS'hisher'
p1676
I2
sS'allembracing'
p1677
I1
sS'labournational'
p1678
I1
sS'poppy'
p1679
I1
sS'1940s'
p1680
I1
sS"haywood's"
p1681
I1
sS'dwindles'
p1682
I1
sS'established'
p1683
I3
sS'deliberate'
p1684
I1
sS'religious'
p1685
I1
sS'sportsperson8217'
p1686
I1
sS'above'
p1687
I7
sS'churches'
p1688
I1
sS'antoinette'
p1689
I1
sS'officially'
p1690
I2
sS'counters'
p1691
I1
sS'simultaneously'
p1692
I1
sS'sinks'
p1693
I1
sS'residual'
p1694
I1
sS'protection'
p1695
I3
sS'pursuit'
p1696
I2
sS'gerry'
p1697
I3
sS'watchers'
p1698
I3
sS'employees'
p1699
I7
sS'icons'
p1700
I1
sS'anarchist'
p1701
I1
sS"elections'"
p1702
I1
sS'secure'
p1703
I2
sS'wouldn8217t'
p1704
I2
sS'politicalcorrecting'
p1705
I1
sS'highly'
p1706
I6
sS'thursday'
p1707
I4
sS'socioeconomic'
p1708
I1
sS'glance'
p1709
I2
sS'total'
p1710
I7
sS'gloss'
p1711
I1
sS'negative'
p1712
I6
sS'indiana'
p1713
I1
sS'abusing'
p1714
I1
sS'folole'
p1715
I7
sS'award'
p1716
I2
sS'aware'
p1717
I4
sS"speakers'"
p1718
I2
sS'blocking'
p1719
I3
sS'refusing'
p1720
I5
sS'transparency'
p1721
I2
sS'splendour'
p1722
I1
sS'indicated'
p1723
I1
sS'deadweight'
p1724
I1
sS'india'
p1725
I1
sS'heartless'
p1726
I6
sS'indicates'
p1727
I1
sS'fronting'
p1728
I1
sS'fanciful'
p1729
I1
sS'recovery'
p1730
I1
sS'provide'
p1731
I14
sS'rationed'
p1732
I2
sS'morbid'
p1733
I2
sS'interview'
p1734
I1
sS'ordinary'
p1735
I5
sS'truthful'
p1736
I2
sS'offshore'
p1737
I7
sS'fever'
p1738
I1
sS'lichfield'
p1739
I1
sS'ladder'
p1740
I2
sS'earlier'
p1741
I7
sS'publicised'
p1742
I1
sS'strategists'
p1743
I1
sS'7nbsp'
p1744
I2
sS'meaningful'
p1745
I1
sS'elusive'
p1746
I1
sS'homeowners'
p1747
I4
sS'appreciate'
p1748
I1
sS'encompassing'
p1749
I1
sS'nascent'
p1750
I2
sS'green'
p1751
I24
sS'ambulance'
p1752
I2
sS'order'
p1753
I15
sS'lindsay'
p1754
I2
sS'office'
p1755
I18
sS'consent'
p1756
I2
sS'satisfied'
p1757
I1
sS'proportionate'
p1758
I1
sS'threequarter'
p1759
I1
sS'mayor'
p1760
I7
sS'somewhere'
p1761
I3
sS'highlights'
p1762
I1
sS'lobbyingstyle'
p1763
I1
sS'pricier'
p1764
I1
sS'production'
p1765
I1
sS'workable'
p1766
I1
sS'encapsulates'
p1767
I1
sS'versus'
p1768
I2
sS'eventually'
p1769
I2
sS'affected'
p1770
I1
sS'maker'
p1771
I1
sS'break'
p1772
I5
sS'payback'
p1773
I1
sS'bread'
p1774
I1
sS'oxygen'
p1775
I8
sS'reasonably'
p1776
I4
sS'backgrounds'
p1777
I1
sS'reasonable'
p1778
I7
sS'tradespeople'
p1779
I1
sS'feeds'
p1780
I1
sS'lifted'
p1781
I1
sS'tasering'
p1782
I1
sS'crimes'
p1783
I4
sS'bludging'
p1784
I1
sS'ratepayers'
p1785
I4
sS'whining'
p1786
I1
sS'caveman'
p1787
I1
sS'hooked'
p1788
I1
sS'forth'
p1789
I2
sS'sliding'
p1790
I1
sS'legislative'
p1791
I3
sS'theparole'
p1792
I1
sS'taxdodging'
p1793
I1
sS'standard'
p1794
I10
sS'campaigns'
p1795
I11
sS'smacking'
p1796
I8
sS"people's"
p1797
I10
sS'labourled'
p1798
I2
sS'enlightened'
p1799
I1
sS'ticket'
p1800
I5
sS'created'
p1801
I3
sS'ratepayer'
p1802
I3
sS'creates'
p1803
I2
sS'renew'
p1804
I1
sS'oppose'
p1805
I8
sS'canterbury'
p1806
I1
sS'manslaughter'
p1807
I2
sS'another'
p1808
I35
sS'compromise'
p1809
I2
sS'upshot'
p1810
I1
sS'damaging'
p1811
I4
sS'filibuster'
p1812
I2
sS'rejected'
p1813
I1
sS'therapeutics'
p1814
I1
sS"toady's"
p1815
I1
sS'target'
p1816
I5
sS'obligationsbeyond'
p1817
I1
sS'guilt'
p1818
I2
sS'historical'
p1819
I1
sS'tackled'
p1820
I1
sS'lopaayea'
p1821
I1
sS'solely'
p1822
I1
sS'interests'
p1823
I9
sS'8220he'
p1824
I1
sS'enchanted'
p1825
I1
sS'manner'
p1826
I1
sS'unconcerned'
p1827
I1
sS'forced'
p1828
I14
sS'strength'
p1829
I4
sS'genuine'
p1830
I5
sS'academic'
p1831
I4
sS'convenient'
p1832
I1
sS'latter'
p1833
I1
sS'overtook'
p1834
I1
sS'forces'
p1835
I3
sS'penalise'
p1836
I1
sS'explanation'
p1837
I2
sS'circles'
p1838
I1
sS'acquire'
p1839
I1
sS'extending'
p1840
I3
sS'involving'
p1841
I1
sS'germany'
p1842
I1
sS'autopsy'
p1843
I2
sS'grave'
p1844
I4
sS'calculated'
p1845
I2
sS'quotminderquot'
p1846
I1
sS'newcomers'
p1847
I1
sS'bracket'
p1848
I1
sS"'bias'"
p1849
I1
sS'voting'
p1850
I4
sS'notion'
p1851
I2
sS'reserve'
p1852
I11
sS'decidedly'
p1853
I1
sS'religions'
p1854
I2
sS'lewin'
p1855
I1
sS'nephew'
p1856
I1
sS'enjoyed'
p1857
I4
sS'sharks'
p1858
I1
sS'resemblance'
p1859
I1
sS'christmas8230'
p1860
I1
sS'implementation'
p1861
I2
sS'pursuing'
p1862
I1
sS'personality'
p1863
I2
sS'activist8217s'
p1864
I1
sS'selfpolicing'
p1865
I2
sS'preferred'
p1866
I8
sS'basisbut'
p1867
I1
sS'nasty'
p1868
I4
sS'chastened'
p1869
I1
sS'suffrage'
p1870
I2
sS"children's"
p1871
I2
sS'stead'
p1872
I1
sS'implication'
p1873
I2
sS'steal'
p1874
I5
sS'steam'
p1875
I1
sS'secretary'
p1876
I2
sS'antismacking'
p1877
I10
sS'observes'
p1878
I1
sS'observed'
p1879
I1
sS'depends'
p1880
I1
sS'discussions'
p1881
I2
sS'techniques'
p1882
I1
sS'draws'
p1883
I4
sS"university's"
p1884
I2
sS'unable'
p1885
I6
sS'cooperation'
p1886
I1
sS'misguided'
p1887
I1
sS'failings'
p1888
I2
sS'supporters8221'
p1889
I1
sS'terms'
p1890
I8
sS'handful'
p1891
I1
sS'contractornbsp'
p1892
I1
sS'linkage'
p1893
I1
sS'received'
p1894
I8
sS'essentially'
p1895
I2
sS'subordinating'
p1896
I1
sS'exceeds'
p1897
I1
sS'requests'
p1898
I3
sS'groans'
p1899
I1
sS'widen'
p1900
I1
sS'royal'
p1901
I1
sS'8220closing'
p1902
I1
sS"labour's"
p1903
I25
sS'wider'
p1904
I1
sS'oblivious'
p1905
I1
sS'resignation'
p1906
I1
sS'dawdled'
p1907
I1
sS'priscilla'
p1908
I3
sS'speak'
p1909
I6
sS'petty'
p1910
I1
sS'sachs'
p1911
I2
sS'flexible'
p1912
I9
sS'dozens'
p1913
I1
sS'warmth'
p1914
I1
sS'duties'
p1915
I3
sS'repelled'
p1916
I1
sS'families'
p1917
I18
sS'attacked'
p1918
I2
sS'concerning'
p1919
I1
sS'catering'
p1920
I1
sS'welfarism'
p1921
I2
sS'comfortable'
p1922
I3
sS'applied'
p1923
I1
sS'inhibit'
p1924
I1
sS'ageism'
p1925
I1
sS'conviction'
p1926
I4
sS'publicly'
p1927
I6
sS'micheal'
p1928
I2
sS'property'
p1929
I6
sS'launched'
p1930
I5
sS'weakens'
p1931
I1
sS'dobson'
p1932
I1
sS'form8221'
p1933
I1
sS'sticker'
p1934
I1
sS'audrey'
p1935
I7
sS'straits'
p1936
I2
sS'comparative'
p1937
I1
sS'stateowned'
p1938
I2
sS'wooing'
p1939
I1
sS'confirmed'
p1940
I3
sS'grandiose'
p1941
I1
sS'patent'
p1942
I1
sS'demonstration'
p1943
I1
sS'grapple'
p1944
I1
sS'accumulating'
p1945
I1
sS'indictment'
p1946
I1
sS'convictions'
p1947
I1
sS'bunny'
p1948
I1
sS'advertising'
p1949
I40
sS'independent'
p1950
I12
sS'blames'
p1951
I1
sS'lyndon'
p1952
I2
sS'liberties'
p1953
I2
sS'confiding'
p1954
I1
sS'blamed'
p1955
I1
sS'whereby'
p1956
I2
sS'scenario'
p1957
I1
sS'client'
p1958
I1
sS'mclean'
p1959
I3
sS'photo'
p1960
I3
sS'quotes'
p1961
I2
sS'thanks'
p1962
I3
sS'victim'
p1963
I2
sS'bookmarked'
p1964
I1
sS'i8217ve'
p1965
I3
sS'shout'
p1966
I2
sS'belongs'
p1967
I1
sS'board'
p1968
I10
sS'expelled'
p1969
I1
sS'emphasis'
p1970
I1
sS"required'"
p1971
I1
sS'leftright'
p1972
I1
sS'progressed'
p1973
I1
sS'boxes'
p1974
I2
sS'secgeneral'
p1975
I1
sS'we8217re'
p1976
I1
sS'night'
p1977
I15
sS'security'
p1978
I14
sS'towards'
p1979
I12
sS"funding'"
p1980
I1
sS'sends'
p1981
I1
sS'hassle'
p1982
I1
sS'critique'
p1983
I1
sS'denies'
p1984
I4
sS'reflexively'
p1985
I1
sS'comments'
p1986
I15
sS'asking'
p1987
I8
sS'denied'
p1988
I2
sS'blithering'
p1989
I1
sS'someway'
p1990
I1
sS'beating'
p1991
I1
sS'participation'
p1992
I6
sS"goatse'd"
p1993
I1
sS'confer'
p1994
I1
sS'constructive'
p1995
I6
sS'architectural'
p1996
I1
sS'nonparty'
p1997
I4
sS'theirs'
p1998
I1
sS'newspapers'
p1999
I6
sS'months'
p2000
I17
sS'accepts'
p2001
I1
sS'horizon'
p2002
I1
sS'f1rst'
p2003
I1
sS'wellpublicised'
p2004
I1
sS'considerations'
p2005
I2
sS'wasting'
p2006
I3
sS'prisoners'
p2007
I3
sS'profession'
p2008
I3
sS'bound'
p2009
I1
sS'balances'
p2010
I1
sS'capped'
p2011
I6
sS'unsexy'
p2012
I1
sS'strangely'
p2013
I2
sS'phillida'
p2014
I1
sS'legislation'
p2015
I5
sS'sovereign'
p2016
I1
sS'fight'
p2017
I3
sS'accordingly'
p2018
I1
sS'conservation'
p2019
I2
sS'accountancy'
p2020
I1
sS'lowest'
p2021
I2
sS'became'
p2022
I6
sS'parlimentary'
p2023
I1
sS'becoming'
p2024
I10
sS'referendums'
p2025
I1
sS'peninsula'
p2026
I1
sS'taken'
p2027
I14
sS'boscawen'
p2028
I3
sS'astonished'
p2029
I1
sS'wildwest'
p2030
I1
sS'individualised'
p2031
I1
sS'maximum'
p2032
I1
sS'crystal'
p2033
I1
sS'faking'
p2034
I1
sS'promises'
p2035
I1
sS'inclusive'
p2036
I1
sS'umpire'
p2037
I1
sS'evidence'
p2038
I11
sS'promised'
p2039
I4
sS'prayer'
p2040
I1
sS'physical'
p2041
I2
sS'massproduced'
p2042
I1
sS'dying'
p2043
I2
sS'stake'
p2044
I1
sS'reality'
p2045
I2
sS'interested'
p2046
I7
sS'holding'
p2047
I2
sS'scored'
p2048
I2
sS'mighthave'
p2049
I1
sS'welcome'
p2050
I2
sS'convincing'
p2051
I1
sS'update'
p2052
I10
sS"let's"
p2053
I4
sS'scorer'
p2054
I2
sS'scores'
p2055
I1
sS'funerals'
p2056
I1
sS'chairperson'
p2057
I2
sS'together'
p2058
I10
sS'loyal'
p2059
I2
sS'lineup'
p2060
I3
sS'basically'
p2061
I3
sS'concept'
p2062
I2
sS'matron'
p2063
I1
sS'switched'
p2064
I1
sS'global'
p2065
I3
sS'switches'
p2066
I2
sS'supplement'
p2067
I1
sS'roundtable'
p2068
I3
sS'grateful'
p2069
I1
sS'dalton'
p2070
I2
sS'certainly'
p2071
I9
sS'hurry'
p2072
I1
sS'graph'
p2073
I1
sS'compensate'
p2074
I3
sS'permanently'
p2075
I2
sS'donned'
p2076
I1
sS'protestors'
p2077
I1
sS'brown'
p2078
I2
sS"parker's"
p2079
I1
sS'upriver'
p2080
I1
sS'brownie'
p2081
I1
sS'baird'
p2082
I1
sS'anonymous'
p2083
I19
sS'entries'
p2084
I6
sS'trouble'
p2085
I4
sS'feeble'
p2086
I1
sS'perceived'
p2087
I1
sS'evaded'
p2088
I1
sS'presented'
p2089
I2
sS'turns'
p2090
I3
sS'lies8221'
p2091
I1
sS'defacto'
p2092
I2
sS'puppeteer'
p2093
I1
sS'possibility'
p2094
I2
sS'upper'
p2095
I1
sS'regret'
p2096
I1
sS'discover'
p2097
I1
sS"elizabeth'snbspdeath"
p2098
I1
sS'forging'
p2099
I1
sS'you8217re'
p2100
I1
sS'labournbsp'
p2101
I2
sS'curse'
p2102
I1
sS'appear'
p2103
I5
sS'assistance'
p2104
I1
sS'shares'
p2105
I1
sS"carter's"
p2106
I1
sS'appeal'
p2107
I1
sS'supporting'
p2108
I7
sS'frothing'
p2109
I2
sS'teacher'
p2110
I6
sS'change'
p2111
I34
sS'sending'
p2112
I1
sS'exemption'
p2113
I2
sS'coerced'
p2114
I1
sS'trial'
p2115
I1
sS'usually'
p2116
I5
sS"country's"
p2117
I1
sS'nearmonopoly'
p2118
I1
sS'matrimonial'
p2119
I1
sS'churchill'
p2120
I1
sS'regardless'
p2121
I5
sS'extra'
p2122
I3
sS'sufferers'
p2123
I1
sS'quotcontrolquot'
p2124
I1
sS'market'
p2125
I14
sS'prove'
p2126
I3
sS'unimpressed'
p2127
I1
sS'angela'
p2128
I1
sS'centrality'
p2129
I1
sS"'university'"
p2130
I1
sS'remimprisonment'
p2131
I1
sS'entrance'
p2132
I1
sS'missionaries'
p2133
I1
sS'supremofor'
p2134
I1
sS'commissioned'
p2135
I2
sS'selfdetermination'
p2136
I1
sS'purge'
p2137
I2
sS'commie'
p2138
I2
sS'hardest'
p2139
I1
sS'gathers'
p2140
I1
sS'breeds'
p2141
I1
sS'heart'
p2142
I5
sS'dedicated'
p2143
I2
sS'december'
p2144
I12
sS'subsidies'
p2145
I2
sS"didn't"
p2146
I19
sS'1980s'
p2147
I2
sS'heard'
p2148
I11
sS'fortunes'
p2149
I2
sS'antimoney'
p2150
I1
sS'referendum'
p2151
I8
sS'productive'
p2152
I4
sS'infantile'
p2153
I1
sS'selfinflicted'
p2154
I1
sS'discussion'
p2155
I2
sS'bonds'
p2156
I2
sS'write'
p2157
I2
sS'strays'
p2158
I1
sS'keybashing'
p2159
I1
sS'product'
p2160
I2
sS'53nbsp'
p2161
I1
sS'dampened'
p2162
I1
sS'tvfleet'
p2163
I2
sS'brazen'
p2164
I1
sS'produce'
p2165
I1
sS'8220those'
p2166
I1
sS'islands'
p2167
I3
sS'drastic'
p2168
I2
sS'rhetoricfulled'
p2169
I1
sS'systemconcern'
p2170
I1
sS'remember'
p2171
I17
sS'whenever'
p2172
I2
sS'beehive'
p2173
I2
sS'crept'
p2174
I1
sS'surprisednbspby8221'
p2175
I1
sS'indeed'
p2176
I7
sS'displayed'
p2177
I1
sS'ended'
p2178
I2
sS"'power"
p2179
I1
sS'statistical'
p2180
I1
sS'managers'
p2181
I1
sS'still'
p2182
I48
sS'birds'
p2183
I1
sS'acknowledge'
p2184
I2
sS'selves'
p2185
I1
sS'forms'
p2186
I2
sS'broadcasts'
p2187
I1
sS'introduce'
p2188
I3
sS'wealthy'
p2189
I3
sS'provision'
p2190
I5
sS'discuss'
p2191
I3
sS'enacted'
p2192
I1
sS'james'
p2193
I8
sS'8220strategist8221'
p2194
I1
sS'entirely'
p2195
I5
sS'domain'
p2196
I1
sS'significantly'
p2197
I6
sS'challenged'
p2198
I1
sS'challenges'
p2199
I1
sS'morefm'
p2200
I1
sS'naming'
p2201
I1
sS'teams'
p2202
I1
sS'monitors'
p2203
I1
sS'irons'
p2204
I1
sS'shown'
p2205
I4
sS'opened'
p2206
I1
sS'space'
p2207
I2
sS'irony'
p2208
I1
sS'moneyquot'
p2209
I1
sS'increase'
p2210
I15
sS'wholeheartedly'
p2211
I1
sS'rational'
p2212
I1
sS'receiving'
p2213
I13
sS'viable'
p2214
I2
sS'shows'
p2215
I12
sS'inevitably'
p2216
I3
sS'usnbsp'
p2217
I2
sS"act's"
p2218
I3
sS'advantages'
p2219
I2
sS'marine'
p2220
I2
sS'inevitable'
p2221
I3
sS'tosic'
p2222
I1
sS'transition'
p2223
I2
sS'vehemently'
p2224
I1
sS'british'
p2225
I2
sS'honest'
p2226
I1
sS'industrialised'
p2227
I1
sS'outcry'
p2228
I2
sS'1230pm'
p2229
I1
sS'misdirectional'
p2230
I1
sS'blind'
p2231
I3
sS'government8221'
p2232
I1
sS'initial'
p2233
I2
sS'tenis'
p2234
I1
sS'striking'
p2235
I1
sS'flipping'
p2236
I1
sS'dustedunited'
p2237
I1
sS'yourself'
p2238
I7
sS'omission'
p2239
I1
sS'directly'
p2240
I5
sS'impossible'
p2241
I2
sS'message'
p2242
I2
sS'drove'
p2243
I1
sS'tomorrow'
p2244
I9
sS"'tennis"
p2245
I1
sS'cranfield'
p2246
I1
sS'checked'
p2247
I4
sS'silent'
p2248
I3
sS'bookmark'
p2249
I1
sS'caught'
p2250
I3
sS'breed'
p2251
I1
sS'callous'
p2252
I4
sS'households'
p2253
I4
sS'tragic'
p2254
I3
sS'nz8217'
p2255
I1
sS'payout'
p2256
I1
sS'friend'
p2257
I5
sS'pleasant8221'
p2258
I1
sS'mostly'
p2259
I5
sS'uninformed'
p2260
I1
sS'taxation'
p2261
I2
sS'short'
p2262
I6
sS'161000'
p2263
I2
sS'television'
p2264
I1
sS'transferred'
p2265
I1
sS'launching'
p2266
I1
sS'jeanettequot'
p2267
I1
sS'barrows'
p2268
I1
sS'respectability'
p2269
I1
sS'investors'
p2270
I4
sS'remained'
p2271
I1
sS'craig'
p2272
I3
sS'correction'
p2273
I2
sS'premier'
p2274
I1
sS'crossover'
p2275
I1
sS'dollarnbsp'
p2276
I1
sS'anger'
p2277
I3
sS'wallowed'
p2278
I1
sS'breakfast'
p2279
I2
sS'termitis'
p2280
I1
sS'connell'
p2281
I2
sS'online'
p2282
I6
sS'similiar'
p2283
I1
sS'bitching'
p2284
I1
sS'begin'
p2285
I2
sS'prick'
p2286
I2
sS'price'
p2287
I7
sS'rankin'
p2288
I2
sS'importantly'
p2289
I2
sS'rationale'
p2290
I1
sS'interacting'
p2291
I1
sS'forever'
p2292
I1
sS'attempting'
p2293
I2
sS'steady'
p2294
I3
sS'labour8217s'
p2295
I7
sS'understandable'
p2296
I2
sS'typically'
p2297
I1
sS'filing'
p2298
I3
sS'german'
p2299
I3
sS'fifty'
p2300
I1
sS'discovered'
p2301
I1
sS"'please"
p2302
I1
sS'excerpts'
p2303
I1
sS'fifth'
p2304
I1
sS'ground'
p2305
I2
sS'upgrade'
p2306
I1
sS'title'
p2307
I13
sS'proportion'
p2308
I6
sS'developed'
p2309
I5
sS'shrill'
p2310
I1
sS'interstate'
p2311
I1
sS'truly'
p2312
I5
sS'shorthaired'
p2313
I1
sS'manukau'
p2314
I1
sS'celebrate'
p2315
I2
sS'seldom'
p2316
I2
sS'unallocated'
p2317
I4
sS'husband'
p2318
I2
sS"o'sullivans"
p2319
I1
sS'elected'
p2320
I11
sS'culpable'
p2321
I1
sS'sport'
p2322
I3
sS'concern'
p2323
I4
sS'fascinated'
p2324
I1
sS'justifies'
p2325
I1
sS'between'
p2326
I30
sS'justified'
p2327
I2
sS'reelected'
p2328
I1
sS'whipped'
p2329
I1
sS'notice'
p2330
I2
sS'antics'
p2331
I1
sS"'customer"
p2332
I1
sS'blame'
p2333
I9
sS"force's"
p2334
I1
sS'article'
p2335
I13
sS'outflows'
p2336
I1
sS'iwiland'
p2337
I2
sS'propaganda'
p2338
I1
sS'resided'
p2339
I1
sS'newfound'
p2340
I2
sS'comes'
p2341
I16
sS'shamefully'
p2342
I1
sS'solving'
p2343
I1
sS'madness'
p2344
I2
sS'inexplicable'
p2345
I1
sS'exploit'
p2346
I2
sS"couldn't"
p2347
I2
sS'proved'
p2348
I1
sS'cares'
p2349
I2
sS'informed'
p2350
I4
sS'extramarital'
p2351
I1
sS'cared'
p2352
I1
sS'mckinnons'
p2353
I1
sS'boscowan'
p2354
I1
sS'flakiness'
p2355
I1
sS'rebuilt'
p2356
I1
sS'disclosed'
p2357
I1
sS'wounds'
p2358
I1
sS'suspected'
p2359
I1
sS'meagre'
p2360
I1
sS'realities'
p2361
I3
sS'hodgson'
p2362
I5
sS'waimauku'
p2363
I1
sS'scarily'
p2364
I1
sS'trick'
p2365
I2
sS'fines'
p2366
I1
sS'editorial'
p2367
I5
sS'exist'
p2368
I3
sS'landslide'
p2369
I1
sS'nevernever'
p2370
I1
sS'orientation'
p2371
I2
sS'embrace'
p2372
I3
sS'68maori37act348230'
p2373
I1
sS'heels'
p2374
I1
sS'identicalhow'
p2375
I1
sS'worry'
p2376
I1
sS'risqu'
p2377
I1
sS'develop'
p2378
I1
sS'inquire'
p2379
I1
sS'media'
p2380
I47
sS'inquiry'
p2381
I6
sS'document'
p2382
I3
sS'finish'
p2383
I2
sS'baning'
p2384
I1
sS'tradition'
p2385
I1
sS'charges'
p2386
I1
sS'constitutional'
p2387
I1
sS'samuels'
p2388
I1
sS'charged'
p2389
I3
sS"ministry's"
p2390
I2
sS'armour'
p2391
I2
sS'dancers'
p2392
I1
sS'superconductors'
p2393
I1
sS'valuable'
p2394
I2
sS'civilized'
p2395
I1
sS'maternity'
p2396
I1
sS'touch'
p2397
I3
sS'speed'
p2398
I1
sS'death'
p2399
I17
sS'legitimately'
p2400
I3
sS'thinking'
p2401
I9
sS'improvement'
p2402
I4
sS'subversion'
p2403
I1
sS'verse'
p2404
I3
sS'struck'
p2405
I1
sS'laundering'
p2406
I2
sS'phelps'
p2407
I2
sS'rules'
p2408
I11
sS'twitchy'
p2409
I1
sS'stung'
p2410
I1
sS'gonna'
p2411
I1
sS'briefest'
p2412
I1
sS'politely'
p2413
I1
sS'using'
p2414
I10
sS'recipient'
p2415
I1
sS'ruled'
p2416
I1
sS'fortune'
p2417
I1
sS'heightened'
p2418
I1
sS'utterances'
p2419
I1
sS'benefit'
p2420
I51
sS'nubile'
p2421
I1
sS'fully'
p2422
I3
sS'dirtier'
p2423
I1
sS'twelve'
p2424
I1
sS'exposed'
p2425
I6
sS'zealously'
p2426
I1
sS'duration'
p2427
I1
sS'manipulator'
p2428
I1
sS'conservative'
p2429
I1
sS'babysitter'
p2430
I1
sS'ethos'
p2431
I1
sS'assembly'
p2432
I2
sS'business'
p2433
I34
sS'epsom'
p2434
I1
sS'credits'
p2435
I2
sS'throw'
p2436
I3
sS'comparison'
p2437
I1
sS'central'
p2438
I13
sS'ideology'
p2439
I4
sS'escalating'
p2440
I1
sS'greatly'
p2441
I1
sS'assassin'
p2442
I1
sS'mauis'
p2443
I2
sS'protests'
p2444
I3
sS'inclusion'
p2445
I1
sS'thirdterm'
p2446
I1
sS'involvement'
p2447
I4
sS'watchdog'
p2448
I1
sS'shrinking'
p2449
I1
sS'intervention'
p2450
I4
sS'stare'
p2451
I1
sS'unhelpfulquot'
p2452
I1
sS'removing'
p2453
I3
sS'backbench'
p2454
I1
sS'start'
p2455
I15
sS'stealth'
p2456
I1
sS'drank'
p2457
I1
sS'timaru'
p2458
I1
sS'billion'
p2459
I7
sS'delayed'
p2460
I1
sS'manipulative'
p2461
I1
sS'curtain'
p2462
I1
sS'pitched'
p2463
I1
sS'trying'
p2464
I27
sS'copied'
p2465
I1
sS'fraud'
p2466
I1
sS'tones'
p2467
I1
sS'beliefs'
p2468
I2
sS'expect'
p2469
I17
sS'intents'
p2470
I1
sS'huata'
p2471
I2
sS'describe'
p2472
I4
sS'moved'
p2473
I6
sS'sales'
p2474
I1
sS'bootie'
p2475
I1
sS'midweek'
p2476
I1
sS'moves'
p2477
I3
sS'cemented'
p2478
I1
sS'infact'
p2479
I1
sS'credibility'
p2480
I7
sS'valid'
p2481
I5
sS'milking'
p2482
I2
sS'mathematics'
p2483
I1
sS'fools'
p2484
I2
sS'forcing'
p2485
I4
sS'gaining'
p2486
I1
sS'theschools'
p2487
I1
sS'coverage'
p2488
I2
sS'michaelnbspbassett'
p2489
I1
sS'thewaterways'
p2490
I1
sS'fiscal'
p2491
I6
sS'tariana'
p2492
I1
sS'inevitability'
p2493
I1
sS'orakei'
p2494
I2
sS'apathy'
p2495
I2
sS'repay'
p2496
I1
sS'chauvel'
p2497
I2
sS"fran's"
p2498
I2
sS'overseas'
p2499
I7
sS'since'
p2500
I27
sS'semantic'
p2501
I1
sS'pointing'
p2502
I5
sS'splitting'
p2503
I1
sS'month'
p2504
I4
sS'thoughtful'
p2505
I1
sS'deadline'
p2506
I4
sS'managed'
p2507
I4
sS'jolly'
p2508
I1
sS'nodick'
p2509
I1
sS'carpet'
p2510
I1
sS'fizzles'
p2511
I1
sS'referring'
p2512
I4
sS'auckland'
p2513
I23
sS'safety'
p2514
I1
sS'patently'
p2515
I1
sS'coleader'
p2516
I1
sS"shortly'"
p2517
I1
sS'voicing'
p2518
I1
sS'horror'
p2519
I2
sS'balancing'
p2520
I1
sS'decide'
p2521
I4
sS'heaven'
p2522
I1
sS'louis'
p2523
I1
sS'prohibitions'
p2524
I1
sS"o'sullivan"
p2525
I1
sS'cookies'
p2526
I1
sS'selfexpression'
p2527
I2
sS'casual'
p2528
I1
sS'blairs'
p2529
I2
sS'conscience'
p2530
I2
sS'consumers'
p2531
I5
sS'witnessed'
p2532
I1
sS'fisking'
p2533
I1
sS'learned'
p2534
I2
sS'repugnant'
p2535
I1
sS'deborah'
p2536
I1
sS'edited'
p2537
I1
sS'loose'
p2538
I2
sS'modify'
p2539
I1
sS'answers'
p2540
I7
sS'tracks'
p2541
I2
sS'uneven'
p2542
I6
sS'excess'
p2543
I1
sS'strong'
p2544
I11
sS'respect'
p2545
I6
sS'arena'
p2546
I1
sS'ahead'
p2547
I8
sS'losses'
p2548
I3
sS'whine'
p2549
I1
sS'fired'
p2550
I1
sS'amount'
p2551
I3
sS'arent'
p2552
I1
sS'blogagain'
p2553
I1
sS'family'
p2554
I29
sS'taxpayermoneygrubbing'
p2555
I1
sS'requiring'
p2556
I1
sS'tendered'
p2557
I1
sS'aimed'
p2558
I3
sS'chunks'
p2559
I1
sS'unpleasantness'
p2560
I1
sS'conventional'
p2561
I1
sS'flaws'
p2562
I1
sS'takes'
p2563
I10
sS'henare'
p2564
I1
sS'revelation'
p2565
I2
sS'unpleasant'
p2566
I2
sS'glaxo'
p2567
I1
sS'entails'
p2568
I1
sS'lowering'
p2569
I1
sS'delaying'
p2570
I2
sS'ivescrewedupcom'
p2571
I1
sS'workplaces'
p2572
I1
sS'excuse'
p2573
I5
sS'broke'
p2574
I4
sS'mounted'
p2575
I1
sS'pretense'
p2576
I1
sS'suffered'
p2577
I3
sS'8216labour'
p2578
I1
sS'bunnythorpe'
p2579
I1
sS'budgeta'
p2580
I1
sS'veterans'
p2581
I1
sS'coalition'
p2582
I10
sS'fronted'
p2583
I2
sS'history'
p2584
I10
sS'stinging'
p2585
I1
sS'pushed'
p2586
I3
sS'exclude'
p2587
I2
sS"year's"
p2588
I4
sS'firmly'
p2589
I1
sS'gaffes'
p2590
I1
sS'processors'
p2591
I1
sS'actionthe'
p2592
I1
sS'greenpeace'
p2593
I6
sS"bank'"
p2594
I1
sS'stayed'
p2595
I3
sS'clarks'
p2596
I6
sS'schultz'
p2597
I1
sS'streetentrance'
p2598
I1
sS'tried'
p2599
I6
sS'unashamed'
p2600
I1
sS'progressives'
p2601
I5
sS'tries'
p2602
I1
sS'hubbard'
p2603
I6
sS'invasion'
p2604
I2
sS'scritiny'
p2605
I1
sS'compulsory'
p2606
I3
sS'reelect'
p2607
I1
sS'preferential'
p2608
I1
sS'anytime'
p2609
I3
sS'banks'
p2610
I3
sS'charities'
p2611
I2
sS'committee'
p2612
I30
sS'committed'
p2613
I2
sS'mcdonalds'
p2614
I1
sS'taxpayer'
p2615
I13
sS'espiner'
p2616
I4
sS'fined'
p2617
I1
sS'labours'
p2618
I7
sS'actually'
p2619
I35
sS'absence'
p2620
I4
sS'systems'
p2621
I3
sS'radical'
p2622
I1
sS'vetting'
p2623
I2
sS'taxesquot'
p2624
I1
sS"haven't"
p2625
I4
sS'pleads'
p2626
I1
sS"you've"
p2627
I1
sS'desperately'
p2628
I1
sS'imprisoned'
p2629
I1
sS'sundays'
p2630
I1
sS'occasions'
p2631
I1
sS'intervene'
p2632
I1
sS'bless'
p2633
I2
sS'stopped'
p2634
I2
sS"isn't"
p2635
I14
sS'referred'
p2636
I2
sS'sketches'
p2637
I1
sS'sketched'
p2638
I1
sS'beyond'
p2639
I1
sS'event'
p2640
I1
sS'taunted'
p2641
I1
sS'marcia'
p2642
I1
sS'surrounded'
p2643
I2
sS'temporary'
p2644
I1
sS'publish'
p2645
I3
sS'trusts'
p2646
I2
sS'reorganised'
p2647
I1
sS'dominated'
p2648
I1
sS'issue'
p2649
I23
sS'earnt'
p2650
I2
sS'houses'
p2651
I8
sS'reason'
p2652
I17
sS'coastline'
p2653
I1
sS'launch'
p2654
I1
sS'americas'
p2655
I2
sS'leftwing'
p2656
I4
sS'expecting'
p2657
I1
sS'businessmen'
p2658
I2
sS'corrupting'
p2659
I1
sS'devolve'
p2660
I1
sS'interviews'
p2661
I1
sS'goodhew'
p2662
I1
sS'reflected'
p2663
I2
sS'horse'
p2664
I3
sS'forit'
p2665
I1
sS'pinned'
p2666
I1
sS'station'
p2667
I1
sS'hundred'
p2668
I2
sS'selling'
p2669
I3
sS'jordan'
p2670
I3
sS'apprentice'
p2671
I1
sS'financing'
p2672
I3
sS'scheme'
p2673
I10
sS'utopia'
p2674
I3
sS'uncanny'
p2675
I1
sS'toward'
p2676
I1
sS'mickey'
p2677
I1
sS'deciding'
p2678
I2
sS'substantiated'
p2679
I1
sS'wasnt'
p2680
I1
sS'alongside'
p2681
I2
sS'randomly'
p2682
I1
sS'substantial'
p2683
I3
sS'unfocussed'
p2684
I2
sS'vulnerable'
p2685
I3
sS'ratings'
p2686
I2
sS'scotland'
p2687
I2
sS'officers'
p2688
I6
sS'labour'
p2689
I273
sS'useless'
p2690
I3
sS'dogooders'
p2691
I1
sS'experienced'
p2692
I1
sS'quote'
p2693
I7
sS'quota'
p2694
I1
sS'exempted'
p2695
I1
sS'hired'
p2696
I4
sS'sponsored'
p2697
I1
sS'position'
p2698
I12
sS'approved'
p2699
I2
sS'maliagas'
p2700
I2
sS'salary'
p2701
I2
sS'loopholes'
p2702
I5
sS'clear'
p2703
I24
sS'unreasonable'
p2704
I1
sS'we8217ll'
p2705
I1
sS'latest'
p2706
I21
sS'stunned'
p2707
I1
sS'stunner'
p2708
I2
sS'northern'
p2709
I3
sS'paranoid'
p2710
I3
sS'assertion'
p2711
I1
sS'pretty'
p2712
I11
sS'criticising'
p2713
I2
sS'hardened'
p2714
I1
sS'darwin'
p2715
I1
sS'isolationist'
p2716
I1
sS'policing'
p2717
I1
sS'dominant'
p2718
I1
sS'upstanding'
p2719
I1
sS'meanwhile'
p2720
I3
sS'punters'
p2721
I2
sS'famous'
p2722
I1
sS'assaulted'
p2723
I1
sS'competing'
p2724
I1
sS'nbsp3nbsp'
p2725
I3
sS'during'
p2726
I12
sS'fonterra'
p2727
I1
sS'alexander'
p2728
I2
sS'catches'
p2729
I1
sS'underlying'
p2730
I1
sS'recommendations'
p2731
I2
sS'poisoned'
p2732
I1
sS'maurice'
p2733
I1
sS'throwing'
p2734
I2
sS'plausible'
p2735
I2
sS'culture'
p2736
I7
sS'close'
p2737
I12
sS'despatch'
p2738
I1
sS'pictures'
p2739
I2
sS'probably'
p2740
I17
sS'conditions'
p2741
I3
sS'missing'
p2742
I3
sS'metiria'
p2743
I4
sS'league'
p2744
I1
sS'phishing'
p2745
I8
sS"wouldn't"
p2746
I3
sS'minorities'
p2747
I1
sS'sensitive'
p2748
I1
sS'readnbspmore'
p2749
I1
sS'auditorgeneral'
p2750
I1
sS'anglosphere'
p2751
I1
sS'liked'
p2752
I2
sS'headed'
p2753
I2
sS'longerterm'
p2754
I1
sS'liabilities'
p2755
I1
sS'whatever'
p2756
I7
sS'ideologues'
p2757
I1
sS'likes'
p2758
I3
sS'field8217s'
p2759
I1
sS'lecturers'
p2760
I2
sS'described'
p2761
I3
sS'exert'
p2762
I1
sS'describes'
p2763
I1
sS'territory'
p2764
I1
sS'empty'
p2765
I2
sS'dialogue'
p2766
I1
sS'lived'
p2767
I4
sS'partly'
p2768
I2
sS'exempt'
p2769
I5
sS'lives'
p2770
I9
sS'forelocktugging'
p2771
I2
sS'rnzaf'
p2772
I2
sS'socialist'
p2773
I10
sS'hotties'
p2774
I1
sS'governor'
p2775
I5
sS'while'
p2776
I56
sS'socialism'
p2777
I2
sS'reformed'
p2778
I1
sS'mitchell'
p2779
I1
sS'costly'
p2780
I1
sS'voters'
p2781
I15
sS'overlooked'
p2782
I2
sS'reads'
p2783
I1
sS'ready'
p2784
I4
sS'fairer'
p2785
I3
sS'hyperbole'
p2786
I1
sS'clerical'
p2787
I1
sS'anymore'
p2788
I3
sS'grant'
p2789
I1
sS'belong'
p2790
I1
sS'discredit'
p2791
I1
sS'grand'
p2792
I2
sS'conflict'
p2793
I5
sS'lawyers'
p2794
I2
sS'blair'
p2795
I1
sS'youngsters'
p2796
I3
sS"'research'"
p2797
I1
sS'chris'
p2798
I12
sS'cleaning'
p2799
I1
sS'older'
p2800
I2
sS'poland'
p2801
I2
sS'obviously'
p2802
I7
sS'auditor'
p2803
I1
sS'genuinely'
p2804
I1
sS'appalled'
p2805
I1
sS'distances'
p2806
I1
sS'collectivism'
p2807
I1
sS'collectivise'
p2808
I2
sS'teenage'
p2809
I1
sS'quarters'
p2810
I1
sS'heavyhanded'
p2811
I1
sS'insolent'
p2812
I2
sS'collectivist'
p2813
I1
sS'retirement'
p2814
I3
sS'guaranteed'
p2815
I2
sS'billsroutinely'
p2816
I1
sS'questioned'
p2817
I1
sS'bollard'
p2818
I2
sS'remaining'
p2819
I3
sS'applauded'
p2820
I1
sS'march'
p2821
I8
sS'lacking'
p2822
I1
sS'evaluate'
p2823
I1
sS'capacities'
p2824
I2
sS'frontbench'
p2825
I1
sS"judgment'"
p2826
I1
sS'sherry'
p2827
I1
sS'sheenan'
p2828
I1
sS'outright'
p2829
I3
sS'inviting'
p2830
I1
sS'submission'
p2831
I5
sS'signal'
p2832
I1
sS'multicultural'
p2833
I1
sS'translates'
p2834
I2
sS"issues'"
p2835
I1
sS'donna'
p2836
I3
sS'popular'
p2837
I5
sS'perked'
p2838
I1
sS'fathers'
p2839
I1
sS"pacific's"
p2840
I2
sS'urgent'
p2841
I2
sS'trends'
p2842
I1
sS'contestable'
p2843
I1
sS'plumbers'
p2844
I1
sS'criminalising'
p2845
I1
sS'delivered'
p2846
I3
sS'exceeding'
p2847
I1
sS'37nbsp'
p2848
I1
sS'minimal'
p2849
I1
sS'everybody'
p2850
I3
sS'eating'
p2851
I2
sS'hypocritical'
p2852
I1
sS'fitzsimons'
p2853
I2
sS'lasts'
p2854
I4
sS'him8221'
p2855
I1
sS'wealth'
p2856
I5
sS'faith'
p2857
I6
sS'82000'
p2858
I1
sS'httpwwwnationalorgnzfiles050by50johnkeyspeechpdf'
p2859
I1
sS'impacting'
p2860
I1
sS'experiences'
p2861
I1
sS'classics'
p2862
I1
sS'block'
p2863
I1
sS'newstalk'
p2864
I1
sS'seeing'
p2865
I7
sS'visit'
p2866
I12
sS'within'
p2867
I13
sS'nonsense'
p2868
I7
sS'behaving'
p2869
I1
sS'computer'
p2870
I5
sS'renewal'
p2871
I1
sS'accountability'
p2872
I4
sS'consultation'
p2873
I2
sS'heritage'
p2874
I2
sS'fisheries'
p2875
I5
sS'himself'
p2876
I9
sS"carterton's"
p2877
I1
sS'sideswipe'
p2878
I1
sS'registered'
p2879
I3
sS'suspition'
p2880
I1
sS'larry'
p2881
I2
sS'411nbsp'
p2882
I1
sS'authority'
p2883
I2
sS'tragically'
p2884
I1
sS'disproportionately'
p2885
I1
sS'collapses'
p2886
I2
sS'chronicle'
p2887
I1
sS'8220inefficient8221'
p2888
I1
sS'similar'
p2889
I11
sS'noone'
p2890
I5
sS'ordered'
p2891
I1
sS'adults'
p2892
I4
sS'interventions'
p2893
I3
sS'proper'
p2894
I2
sS'aboutwasting'
p2895
I1
sS'amounts'
p2896
I4
sS'dashed'
p2897
I1
sS'preachers'
p2898
I1
sS'recognition'
p2899
I4
sS'department'
p2900
I2
sS'eerily'
p2901
I1
sS"fatphobics'"
p2902
I1
sS'responded'
p2903
I1
sS'shrug'
p2904
I1
sS'venerable'
p2905
I1
sS'reportedly'
p2906
I1
sS'critiques'
p2907
I1
sS"parliament's"
p2908
I1
sS'bravado'
p2909
I1
sS'regulations'
p2910
I5
sS'59click'
p2911
I1
sS'smiled'
p2912
I1
sS'misspending'
p2913
I1
sS'heroine'
p2914
I1
sS'structure'
p2915
I2
sS'practically'
p2916
I1
sS'required'
p2917
I9
sS'wellbeing'
p2918
I1
sS'pamphlets'
p2919
I1
sS'depth'
p2920
I3
sS'utilises'
p2921
I1
sS"she's"
p2922
I3
sS'requires'
p2923
I3
sS'sounded'
p2924
I2
sS'cheerful'
p2925
I1
sS'farms'
p2926
I1
sS'proposition'
p2927
I1
sS'officialswho'
p2928
I1
sS'arrogance'
p2929
I1
sS'excluded'
p2930
I3
sS'ernabella'
p2931
I2
sS'portfolios'
p2932
I1
sS'chooses'
p2933
I1
sS'colmar'
p2934
I5
sS'defamatory'
p2935
I1
sS'valuea'
p2936
I1
sS'exits'
p2937
I1
sS'stiff'
p2938
I1
sS'ironies'
p2939
I1
sS'michael'
p2940
I25
sS'queen'
p2941
I5
sS'verdict'
p2942
I1
sS'quoting'
p2943
I1
sS'carter'
p2944
I15
sS'punishing'
p2945
I1
sS'blitz'
p2946
I2
sS'picked'
p2947
I3
sS'ardent'
p2948
I1
sS'click'
p2949
I3
sS'clich'
p2950
I1
sS'sausage'
p2951
I3
sS'plays'
p2952
I3
sS'bluntly'
p2953
I1
sS'poles'
p2954
I1
sS'folks'
p2955
I1
sS'collins'
p2956
I8
sS'nicholas'
p2957
I1
sS'brunei'
p2958
I1
sS'focuses'
p2959
I1
sS'stance'
p2960
I2
sS'commercial'
p2961
I2
sS'following'
p2962
I18
sS'focused'
p2963
I2
sS'making'
p2964
I22
sS'breakupwhich'
p2965
I1
sS"national's"
p2966
I15
sS'securing'
p2967
I2
sS'ambualnce'
p2968
I1
sS'kiwi8217s'
p2969
I1
sS'investigatorformer'
p2970
I1
sS'stubbornness'
p2971
I2
sS"weren't"
p2972
I1
sS'buckwheat'
p2973
I1
sS'examining'
p2974
I1
sS'addresses'
p2975
I3
sS'clark'
p2976
I74
sS'danger'
p2977
I3
sS'plutocracy'
p2978
I1
sS'pariahs'
p2979
I1
sS'paranoia'
p2980
I1
sS'brookhammer'
p2981
I2
sS'mcgillicuddy'
p2982
I1
sS'surpluses'
p2983
I1
sS'stupider'
p2984
I1
sS'buildup'
p2985
I1
sS'truckloads'
p2986
I1
sS'cloud'
p2987
I1
sS'gpc8217s'
p2988
I1
sS'remains'
p2989
I6
sS'bureacrats'
p2990
I1
sS'historically'
p2991
I1
sS'reflects'
p2992
I3
sS'rakaia'
p2993
I1
sS'bureaucracy'
p2994
I1
sS'started'
p2995
I4
sS'statutes'
p2996
I1
sS'appointee'
p2997
I1
sS'cassandras'
p2998
I2
sS'announcing'
p2999
I5
sS'averaged'
p3000
I1
sS'shrieked'
p3001
I1
sS'crossed'
p3002
I1
sS'servants'
p3003
I2
sS'that8217s'
p3004
I3
sS'lockwood'
p3005
I3
sS'certainty'
p3006
I2
sS'control'
p3007
I9
sS'beijing'
p3008
I1
sS'coincident'
p3009
I1
sS'links'
p3010
I6
sS'providers'
p3011
I2
sS'oposition'
p3012
I1
sS'pulling'
p3013
I2
sS'sought'
p3014
I1
sS'wonderful'
p3015
I2
sS'skirt'
p3016
I1
sS'hesitate'
p3017
I1
sS'immoral'
p3018
I1
sS'firstnbsp'
p3019
I1
sS'aborigines'
p3020
I1
sS'engineering'
p3021
I4
sS'advocated'
p3022
I1
sS'scoop'
p3023
I1
sS'advocates'
p3024
I2
sS'agenda'
p3025
I8
sS'healthcare'
p3026
I1
sS'software'
p3027
I1
sS'including'
p3028
I11
sS'mentioned'
p3029
I7
sS'backers'
p3030
I2
sS'nbsp15nbsp'
p3031
I1
sS'catherine'
p3032
I1
sS'fluff'
p3033
I1
sS'emphasised'
p3034
I1
sS'hands'
p3035
I9
sS'front'
p3036
I5
sS'documented'
p3037
I2
sS'careysharey'
p3038
I1
sS'university'
p3039
I17
sS'adjournment'
p3040
I1
sS'testicle'
p3041
I1
sS'magnitude'
p3042
I1
sS'crossing'
p3043
I1
sS'nationals'
p3044
I4
sS'uncaring'
p3045
I1
sS'attachments'
p3046
I1
sS'investigative'
p3047
I2
sS'exceeded'
p3048
I1
sS'steadier'
p3049
I1
sS'special'
p3050
I1
sS'lukewarm'
p3051
I1
sS'entertainment'
p3052
I1
sS"needn't"
p3053
I1
sS'confess'
p3054
I1
sS'unlawful'
p3055
I1
sS'activist'
p3056
I3
sS'cause'
p3057
I6
sS'cartoons'
p3058
I1
sS'torres'
p3059
I1
sS'humiliating'
p3060
I1
sS'attending'
p3061
I2
sS'completely'
p3062
I9
sS'befriended'
p3063
I1
sS'route'
p3064
I3
sS'childless'
p3065
I1
sS'times'
p3066
I16
sS'shred'
p3067
I1
sS'wading'
p3068
I2
sS'diminishes'
p3069
I1
sS'succeeds'
p3070
I1
sS'blogger'
p3071
I3
sS'confuse'
p3072
I1
sS'precisely'
p3073
I2
sS'quality'
p3074
I4
sS'blogged'
p3075
I3
sS"you're"
p3076
I11
sS'management'
p3077
I10
sS'privacy'
p3078
I4
sS'blinkered'
p3079
I1
sS'pharisees'
p3080
I1
sS'relations'
p3081
I3
sS'attach'
p3082
I1
sS'attack'
p3083
I16
sS'perfectly'
p3084
I3
sS'final'
p3085
I5
sS'prone'
p3086
I1
sS'punisg'
p3087
I1
sS'punish'
p3088
I2
sS'exactly'
p3089
I14
sS'apologise'
p3090
I3
sS'lists'
p3091
I3
sS"'other"
p3092
I2
sS'overwhelming'
p3093
I3
sS'herself'
p3094
I11
sS'outline'
p3095
I1
sS'succinctly'
p3096
I1
sS'buggers'
p3097
I1
sS'providing'
p3098
I7
sS'sweeteners'
p3099
I1
sS'theirnbspboots'
p3100
I1
sS'bastard'
p3101
I1
sS'burgling'
p3102
I1
sS'daltons'
p3103
I1
sS'battler'
p3104
I1
sS'heffernans'
p3105
I1
sS'instance'
p3106
I5
sS'issuing'
p3107
I1
sS'helennbsp'
p3108
I1
sS'medals'
p3109
I1
sS'coresponsibility'
p3110
I1
sS'passionately'
p3111
I1
sS'intentions'
p3112
I1
sS'connected'
p3113
I1
sS'lectured'
p3114
I1
sS'learnt'
p3115
I2
sS'intrinsic'
p3116
I1
sS'gallery'
p3117
I14
sS'observor'
p3118
I1
sS'attitudenbsp'
p3119
I1
sS'consequences'
p3120
I5
sS'upset'
p3121
I2
sS'astonishing'
p3122
I2
sS'12122007'
p3123
I1
sS'39nbsp'
p3124
I1
sS'affair'
p3125
I5
sS'parker'
p3126
I19
sS'underpins'
p3127
I1
sS'bigotries'
p3128
I1
sS'quotyet'
p3129
I1
sS'anyway'
p3130
I6
sS"'unhealthy'"
p3131
I1
sS'soldiers'
p3132
I1
sS'partners'
p3133
I4
sS'based'
p3134
I11
sS'winner'
p3135
I4
sS"won't"
p3136
I13
sS'employer'
p3137
I6
sS'reactive'
p3138
I1
sS'thunderous'
p3139
I1
sS'thresholds'
p3140
I1
sS'achieve'
p3141
I4
sS'dodge'
p3142
I3
sS'supportthen'
p3143
I1
sS'overall'
p3144
I8
sS'joint'
p3145
I4
sS"bob's"
p3146
I1
sS'legitimate'
p3147
I5
sS'fallout'
p3148
I1
sS'werent'
p3149
I1
sS'dodgy'
p3150
I1
sS'endless'
p3151
I1
sS'processes'
p3152
I1
sS'trucks'
p3153
I2
sS'course'
p3154
I32
sS'mohammed'
p3155
I1
sS'berserk'
p3156
I2
sS'contain'
p3157
I2
sS'proponents'
p3158
I4
sS'29nbsp'
p3159
I1
sS'accuses'
p3160
I1
sS'federalised'
p3161
I1
sS'humans'
p3162
I2
sS'officials'
p3163
I7
sS'usefulness'
p3164
I2
sS'desperate'
p3165
I10
sS'operated'
p3166
I1
sS'everencroaching'
p3167
I1
sS'written'
p3168
I8
sS'correctly'
p3169
I2
sS'neither'
p3170
I4
sS'economicallyorthodox'
p3171
I1
sS'importance'
p3172
I2
sS'group'
p3173
I16
sS'problem'
p3174
I27
sS'limits'
p3175
I8
sS'career'
p3176
I4
sS'farrar'
p3177
I5
sS'antisocial'
p3178
I1
sS'minds'
p3179
I2
sS'strains'
p3180
I2
sS'admit'
p3181
I7
sS'tuesday'
p3182
I7
sS'addition'
p3183
I5
sS'discrimination'
p3184
I1
sS'immense'
p3185
I1
sS'treat'
p3186
I1
sS'senses'
p3187
I1
sS'diversity'
p3188
I3
sS'retrospective'
p3189
I1
sS"helen's"
p3190
I1
sS'releasing'
p3191
I2
sS'expenditure'
p3192
I6
sS'winwin'
p3193
I1
sS'novel'
p3194
I1
sS'harder'
p3195
I12
sS'backbenchers'
p3196
I2
sS'periods'
p3197
I3
sS'examines'
p3198
I1
sS'maliaga'
p3199
I6
sS'surface'
p3200
I3
sS'8220shape'
p3201
I1
sS'capture'
p3202
I1
sS"telecom's"
p3203
I1
sS'identities'
p3204
I1
sS'began'
p3205
I3
sS"'i've"
p3206
I1
sS'proceeds'
p3207
I2
sS'parts'
p3208
I8
sS'speaker'
p3209
I13
sS'northwest'
p3210
I1
sS'underground'
p3211
I1
sS'party'
p3212
I229
sS'fanatics'
p3213
I1
sS'reactionary'
p3214
I1
sS'effect'
p3215
I7
sS'frequently'
p3216
I3
sS'indigenous'
p3217
I3
sS'fruitcakes'
p3218
I1
sS'poultry'
p3219
I1
sS'reflection'
p3220
I1
sS'nonetheless'
p3221
I2
sS'draconian'
p3222
I1
sS'enormously'
p3223
I1
sS'increasingly'
p3224
I10
sS'waikoukou'
p3225
I1
sS'nbsp1nbsp'
p3226
I2
sS'sources'
p3227
I1
sS'mistakes'
p3228
I4
sS'distant'
p3229
I1
sS'mysterious'
p3230
I1
sS'killed'
p3231
I3
sS'warrant'
p3232
I1
sS'indignation'
p3233
I1
sS'mediadriven'
p3234
I1
sS'historic'
p3235
I1
sS'burden'
p3236
I2
sS'immediately'
p3237
I1
sS'prominent'
p3238
I2
sS'necessary'
p3239
I7
sS'starry'
p3240
I1
sS'nonscandal'
p3241
I1
sS'sissy'
p3242
I1
sS'payments'
p3243
I5
sS'martin'
p3244
I3
sS'therein'
p3245
I1
sS'fornbspthem'
p3246
I1
sS'library'
p3247
I1
sS"scammers'"
p3248
I1
sS'peter'
p3249
I11
sS'competitor'
p3250
I1
sS'demonstrates'
p3251
I2
sS'kettle'
p3252
I1
sS'fabian'
p3253
I1
sS'demonstrated'
p3254
I2
sS'journal'
p3255
I1
sS'monetary'
p3256
I1
sS'expansion'
p3257
I1
sS'prohibited'
p3258
I1
sS'offset'
p3259
I1
sS'instinct'
p3260
I2
sS'bookmarking'
p3261
I1
sS'freedom'
p3262
I40
sS'selfappointed'
p3263
I1
sS'dominion'
p3264
I3
sS'tongue'
p3265
I1
sS'stakes'
p3266
I1
sS'equally'
p3267
I1
sS'previously'
p3268
I6
sS'couldnt'
p3269
I1
sS'managing'
p3270
I2
sS'utility'
p3271
I3
sS'additional'
p3272
I3
sS'funnily'
p3273
I1
sS'noticed'
p3274
I1
sS'delusions'
p3275
I2
sS'dolphins'
p3276
I2
sS'privacyin'
p3277
I1
sS'cricket'
p3278
I1
sS'williamson'
p3279
I1
sS'north'
p3280
I4
sS'whoopsie'
p3281
I1
sS'blaming'
p3282
I2
sS'subjective'
p3283
I1
sS'neutral'
p3284
I3
sS'goals'
p3285
I2
sS'courts'
p3286
I2
sS'highest'
p3287
I5
sS'signed'
p3288
I2
sS'converted'
p3289
I1
sS'limit'
p3290
I17
sS'piece'
p3291
I7
sS'devise'
p3292
I1
sS'universal'
p3293
I2
sS'upsets'
p3294
I1
sS'freeforall'
p3295
I1
sS'education'
p3296
I21
sS'functions'
p3297
I3
sS'contest'
p3298
I4
sS'fairminded'
p3299
I1
sS'offensive'
p3300
I2
sS'orkland'
p3301
I1
sS'westminster'
p3302
I1
sS'030173'
p3303
I1
sS'ashburton'
p3304
I2
sS'20000'
p3305
I2
sS'wouldbe'
p3306
I1
sS'methinks'
p3307
I2
sS'friends'
p3308
I5
sS'appoint'
p3309
I1
sS'blogs'
p3310
I4
sS'coowner'
p3311
I1
sS'foreshadowing'
p3312
I1
sS'commencement'
p3313
I1
sS'simpson'
p3314
I1
sS'aided'
p3315
I1
sS'secondly'
p3316
I3
sS'todays'
p3317
I3
sS'straws'
p3318
I1
sS'aides'
p3319
I1
sS'captain'
p3320
I1
sS'whose'
p3321
I2
sS'buddy'
p3322
I1
sS'selfserving'
p3323
I1
sS'tizard'
p3324
I4
sS'seriously'
p3325
I6
sS'presents'
p3326
I1
sS'teaching'
p3327
I3
sS'sorry'
p3328
I7
sS'characterised'
p3329
I1
sS"'leaky"
p3330
I1
sS'61203'
p3331
I1
sS'smack'
p3332
I1
sS'stolen'
p3333
I1
sS'interestbearing'
p3334
I1
sS'affect'
p3335
I2
sS'let8217s'
p3336
I2
sS'courageous'
p3337
I1
sS'refrains'
p3338
I1
sS"dpf's"
p3339
I2
sS'skills'
p3340
I5
sS'companies'
p3341
I21
sS'solution'
p3342
I4
sS'vector'
p3343
I1
sS'2007train'
p3344
I1
sS'enhance'
p3345
I1
sS'heading'
p3346
I3
sS'force'
p3347
I14
sS'across'
p3348
I12
sS'likely'
p3349
I20
sS'implemented'
p3350
I1
sS'colourful'
p3351
I1
sS'remuera'
p3352
I2
sS'complexities'
p3353
I1
sS'integrity'
p3354
I5
sS'spokesman'
p3355
I11
sS'lights'
p3356
I1
sS'bachelors'
p3357
I1
sS'deemed'
p3358
I2
sS'healthily'
p3359
I1
sS'intrest'
p3360
I3
sS'never'
p3361
I34
sS'60000'
p3362
I3
sS'nanny'
p3363
I5
sS'active'
p3364
I4
sS"aren't"
p3365
I8
sS'interpret'
p3366
I2
sS'rests'
p3367
I1
sS'economics'
p3368
I3
sS'credit'
p3369
I3
sS'cindy'
p3370
I1
sS'permit'
p3371
I2
sS'complicated'
p3372
I2
sS'adopting'
p3373
I1
sS'suitable'
p3374
I1
sS'astute'
p3375
I2
sS'reckoned'
p3376
I1
sS"'national"
p3377
I2
sS'campaign'
p3378
I54
sS'inequality'
p3379
I3
sS'moral'
p3380
I5
sS'10000'
p3381
I4
sS'counts'
p3382
I2
sS'circumvent'
p3383
I1
sS'tertiary'
p3384
I3
sS'criminals'
p3385
I1
sS'johnnbspkey'
p3386
I2
sS'44maori'
p3387
I1
sS'interestfree'
p3388
I1
sS'prefered'
p3389
I1
sS'recommend'
p3390
I1
sS'survive'
p3391
I1
sS'leaky'
p3392
I2
sS'posting'
p3393
I4
sS'expose'
p3394
I2
sS'adult'
p3395
I2
sS'cunliffe'
p3396
I5
sS'rights'
p3397
I14
sS'setup'
p3398
I1
sS"fr'instance"
p3399
I1
sS'whack'
p3400
I1
sS'jeopardised'
p3401
I1
sS'suggestive'
p3402
I1
sS'recidivists'
p3403
I1
sS'fresher'
p3404
I2
sS'assent'
p3405
I1
sS'involve'
p3406
I2
sS'untruthful'
p3407
I1
sS'initiate'
p3408
I1
sS'amazing'
p3409
I1
sS'answer'
p3410
I11
sS'massive'
p3411
I6
sS'minority'
p3412
I6
sS'replacing'
p3413
I1
sS'loyalty'
p3414
I1
sS'curiosity'
p3415
I1
sS'president'
p3416
I8
sS'purchase'
p3417
I2
sS'attempt'
p3418
I7
sS'third'
p3419
I41
sS'recieved'
p3420
I2
sS'capitalism'
p3421
I1
sS'maintain'
p3422
I1
sS"'dumbing"
p3423
I1
sS'overtakes'
p3424
I1
sS'hfees'
p3425
I1
sS'operations'
p3426
I2
sS'murray'
p3427
I1
sS'helena'
p3428
I1
sS'inflowoutflow'
p3429
I1
sS'responsive'
p3430
I2
sS"down'"
p3431
I1
sS'before'
p3432
I40
sS'scoring'
p3433
I1
sS"copeland's"
p3434
I1
sS'personal'
p3435
I25
sS'nz1248'
p3436
I1
sS'shackle'
p3437
I3
sS'better'
p3438
I25
sS'differently'
p3439
I2
sS'downtoearth'
p3440
I1
sS'weeks'
p3441
I12
sS'overcome'
p3442
I1
sS'donors'
p3443
I3
sS'combination'
p3444
I1
sS'fixation'
p3445
I1
sS'weakness'
p3446
I1
sS'unemployed'
p3447
I1
sS'intimidation'
p3448
I1
sS'academics'
p3449
I1
sS'bewildered'
p3450
I1
sS'indulge'
p3451
I4
sS'downright'
p3452
I1
sS'onethird'
p3453
I1
sS'unregistered'
p3454
I1
sS'rhetoric'
p3455
I2
sS'leaned'
p3456
I1
sS'pinch'
p3457
I1
sS'ducking'
p3458
I1
sS'operatives'
p3459
I1
sS'punishable'
p3460
I1
sS'principles'
p3461
I2
sS'marital'
p3462
I6
sS'trading'
p3463
I2
sS'caustic'
p3464
I1
sS'clauses'
p3465
I6
sS'principled'
p3466
I1
sS'extract'
p3467
I1
sS'velvet'
p3468
I1
sS'restricted'
p3469
I2
sS'tales'
p3470
I1
sS'crucial'
p3471
I1
sS'content'
p3472
I1
sS'reader'
p3473
I3
sS'surprise'
p3474
I2
sS'kiwis'
p3475
I9
sS'yesssssssssssss'
p3476
I1
sS'turning'
p3477
I6
sS'8216labours'
p3478
I1
sS'resume'
p3479
I1
sS'revenge'
p3480
I5
sS'aboriginal'
p3481
I5
sS'struggle'
p3482
I1
sS'quaking'
p3483
I1
sS'messages'
p3484
I4
sS'12000'
p3485
I3
sS'deems'
p3486
I1
sS'100000'
p3487
I2
sS'moving'
p3488
I4
sS'stewart'
p3489
I1
sS'enraged'
p3490
I1
sS'wronged'
p3491
I1
sS'features'
p3492
I1
sS'tonbspsee'
p3493
I1
sS'poofter'
p3494
I1
sS'warped'
p3495
I1
sS'ditch'
p3496
I3
sS'nastiness'
p3497
I1
sS'sourcestorylatest'
p3498
I1
sS'girly'
p3499
I1
sS'misusing'
p3500
I1
sS'500am'
p3501
I1
sS'girls'
p3502
I2
sS'inflow'
p3503
I2
sS'invalids'
p3504
I3
sS'horrendously'
p3505
I1
sS'somewhat'
p3506
I1
sS'helen'
p3507
I46
sS'hadnt'
p3508
I1
sS'begins'
p3509
I1
sS'distance'
p3510
I3
sS'affront'
p3511
I1
sS'enabled'
p3512
I1
sS'matter'
p3513
I22
sS'fabulous'
p3514
I1
sS'deserving'
p3515
I1
sS'enables'
p3516
I1
sS'bidder'
p3517
I1
sS'failnbsp'
p3518
I1
sS'modern'
p3519
I1
sS'childcare'
p3520
I1
sS'tells'
p3521
I2
sS'camapign'
p3522
I1
sS'8220the'
p3523
I2
sS'devolution'
p3524
I1
sS'fitting'
p3525
I1
sS'regular'
p3526
I2
sS'inconsistency'
p3527
I1
sS'zealand'
p3528
I109
sS'assisting'
p3529
I1
sS'definitely'
p3530
I4
sS'throughunpopular'
p3531
I1
sS'mailing'
p3532
I1
sS'annoyed'
p3533
I1
sS'urgency'
p3534
I4
sS'dover'
p3535
I1
sS'visitor'
p3536
I1
sS'recieve'
p3537
I1
sS'retire'
p3538
I1
sS'ending'
p3539
I2
sS'attempts'
p3540
I1
sS'exploits'
p3541
I3
sS'judges'
p3542
I1
sS'bookish'
p3543
I1
sS'debts'
p3544
I1
sS'infiltrate'
p3545
I2
sS'action8230in'
p3546
I1
sS'nbsp6'
p3547
I1
sS'nbsp2'
p3548
I1
sS'sortnbsp'
p3549
I1
sS'socialconstruct'
p3550
I1
sS'coast'
p3551
I6
sS'extraparliamentary'
p3552
I1
sS'nz8217s'
p3553
I1
sS'secrets8221'
p3554
I1
sS'venezuelans'
p3555
I1
sS'architecture'
p3556
I1
sS'framers'
p3557
I1
sS'politicallycorrect'
p3558
I1
sS'decides'
p3559
I4
sS'fascinating'
p3560
I1
sS'prophesy'
p3561
I1
sS'decided'
p3562
I9
sS'nontraditional'
p3563
I1
sS'subject'
p3564
I5
sS'scrap'
p3565
I2
sS'ataround10amitwas'
p3566
I1
sS"anderton's"
p3567
I2
sS'olympics'
p3568
I1
sS'simplest'
p3569
I1
sS'politicsnbsp'
p3570
I1
sS'sorts'
p3571
I1
sS'tolerance'
p3572
I2
sS'onora'
p3573
I1
sS'restricting'
p3574
I2
sS'ignorance'
p3575
I1
sS'tripled'
p3576
I1
sS'cousin'
p3577
I1
sS'picking'
p3578
I1
sS'suggested'
p3579
I2
sS'civilised'
p3580
I2
sS'party8221'
p3581
I1
sS'uncertainty'
p3582
I1
sS'federated'
p3583
I1
sS'against'
p3584
I62
sS'nongrumpiness'
p3585
I1
sS'contribution'
p3586
I5
sS'constiuents8221'
p3587
I1
sS'confronted'
p3588
I1
sS'gushed'
p3589
I1
sS'presumably'
p3590
I3
sS'hardworking'
p3591
I1
sS'height'
p3592
I1
sS'hygiene'
p3593
I1
sS'initiative'
p3594
I1
sS'aftermath'
p3595
I1
sS'loaded'
p3596
I1
sS'targeting'
p3597
I1
sS'basis'
p3598
I11
sS'allencompassing'
p3599
I1
sS'three'
p3600
I23
sS'commission'
p3601
I35
sS'recognised'
p3602
I2
sS'interest'
p3603
I37
sS'basic'
p3604
I5
sS'entered'
p3605
I3
sS'lovely'
p3606
I2
sS'13000'
p3607
I1
sS'website'
p3608
I7
sS'studs'
p3609
I1
sS'deeper'
p3610
I1
sS'antiobesity'
p3611
I1
sS'suppress'
p3612
I1
sS'kudos'
p3613
I1
sS'runup'
p3614
I1
sS'personally'
p3615
I6
sS'aviation'
p3616
I1
sS'definitioncaptures'
p3617
I1
sS'unpopular'
p3618
I3
sS"'spin'"
p3619
I1
sS'reinstate'
p3620
I4
sS'prebble'
p3621
I4
sS'transformation'
p3622
I2
sS'stash'
p3623
I1
sS'balance'
p3624
I3
sS'study'
p3625
I8
sS'chilling'
p3626
I1
sS'seven'
p3627
I2
sS'derisory'
p3628
I2
sS'shame'
p3629
I5
sS'clinging'
p3630
I2
sS'disappear'
p3631
I1
sS'maoripacificminority'
p3632
I1
sS'potentially'
p3633
I4
sS'filtered'
p3634
I1
sS'cassandra'
p3635
I3
sS'grows'
p3636
I1
sS'entitled'
p3637
I5
sS'evolve'
p3638
I3
sS'concertedeffective'
p3639
I1
sS'condemnation'
p3640
I1
sS'declaring'
p3641
I1
sS'opportunity'
p3642
I10
sS'thoughts'
p3643
I2
sS'programs'
p3644
I1
sS'changes'
p3645
I11
sS'failing'
p3646
I5
sS'berate'
p3647
I1
sS'practices'
p3648
I1
sS'qualities'
p3649
I1
sS'claims'
p3650
I7
sS'rogernome'
p3651
I1
sS'facto'
p3652
I2
sS'consciousness'
p3653
I1
sS'sentence'
p3654
I4
sS'foreigner'
p3655
I1
sS'prints'
p3656
I1
sS'alludes'
p3657
I1
sS'identify'
p3658
I1
sS'human'
p3659
I11
sS'facts'
p3660
I9
sS'candidate'
p3661
I10
sS'acumen'
p3662
I1
sS'regarded'
p3663
I1
sS'character'
p3664
I3
sS'copyrights'
p3665
I1
sS'crossposted'
p3666
I1
sS'sapped'
p3667
I1
sS'90000'
p3668
I2
sS'anonymouspolitical'
p3669
I1
sS'seperate'
p3670
I1
sS'wellintentioned'
p3671
I1
sS'nationalists'
p3672
I2
sS'background'
p3673
I1
sS'destroy'
p3674
I4
sS'supervisory'
p3675
I2
sS'dignity'
p3676
I1
sS'quotso'
p3677
I1
sS'manual'
p3678
I1
sS'unnecessary'
p3679
I1
sS"mallard's"
p3680
I5
sS'lefties'
p3681
I1
sS'interestingly'
p3682
I2
sS'somehow'
p3683
I5
sS'caledonian'
p3684
I1
sS'paragraphs'
p3685
I1
sS'strife'
p3686
I1
sS'exists'
p3687
I2
sS'collect'
p3688
I1
sS'arguing'
p3689
I3
sS'shakespeare'
p3690
I1
sS'waitakere'
p3691
I1
sS'schoolkids'
p3692
I1
sS'predicting'
p3693
I1
sS'super'
p3694
I6
sS'missive'
p3695
I1
sS'digestible'
p3696
I1
sS'flourished'
p3697
I1
sS'conceal'
p3698
I1
sS'afternoon'
p3699
I3
sS'commit'
p3700
I1
sS'3year'
p3701
I1
sS'automatically'
p3702
I2
sS'whats'
p3703
I1
sS'centralize'
p3704
I1
sS'intellectual'
p3705
I4
sS"world's"
p3706
I1
sS"society's"
p3707
I1
sS'1990s'
p3708
I1
sS'murderers'
p3709
I1
sS'partypolitical'
p3710
I1
sS'amazingly'
p3711
I1
sS'tennis'
p3712
I1
sS'influencing'
p3713
I1
sS'counterproductive'
p3714
I2
sS'editor'
p3715
I2
sS'classitotheshizicist'
p3716
I1
sS'8220this'
p3717
I1
sS'offering'
p3718
I1
sS'failure'
p3719
I7
sS'penned'
p3720
I1
sS'syndicate'
p3721
I3
sS'atrocities'
p3722
I1
sS'traits'
p3723
I1
sS'attached'
p3724
I1
sS'2nbsp'
p3725
I4
sS'economic'
p3726
I16
sS'verbiage'
p3727
I1
sS'8220working'
p3728
I1
sS'whisker'
p3729
I1
sS'stages'
p3730
I5
sS'average'
p3731
I15
sS'delete'
p3732
I2
sS'classic'
p3733
I5
sS'covert'
p3734
I2
sS'covers'
p3735
I2
sS'sticky'
p3736
I1
sS'can8217t'
p3737
I3
sS'floating'
p3738
I1
sS'startimes'
p3739
I1
sS'generally'
p3740
I11
sS'handed'
p3741
I1
sS'kiwisaver'
p3742
I17
sS'391nbsp'
p3743
I1
sS'surveynetnz'
p3744
I1
sS'digital'
p3745
I1
sS'quotthis'
p3746
I2
sS'outback'
p3747
I3
sS'authorities'
p3748
I2
sS'transfers'
p3749
I3
sS'antidemocratic'
p3750
I1
sS'weekend'
p3751
I4
sS'jones'
p3752
I1
sS'happening'
p3753
I4
sS'apology'
p3754
I2
sS'assume'
p3755
I3
sS'daily'
p3756
I4
sS'luckier'
p3757
I1
sS'overdue'
p3758
I1
sS'discreetly'
p3759
I1
sS'relieve'
p3760
I1
sS'manager'
p3761
I2
sS'suicide'
p3762
I1
sS'praises'
p3763
I1
sS'casualties'
p3764
I1
sS'father'
p3765
I3
sS'disgusting'
p3766
I2
sS"invalid's"
p3767
I3
sS'answered'
p3768
I5
sS'finally'
p3769
I10
sS'praised'
p3770
I1
sS'marks'
p3771
I1
sS'brashs'
p3772
I4
sS'analogous'
p3773
I1
sS'advises'
p3774
I1
sS'8220helengrad'
p3775
I1
sS'ohsodelicate'
p3776
I1
sS'advised'
p3777
I1
sS'worktesting'
p3778
I1
sS'timor'
p3779
I1
sS'pious'
p3780
I1
sS'governments'
p3781
I11
sS'evil8230'
p3782
I1
sS'cleaners'
p3783
I1
sS'democrat'
p3784
I1
sS'hooray'
p3785
I1
sS'round'
p3786
I3
sS'talked'
p3787
I3
sS'dealing'
p3788
I7
sS'welldressed'
p3789
I1
sS'entertained'
p3790
I1
sS'targets'
p3791
I2
sS'sideeffect'
p3792
I1
sS'favour'
p3793
I14
sS'suspect'
p3794
I8
sS'international'
p3795
I9
sS'filled'
p3796
I1
sS'proclaiming'
p3797
I1
sS'dwarf'
p3798
I1
sS'bandwagon'
p3799
I2
sS'oddson'
p3800
I1
sS'bloke'
p3801
I1
sS'guardian'
p3802
I2
sS'makeup'
p3803
I1
sS"maui's"
p3804
I1
sS'canadian'
p3805
I4
sS'institute'
p3806
I2
sS'shift'
p3807
I6
sS'438230'
p3808
I1
sS'exploitation'
p3809
I2
sS'wwwparliamentgovtnz'
p3810
I1
sS'crusading'
p3811
I1
sS'breathtaking'
p3812
I1
sS'useful'
p3813
I4
sS'merely'
p3814
I4
sS'regeneration'
p3815
I2
sS'soliciting'
p3816
I1
sS'flexibility'
p3817
I1
sS'sympathetic'
p3818
I1
sS'troops'
p3819
I4
sS'debunk'
p3820
I1
sS'uncritical'
p3821
I1
sS'to8230'
p3822
I1
sS'krystal'
p3823
I1
sS'incomemaori'
p3824
I1
sS'acceptable'
p3825
I3
sS'downing'
p3826
I1
sS'adverts'
p3827
I1
sS'effort'
p3828
I5
sS'wwwinvestigatemagazinecom'
p3829
I1
sS'avoiding'
p3830
I4
sS'yearnbsp'
p3831
I1
sS'wallet'
p3832
I1
sS'mp8217s'
p3833
I1
sS'growing'
p3834
I4
sS'flunky'
p3835
I2
sS'deceased'
p3836
I1
sS'claim'
p3837
I7
sS'crazy'
p3838
I4
sS'unbundling'
p3839
I1
sS'predict'
p3840
I1
sS"robson's"
p3841
I1
sS'winston'
p3842
I12
sS'confused'
p3843
I1
sS'agent'
p3844
I2
sS'sample'
p3845
I1
sS'pointedly'
p3846
I1
sS'disbelieve'
p3847
I1
sS'council'
p3848
I6
sS'inflows'
p3849
I1
sS'contracts'
p3850
I1
sS'sunday'
p3851
I7
sS'propagandistic'
p3852
I1
sS'persuasion'
p3853
I1
sS'pathway'
p3854
I1
sS'inputs'
p3855
I1
sS'shitstirrer'
p3856
I1
sS'designer'
p3857
I4
sS'critics'
p3858
I4
sS'membership'
p3859
I2
sS'designed'
p3860
I5
sS'privatise'
p3861
I2
sS'pressuring'
p3862
I2
sS'waist'
p3863
I1
sS'johnson'
p3864
I1
sS'iraqwar'
p3865
I1
sS'maybe'
p3866
I12
sS'cascade'
p3867
I1
sS'switch'
p3868
I3
sS'pickets'
p3869
I1
sS'deceive'
p3870
I1
sS'seem8230'
p3871
I1
sS'hendo'
p3872
I2
sS'josephine'
p3873
I1
sS'pointed'
p3874
I10
sS'argues'
p3875
I5
sS"'backdoor'"
p3876
I1
sS'argued'
p3877
I4
sS'pointer'
p3878
I1
sS'police'
p3879
I20
sS'thank'
p3880
I2
sS'interesting'
p3881
I22
sS'undermined'
p3882
I1
sS'listing'
p3883
I2
sS'policy'
p3884
I64
sS"hames'"
p3885
I1
sS'emailed'
p3886
I3
sS'finance'
p3887
I80
sS'views'
p3888
I19
sS'rattled'
p3889
I1
sS'killer'
p3890
I3
sS'sooner'
p3891
I1
sS'cutely'
p3892
I1
sS'aspirations'
p3893
I1
sS'prima'
p3894
I3
sS'tomfoolery'
p3895
I2
sS'bullshit'
p3896
I1
sS'outweigh'
p3897
I1
sS'beach'
p3898
I2
sS'craftily'
p3899
I1
sS"party's"
p3900
I8
sS'bathwater'
p3901
I1
sS'unlock'
p3902
I2
sS'aloof'
p3903
I1
sS'morning'
p3904
I9
sS'otherthrow'
p3905
I1
sS'elizabeth'
p3906
I1
sS'canada'
p3907
I3
sS'living'
p3908
I20
sS'jackson'
p3909
I1
sS'interference'
p3910
I4
sS'entitlements'
p3911
I4
sS'blubber'
p3912
I1
sS'objectivity'
p3913
I1
sS"'third"
p3914
I2
sS'correct'
p3915
I7
sS'assurance'
p3916
I1
sS'partowned'
p3917
I1
sS'gouge'
p3918
I1
sS'spies'
p3919
I3
sS'advance'
p3920
I5
sS'language'
p3921
I2
sS'ministry'
p3922
I5
sS'thing'
p3923
I36
sS'jumping'
p3924
I1
sS'registrar'
p3925
I1
sS'highprofile'
p3926
I1
sS'think'
p3927
I63
sS'frequent'
p3928
I4
sS'first'
p3929
I68
sS'enemies8221'
p3930
I1
sS'placards'
p3931
I2
sS'carry'
p3932
I7
sS'corporations'
p3933
I2
sS'sounds'
p3934
I4
sS'discharged'
p3935
I1
sS'little'
p3936
I23
sS'personalities'
p3937
I1
sS'anyone'
p3938
I23
sS'plains'
p3939
I1
sS'participated'
p3940
I1
sS'speaking'
p3941
I5
sS'mining'
p3942
I1
sS'allegedly'
p3943
I1
sS'accurately'
p3944
I3
sS'broadcast'
p3945
I5
sS'undoubtedly'
p3946
I1
sS"here's"
p3947
I4
sS'scraping'
p3948
I1
sS'gotta'
p3949
I1
sS'nzers'
p3950
I2
sS'knives'
p3951
I1
sS'tractor'
p3952
I1
sS'inferring'
p3953
I1
sS"'antismacking'"
p3954
I2
sS'penalities'
p3955
I1
sS'muckraking'
p3956
I2
sS'dissmissed'
p3957
I1
sS'marijuana'
p3958
I1
sS'voices'
p3959
I2
sS'kevin'
p3960
I2
sS'warsaw'
p3961
I1
sS'speakers'
p3962
I1
sS'efficient'
p3963
I4
sS'answering'
p3964
I1
sS'wasters'
p3965
I1
sS'shocked'
p3966
I1
sS'endangered'
p3967
I2
sS'potential'
p3968
I6
sS'performance'
p3969
I3
sS'switching'
p3970
I5
sS'thirdparty'
p3971
I3
sS'norman'
p3972
I7
sS'normal'
p3973
I1
sS'track'
p3974
I1
sS'correlation'
p3975
I2
sS'assault'
p3976
I2
sS'complaints'
p3977
I5
sS'tracy'
p3978
I2
sS'especially'
p3979
I16
sS'surprising'
p3980
I3
sS'fills'
p3981
I1
sS'trotter'
p3982
I11
sS'antitour'
p3983
I1
sS'pernicious'
p3984
I1
sS'properly'
p3985
I3
sS'suceeds'
p3986
I1
sS'representatives'
p3987
I5
sS'fervour'
p3988
I1
sS'threshold'
p3989
I9
sS'corner'
p3990
I2
sS'label'
p3991
I2
sS"father's"
p3992
I2
sS'specifically'
p3993
I5
sS'behind'
p3994
I13
sS'ultrarich'
p3995
I1
sS'black'
p3996
I3
sS'travesty'
p3997
I1
sS'treasury'
p3998
I5
sS'8220there'
p3999
I3
sS'awareness'
p4000
I3
sS'ranking'
p4001
I2
sS'hostage'
p4002
I1
sS'employers'
p4003
I5
sS'bunkle'
p4004
I1
sS'nearly'
p4005
I3
sS'conjunction'
p4006
I1
sS'unethical'
p4007
I1
sS'secondary'
p4008
I2
sS'beseech'
p4009
I1
sS'blogbusiness'
p4010
I1
sS'antidemocracy'
p4011
I1
sS'summary'
p4012
I6
sS'medias'
p4013
I1
sS'stupid'
p4014
I10
sS'worrying'
p4015
I2
sS'declared'
p4016
I4
sS'honesty'
p4017
I1
sS"bill's"
p4018
I2
sS"hasn't"
p4019
I2
sS'relative'
p4020
I4
sS'eliminating'
p4021
I1
sS'wonder'
p4022
I11
sS'registering'
p4023
I2
sS'forecast'
p4024
I1
sS'boundaries'
p4025
I3
sS'enough'
p4026
I26
sS'reading'
p4027
I12
sS'checks'
p4028
I3
sS'infrastructure'
p4029
I2
sS'august'
p4030
I7
sS'parent'
p4031
I1
sS'parental'
p4032
I10
sS'legitimacy'
p4033
I4
sS'crucified'
p4034
I1
sS'opine'
p4035
I1
sS'rugby'
p4036
I2
sS'wanganui'
p4037
I2
sS'according'
p4038
I7
sS'uninspiring'
p4039
I1
sS'spare'
p4040
I1
sS'among'
p4041
I8
sS'forecasting'
p4042
I1
sS'cancer'
p4043
I1
sS'grants'
p4044
I3
sS'stretched'
p4045
I1
sS'prasad'
p4046
I3
sS'considering'
p4047
I6
sS'sensible'
p4048
I3
sS'unusual'
p4049
I3
sS'capable'
p4050
I1
sS'judging'
p4051
I1
sS'30000'
p4052
I2
sS'offered'
p4053
I5
sS'dramatic'
p4054
I1
sS'declaration'
p4055
I3
sS'odyssey'
p4056
I1
sS'sound'
p4057
I4
sS'disconnected'
p4058
I5
sS'23000'
p4059
I1
sS'promising'
p4060
I2
sS'cancelled'
p4061
I1
sS'margin'
p4062
I1
sS'philosophies'
p4063
I1
sS'characteristics'
p4064
I4
sS'rubbing'
p4065
I2
sS'strait'
p4066
I1
sS'rammed'
p4067
I1
sS'middle'
p4068
I2
sS'unwritten'
p4069
I1
sS'dangerously'
p4070
I8
sS'everyday'
p4071
I2
sS'different'
p4072
I12
sS'absences'
p4073
I1
sS'harsh'
p4074
I1
sS'formulations'
p4075
I1
sS'aboutface'
p4076
I1
sS'theocratic'
p4077
I1
sS'speech'
p4078
I30
sS'arguments'
p4079
I7
sS'struggling'
p4080
I2
sS'jeffrey'
p4081
I1
sS'extended'
p4082
I3
sS'assist'
p4083
I2
sS'companion'
p4084
I2
sS'running'
p4085
I18
sS'driven'
p4086
I1
sS'climbing'
p4087
I1
sS'totally'
p4088
I4
sS'dipshits'
p4089
I1
sS'largely'
p4090
I5
sS'wellington'
p4091
I11
sS'substantive'
p4092
I1
sS'mortgages'
p4093
I1
sS'accountable'
p4094
I3
sS'deregistered'
p4095
I1
sS'amazed'
p4096
I1
sS'newsnbsp'
p4097
I1
sS'outdoor'
p4098
I1
sS'gangs'
p4099
I2
sS'money'
p4100
I80
sS'aspect'
p4101
I1
sS'positions'
p4102
I3
sS'quotnew'
p4103
I1
sS'politicians'
p4104
I24
sS'donorparty'
p4105
I1
sS'economyquot'
p4106
I1
sS'grandstanding'
p4107
I1
sS'capitalists'
p4108
I1
sS'deniability'
p4109
I2
sS'aiming'
p4110
I2
sS'blankets'
p4111
I1
sS'christine'
p4112
I1
sS'homosexuality'
p4113
I1
sS'serves'
p4114
I1
sS'facing'
p4115
I1
sS'degenerating'
p4116
I1
sS'audience'
p4117
I1
sS'either'
p4118
I26
sS'commiebot'
p4119
I1
sS'served'
p4120
I2
sS'passionate'
p4121
I1
sS'shadowy'
p4122
I1
sS'fulfil'
p4123
I2
sS'imprisonment'
p4124
I2
sS'lackeys'
p4125
I1
sS'pasture'
p4126
I1
sS'users'
p4127
I1
sS'genetics'
p4128
I1
sS'confirm'
p4129
I2
sS'critical'
p4130
I4
sS'inject'
p4131
I2
sS'expressing'
p4132
I1
sS'aussie'
p4133
I1
sS'halftruths'
p4134
I1
sS'seconds'
p4135
I1
sS'finlay'
p4136
I1
sS'broken'
p4137
I2
sS'casesthe'
p4138
I1
sS'refers'
p4139
I1
sS'ratbastards'
p4140
I1
sS'william'
p4141
I2
sS'conducting'
p4142
I2
sS'stations'
p4143
I3
sS'smear'
p4144
I4
sS'longheld'
p4145
I1
sS'meaning'
p4146
I3
sS'practical'
p4147
I2
sS'airline'
p4148
I3
sS'youve'
p4149
I1
sS'mixed'
p4150
I4
sS'quietly'
p4151
I2
sS'decimated'
p4152
I2
sS'whiter'
p4153
I1
sS'skilled'
p4154
I5
sS'strip'
p4155
I10
sS'parliamentgovtnz'
p4156
I2
sS'appears'
p4157
I9
sS'decisive'
p4158
I1
sS'hysterical'
p4159
I4
sS'downer'
p4160
I3
sS'fricken'
p4161
I1
sS'strikes'
p4162
I1
sS'mid2007'
p4163
I1
sS'proior'
p4164
I1
sS'shortterm'
p4165
I1
sS"'saving"
p4166
I1
sS"wasn't"
p4167
I3
sS'overreacts'
p4168
I2
sS'38000'
p4169
I1
sS'peeking'
p4170
I1
sS'emissions'
p4171
I7
sS'affection'
p4172
I1
sS'worklife'
p4173
I1
sS'videos'
p4174
I1
sS'youtube'
p4175
I1
sS'censor'
p4176
I1
sS'general'
p4177
I14
sS'imagination'
p4178
I2
sS'shortlist'
p4179
I1
sS'departments'
p4180
I2
sS'hound'
p4181
I1
sS'again'
p4182
I30
sS'amendments'
p4183
I10
sS'personnel'
p4184
I1
sS'field'
p4185
I21
sS'beltway'
p4186
I1
sS'students'
p4187
I16
sS'whenicalled'
p4188
I1
sS'important'
p4189
I21
sS'tackle'
p4190
I1
sS'curbing'
p4191
I1
sS'legal'
p4192
I12
sS'grudge'
p4193
I1
sS'remote'
p4194
I3
sS'assets'
p4195
I3
sS'hugely'
p4196
I2
sS'alright'
p4197
I1
sS'starting'
p4198
I3
sS'represent'
p4199
I6
sS'forget'
p4200
I2
sS'founder'
p4201
I1
sS'dollar'
p4202
I4
sS'worms'
p4203
I1
sS'alerting'
p4204
I1
sS'founded'
p4205
I1
sS'invariably'
p4206
I1
sS'talks'
p4207
I1
sS'allowances'
p4208
I1
sS'children'
p4209
I20
sS'reluctant'
p4210
I1
sS'responsiveness'
p4211
I1
sS'enjoying'
p4212
I2
sS'hattip'
p4213
I1
sS'premium'
p4214
I1
sS'sitting'
p4215
I3
sS'lianne'
p4216
I1
sS'overdone'
p4217
I1
sS'scout'
p4218
I1
sS'difference'
p4219
I9
sS'forking'
p4220
I1
sS'mothers'
p4221
I5
sS'judith'
p4222
I9
sS'antimicrochip'
p4223
I1
sS'independence'
p4224
I8
sS'playwright'
p4225
I1
sS'economically'
p4226
I1
sS'titled'
p4227
I1
sS'preordained'
p4228
I1
sS'perspective'
p4229
I3
sS'further'
p4230
I16
sS'misrepresent'
p4231
I1
sS'defence'
p4232
I9
sS'stood'
p4233
I2
sS'brackets'
p4234
I2
sS'public'
p4235
I90
sS'schoolssetting'
p4236
I1
sS'ranged'
p4237
I1
sS'component'
p4238
I1
sS'favourably'
p4239
I1
sS"nation's"
p4240
I2
sS'ranges'
p4241
I1
sS'beacon'
p4242
I1
sS'threads'
p4243
I1
sS'national8217s'
p4244
I8
sS'admits'
p4245
I4
sS'speeches'
p4246
I3
sS'jackie'
p4247
I2
sS'published'
p4248
I3
sS'narrow'
p4249
I2
sS'cowardly'
p4250
I2
sS'africa'
p4251
I1
sS'peopleargue'
p4252
I1
sS'aptitude'
p4253
I2
sS"sister's"
p4254
I1
sS'suits'
p4255
I2
sS'armed'
p4256
I1
sS'shareholders'
p4257
I4
sS'wanted'
p4258
I6
sS'distinct'
p4259
I1
sS'wiped'
p4260
I2
sS'texting'
p4261
I1
sS'governance'
p4262
I1
sS'comparing'
p4263
I1
sS'endowed'
p4264
I1
sS'restraints'
p4265
I1
sS'ethically'
p4266
I1
sS'wellingtonbased'
p4267
I1
sS"capitalist's"
p4268
I1
sS'staggering'
p4269
I1
sS'wasn8217t'
p4270
I2
sS'particular'
p4271
I11
sS'strain'
p4272
I1
sS'georgina'
p4273
I1
sS'recall'
p4274
I3
sS'phrasing'
p4275
I1
sS'sucks'
p4276
I2
sS'remain'
p4277
I7
sS'paragraph'
p4278
I2
sS'abandon'
p4279
I1
sS'strategies'
p4280
I1
sS'funders'
p4281
I1
sS'purchases'
p4282
I1
sS'shark'
p4283
I1
sS'gravely'
p4284
I1
sS'galleries'
p4285
I1
sS'share'
p4286
I9
sS'sphere'
p4287
I1
sS'minimum'
p4288
I4
sS'decarbonise'
p4289
I1
sS'numbers'
p4290
I11
sS'sharp'
p4291
I1
sS'copeland'
p4292
I13
sS'needs'
p4293
I16
sS'awkward'
p4294
I1
sS'comfort'
p4295
I1
sS'civilisation'
p4296
I2
sS'inflationary'
p4297
I3
sS'uprising'
p4298
I1
sS'advice'
p4299
I8
sS'blood'
p4300
I2
sS'coming'
p4301
I5
sS'response'
p4302
I24
sS'appelby'
p4303
I1
sS'blunder'
p4304
I3
sS'mislead'
p4305
I2
sS'responsibility'
p4306
I17
sS'playing'
p4307
I9
sS'rounded'
p4308
I2
sS'telling'
p4309
I7
sS'already'
p4310
I22
sS'through'
p4311
I33
sS'existence'
p4312
I1
sS'suffer'
p4313
I1
sS'shareholding'
p4314
I1
sS'detected'
p4315
I2
sS'bereft'
p4316
I1
sS'billsubmissions'
p4317
I1
sS'hurting'
p4318
I2
sS'someone'
p4319
I12
sS'seeking'
p4320
I1
sS'socially'
p4321
I1
sS"thinking'"
p4322
I2
sS'primary'
p4323
I4
sS'grubby'
p4324
I2
sS'wally'
p4325
I3
sS'stepped'
p4326
I1
sS'association'
p4327
I7
sS'incoherent'
p4328
I1
sS'easily'
p4329
I10
sS'worsequot'
p4330
I1
sS'suprise'
p4331
I4
sS'evade'
p4332
I1
sS'ashes'
p4333
I1
sS'habits'
p4334
I1
sS'gender'
p4335
I2
sS'repeating'
p4336
I1
sS'everyone'
p4337
I13
sS'mental'
p4338
I1
sS'house'
p4339
I38
sS'energy'
p4340
I29
sS'foxes'
p4341
I1
sS'engaging'
p4342
I4
sS'obtains'
p4343
I3
sS'insurance'
p4344
I1
sS'worshipers'
p4345
I1
sS'initiatives'
p4346
I1
sS'funding'
p4347
I37
sS'childish'
p4348
I1
sS'hernbsp'
p4349
I1
sS'discouraging'
p4350
I1
sS'acting'
p4351
I6
sS'print'
p4352
I4
sS'mercury'
p4353
I21
sS'pleasant'
p4354
I2
sS'extraordinary'
p4355
I1
sS'members'
p4356
I33
sS'backed'
p4357
I1
sS'orewa'
p4358
I2
sS'laughable'
p4359
I1
sS'beginning'
p4360
I5
sS'benefits'
p4361
I13
sS'snails'
p4362
I2
sS'computers'
p4363
I1
sS'conducted'
p4364
I4
sS'postarticle'
p4365
I1
sS'reinforced'
p4366
I1
sS'bullies'
p4367
I2
sS'disregarded'
p4368
I1
sS'zealands'
p4369
I3
sS'utilized'
p4370
I1
sS'inhibits'
p4371
I1
sS'neglects'
p4372
I1
sS'wages'
p4373
I5
sS"you'd"
p4374
I6
sS'indulgent'
p4375
I1
sS'twenty'
p4376
I2
sS'heralddigipoll'
p4377
I2
sS'least'
p4378
I19
sS'paint'
p4379
I2
sS'regulation'
p4380
I5
sS'assumption'
p4381
I2
sS'statement'
p4382
I10
sS'rates'
p4383
I39
sS'muscles'
p4384
I1
sS"citizens'"
p4385
I2
sS'defused'
p4386
I1
sS'scantily'
p4387
I1
sS'drunkenness'
p4388
I1
sS'trolls'
p4389
I1
sS'believe'
p4390
I35
sS'thumpings'
p4391
I1
sS'horizons'
p4392
I4
sS'youth'
p4393
I10
sS'contrary'
p4394
I2
sS'supposed'
p4395
I2
sS'treated'
p4396
I4
sS'declare'
p4397
I1
sS'fuelling'
p4398
I1
sS'concludes'
p4399
I2
sS'roughly'
p4400
I3
sS'download'
p4401
I2
sS'orders'
p4402
I1
sS'built'
p4403
I4
sS'dancing'
p4404
I2
sS'studyinmg'
p4405
I1
sS'onset'
p4406
I1
sS'majority'
p4407
I10
sS'build'
p4408
I8
sS'commentary'
p4409
I6
sS'easygoing'
p4410
I1
sS'chart'
p4411
I1
sS'committeewould'
p4412
I1
sS'charm'
p4413
I2
sS'significant'
p4414
I18
sS'services'
p4415
I23
sS'extremely'
p4416
I6
sS'laila'
p4417
I1
sS"'backdoor"
p4418
I1
sS'feasting'
p4419
I1
sS'showlast'
p4420
I1
sS'representatives8221'
p4421
I1
sS'dodging'
p4422
I5
sS'sector'
p4423
I12
sS'particularly'
p4424
I9
sS'obligations'
p4425
I1
sS'people8221'
p4426
I1
sS'businesses'
p4427
I7
sS'carefully'
p4428
I3
sS'headlines'
p4429
I2
sS"month's"
p4430
I1
sS'stuggling'
p4431
I2
sS'nervous'
p4432
I1
sS'distributed'
p4433
I4
sS'unhappy'
p4434
I3
sS'freedoms'
p4435
I1
sS"hodgson's"
p4436
I1
sS'override'
p4437
I1
sS'vistula'
p4438
I1
sS'express'
p4439
I2
sS'he8217s'
p4440
I2
sS'courage'
p4441
I1
sS'theft'
p4442
I4
sS'blogging'
p4443
I3
sS'resolve'
p4444
I2
sS'roles'
p4445
I3
sS'rebranded'
p4446
I1
sS'selfindulgence'
p4447
I1
sS'remove'
p4448
I4
sS'customerfocused'
p4449
I1
sS'common'
p4450
I11
sS'doubles'
p4451
I1
sS'unfettered'
p4452
I1
sS'cynical'
p4453
I1
sS'tended'
p4454
I2
sS'individual'
p4455
I5
sS'tender'
p4456
I3
sS'awatere'
p4457
I1
sS'degree'
p4458
I6
sS'halved'
p4459
I1
sS'visiting'
p4460
I2
sS'please'
p4461
I11
sS'donate'
p4462
I2
sS'numbercrunching'
p4463
I1
sS'responses'
p4464
I9
sS'complementary'
p4465
I1
sS'intimidated'
p4466
I2
sS'pissed'
p4467
I3
sS'cubes'
p4468
I2
sS'reverse'
p4469
I4
sS'carelessness'
p4470
I1
sS'readthe'
p4471
I1
sS'annual'
p4472
I3
sS'foreign'
p4473
I5
sS'cowley'
p4474
I1
sS'httplindsaymitchellblogspotcom'
p4475
I1
sS'point'
p4476
I20
sS'simple'
p4477
I8
sS'recycling'
p4478
I1
sS'panicking'
p4479
I1
sS'simply'
p4480
I23
sS'upgrades'
p4481
I1
sS'asserted'
p4482
I1
sS'throughout'
p4483
I1
sS'expensive'
p4484
I4
sS'headaches'
p4485
I1
sS'raise'
p4486
I11
sS'broadbased'
p4487
I1
sS'create'
p4488
I5
sS'secret'
p4489
I10
sS'ensured'
p4490
I1
sS'ireland'
p4491
I2
sS'meeting'
p4492
I6
sS'ghostwritten'
p4493
I1
sS'fleeced'
p4494
I1
sS'understand'
p4495
I2
sS'prices'
p4496
I3
sS'resisted'
p4497
I1
sS'trojan'
p4498
I2
sS'politician'
p4499
I6
sS'solid'
p4500
I6
sS'eclipsed'
p4501
I1
sS'reopens'
p4502
I2
sS'replaced'
p4503
I6
sS"o'kane"
p4504
I1
sS'indulging'
p4505
I1
sS'century'
p4506
I3
sS'itself'
p4507
I7
sS'finalists'
p4508
I1
sS'discourse'
p4509
I1
sS'hinchcliffe'
p4510
I7
sS'horton'
p4511
I2
sS'httpwwwnewstalkzbconznewsdetail1aspstoryid118189'
p4512
I1
sS'neutron'
p4513
I1
sS'development'
p4514
I14
sS'passwords'
p4515
I2
sS"greek's"
p4516
I1
sS'yesterday'
p4517
I16
sS'moment'
p4518
I8
sS'parliamentarian'
p4519
I2
sS'purpose'
p4520
I3
sS'indivisiblequotnbsp'
p4521
I1
sS"army's"
p4522
I1
sS'finesse'
p4523
I1
sS'spent'
p4524
I11
sS'regaling'
p4525
I1
sS'flags'
p4526
I1
sS'withdraw'
p4527
I1
sS'landmark'
p4528
I1
sS'entry'
p4529
I15
sS'spend'
p4530
I22
sS'prevention'
p4531
I2
sS'vindictive'
p4532
I1
sS'shape'
p4533
I4
sS'openly'
p4534
I2
sS'circling'
p4535
I1
sS'alternative'
p4536
I6
sS'dishonesty'
p4537
I1
sS'discipline'
p4538
I3
sS'fullscale'
p4539
I1
sS'source'
p4540
I3
sS'deliberately'
p4541
I10
sS'boardroom'
p4542
I2
sS'clamping'
p4543
I2
sS'hates'
p4544
I2
sS'ridiculously'
p4545
I1
sS'tamihere'
p4546
I1
sS'manage'
p4547
I5
sS'adversaries'
p4548
I1
sS'judgement'
p4549
I1
sS'matters'
p4550
I8
sS'subparts'
p4551
I1
sS'degenerated'
p4552
I1
sS'isthe'
p4553
I1
sS'follows'
p4554
I3
sS'decisionmaking'
p4555
I1
sS'glove'
p4556
I1
sS'rajen'
p4557
I1
sS'indication'
p4558
I1
sS'mediocrity'
p4559
I1
sS'foolish'
p4560
I1
sS'transgress'
p4561
I1
sS'publics'
p4562
I1
sS'absolutely'
p4563
I6
sS'underdeveloped'
p4564
I1
sS'strongest'
p4565
I2
sS'formerlytrotskyist'
p4566
I1
sS'mirror'
p4567
I1
sS'hattrick'
p4568
I2
sS'ourselves'
p4569
I1
sS'scale'
p4570
I2
sS'howison'
p4571
I3
sS'chamber'
p4572
I1
sS'decision'
p4573
I20
sS'i8217d'
p4574
I2
sS'eliminate'
p4575
I1
sS'commentator'
p4576
I1
sS'hayess'
p4577
I1
sS'continuing'
p4578
I7
sS'vietnam'
p4579
I1
sS'chargeable'
p4580
I1
sS"farrar's"
p4581
I1
sS'nonparliamentary'
p4582
I1
sS'goods'
p4583
I1
sS'thepoliticians'
p4584
I1
sS'chomsky'
p4585
I1
sS'tenants'
p4586
I6
sS'pollution'
p4587
I1
sS'retailer'
p4588
I3
sS'frames'
p4589
I1
sS'proportional'
p4590
I2
sS'lesson'
p4591
I1
sS'borer'
p4592
I1
sS'infected'
p4593
I1
sS'manifested'
p4594
I2
sS'forward'
p4595
I5
sS'opponent'
p4596
I1
sS'frenzied'
p4597
I1
sS'pounded'
p4598
I1
sS'motivational'
p4599
I1
sS"'good"
p4600
I1
sS'8220less'
p4601
I1
sS'hopes'
p4602
I3
sS'subsidiary'
p4603
I1
sS'laziest'
p4604
I2
sS'maximised'
p4605
I1
sS'tasman'
p4606
I1
sS'planet'
p4607
I1
sS'halfhearted'
p4608
I1
sS'maorinbsp'
p4609
I1
sS'single'
p4610
I10
sS'clever'
p4611
I3
sS"town's"
p4612
I1
sS'dispensation'
p4613
I1
sS'denying'
p4614
I2
sS'brethren'
p4615
I4
sS'excuses'
p4616
I1
sS'soninlaw'
p4617
I1
sS'becomes'
p4618
I5
sS'explaining'
p4619
I1
sS'favourite'
p4620
I4
sS'prepared'
p4621
I7
sS'cater'
p4622
I1
sS'utterly'
p4623
I2
sS'statesman'
p4624
I2
sS'implies'
p4625
I1
sS'amused'
p4626
I1
sS'implied'
p4627
I1
sS'rallies'
p4628
I2
sS'failures'
p4629
I2
sS'national8217snbspconference'
p4630
I1
sS'iraqi'
p4631
I1
sS'carpetbagging'
p4632
I1
sS'graeme'
p4633
I4
sS'8220their'
p4634
I1
sS'tradesmen'
p4635
I5
sS'quarterly'
p4636
I2
sS'colmarbrunton'
p4637
I1
sS'brigade'
p4638
I2
sS'random'
p4639
I2
sS'putting'
p4640
I8
sS'accuse'
p4641
I1
sS'entire'
p4642
I7
sS'recreation'
p4643
I1
sS'moderate'
p4644
I1
sS'8220aspirational8221'
p4645
I1
sS'uncovering'
p4646
I1
sS'resurface'
p4647
I1
sS'shock'
p4648
I3
sS'overnbsp5'
p4649
I1
sS'havent'
p4650
I1
sS"government's"
p4651
I7
sS'bleeding'
p4652
I3
sS'rivers'
p4653
I1
sS'uncomfortable'
p4654
I1
sS'friedlander'
p4655
I1
sS'depression'
p4656
I1
sS'staffers'
p4657
I3
sS'giving'
p4658
I8
sS'anthem'
p4659
I5
sS'access'
p4660
I5
sS'scorecards'
p4661
I1
sS'weeklynbspnewsletter8230'
p4662
I1
sS'kyoto'
p4663
I1
sS'exercise'
p4664
I3
sS'justification'
p4665
I1
sS'exchange'
p4666
I6
sS'others'
p4667
I15
sS'implicit'
p4668
I1
sS'widening'
p4669
I1
sS'remark'
p4670
I1
sS'talent'
p4671
I2
sS'contradiction'
p4672
I1
sS'climb'
p4673
I3
sS'named'
p4674
I1
sS'private'
p4675
I15
sS'decrease'
p4676
I1
sS'names'
p4677
I3
sS'muliaga'
p4678
I9
sS'scandal'
p4679
I2
sS'wimins'
p4680
I1
sS'inspiration'
p4681
I1
sS'breakup'
p4682
I1
sS'seamless'
p4683
I1
sS'themselves'
p4684
I20
sS'apprentices'
p4685
I2
sS'action8230'
p4686
I1
sS'trail'
p4687
I1
sS'train'
p4688
I1
sS'ashamed'
p4689
I3
sS'informally'
p4690
I1
sS'whaleoil'
p4691
I1
sS'minions'
p4692
I2
sS'hints'
p4693
I1
sS'mcfluffy'
p4694
I1
sS'account'
p4695
I9
sS"winston's"
p4696
I1
sS'obvious'
p4697
I5
sS'oneoff'
p4698
I1
sS'praise'
p4699
I2
sS'island'
p4700
I4
sS'industrial'
p4701
I1
sS'closing'
p4702
I7
sS'didnt'
p4703
I3
sS'violence'
p4704
I10
sS'proportions'
p4705
I1
sS'effectively'
p4706
I7
sS'overtly'
p4707
I2
sS'varied'
p4708
I1
sS'democracy'
p4709
I29
sS'noises'
p4710
I3
sS'holds'
p4711
I1
sS'launchbe'
p4712
I1
sS'regions'
p4713
I1
sS'responsibilities'
p4714
I8
sS'winners'
p4715
I1
sS'forest'
p4716
I1
sS'stock'
p4717
I2
sS'profile'
p4718
I4
sS'httpwwwlibertarianzorgnzlibzpr492'
p4719
I1
sS"essay's"
p4720
I1
sS'bothered'
p4721
I2
sS'legality'
p4722
I1
sS'lines'
p4723
I8
sS'chief'
p4724
I6
sS'poacher'
p4725
I1
sS'subsequently'
p4726
I4
sS'looking'
p4727
I17
sS'honeymoons'
p4728
I1
sS'shreds'
p4729
I1
sS'bunch'
p4730
I1
sS'accredited'
p4731
I1
sS'winning'
p4732
I2
sS'resorting'
p4733
I1
sS'willing'
p4734
I5
sS'ofacademics'
p4735
I1
sS'criminal'
p4736
I4
sS'machinations'
p4737
I1
sS'greater'
p4738
I10
sS'spell'
p4739
I1
sS'denigrate'
p4740
I1
sS'mention'
p4741
I7
sS'cutting'
p4742
I2
sS'mandate'
p4743
I3
sS'strive'
p4744
I1
sS'stunts'
p4745
I2
sS'february'
p4746
I4
sS'biliousnbspbitch'
p4747
I1
sS'ideologically'
p4748
I1
sS'0419547'
p4749
I1
sS'identified'
p4750
I1
sS'morris'
p4751
I2
sS'disregard'
p4752
I2
sS'identifier'
p4753
I1
sS'inflict'
p4754
I1
sS'christianorientated'
p4755
I1
sS'accumulated'
p4756
I1
sS'programmes'
p4757
I1
sS'defend'
p4758
I9
sS'nbsp2nbsp'
p4759
I1
sS'socalled'
p4760
I3
sS'fondly'
p4761
I1
sS'announced'
p4762
I5
sS'approached'
p4763
I2
sS'frank'
p4764
I1
sS'bleed'
p4765
I1
sS'backwards'
p4766
I2
sS'allies'
p4767
I2
sS'wagged'
p4768
I1
sS'explanations'
p4769
I1
sS"clerk's"
p4770
I1
sS'qualification'
p4771
I1
sS'mortal'
p4772
I2
sS'barriers'
p4773
I2
sS'retain'
p4774
I2
sS'south'
p4775
I4
sS'strippers'
p4776
I3
sS'finest'
p4777
I1
sS'strategic'
p4778
I4
sS'embarrassed'
p4779
I1
sS'franks'
p4780
I2
sS'facie'
p4781
I2
sS'reached'
p4782
I1
sS'reliable'
p4783
I1
sS'owning'
p4784
I3
sS'prudes'
p4785
I1
sS'sadly'
p4786
I3
sS'remote8221'
p4787
I1
sS'idiotsavant'
p4788
I1
sS'hilary'
p4789
I1
sS'establishments'
p4790
I2
sS'intermediate'
p4791
I2
sS'ferocity'
p4792
I1
sS'wistfully'
p4793
I1
sS'worshippers'
p4794
I1
sS"journalists'"
p4795
I1
sS'completed'
p4796
I1
sS'nobody'
p4797
I4
sS'environmental'
p4798
I7
sS"future's"
p4799
I4
sS'loved'
p4800
I1
sS'parata'
p4801
I1
sS'compensation'
p4802
I1
sS'visited'
p4803
I2
sS'abolished'
p4804
I3
sS'pretends'
p4805
I1
sS'imaginative'
p4806
I1
sS'erosions'
p4807
I1
sS'power8221'
p4808
I1
sS'fetishisation'
p4809
I1
sS'hager'
p4810
I2
sS'unlikely'
p4811
I3
sS'throat'
p4812
I1
sS'apparently'
p4813
I4
sS'gravity'
p4814
I1
sS'linton'
p4815
I1
sS'concerns'
p4816
I4
sS'unless'
p4817
I3
sS'crawling'
p4818
I1
sS'procure'
p4819
I1
sS'eight'
p4820
I8
sS'preliminary'
p4821
I1
sS'prisoner'
p4822
I1
sS'payment'
p4823
I3
sS"consumers'"
p4824
I2
sS'gather'
p4825
I1
sS'request'
p4826
I3
sS'disease'
p4827
I1
sS'capita'
p4828
I1
sS'absurd'
p4829
I1
sS'occasion'
p4830
I1
sS'quotwill'
p4831
I1
sS'normally'
p4832
I4
sS'recess'
p4833
I1
sS'supported'
p4834
I5
sS'isn8217t'
p4835
I3
sS'portfolio'
p4836
I2
sS'supporter'
p4837
I1
sS'staff'
p4838
I3
sS'communism'
p4839
I3
sS'knowledge'
p4840
I12
sS'controls'
p4841
I2
sS'bernard'
p4842
I2
sS'assosciations'
p4843
I1
sS'ambiguity'
p4844
I2
sS'regularly'
p4845
I1
sS'hijacking'
p4846
I1
sS'exceptional'
p4847
I1
sS'perfection'
p4848
I1
sS'areas'
p4849
I5
sS'organ'
p4850
I1
sS'intersting'
p4851
I1
sS'fixes'
p4852
I1
sS'calling'
p4853
I6
sS'pitting'
p4854
I1
sS'excesses'
p4855
I1
sS'fixed'
p4856
I4
sS'fallibility'
p4857
I1
sS'madam'
p4858
I1
sS'untrue'
p4859
I3
sS'woolerton'
p4860
I2
sS'turkeys'
p4861
I1
sS'national'
p4862
I193
sS'xxxxx'
p4863
I1
sS'exploited'
p4864
I1
sS"'whoops"
p4865
I1
sS'reform'
p4866
I16
sS'pattern'
p4867
I1
sS'ralph'
p4868
I1
sS'quotwhere'
p4869
I1
sS'phased'
p4870
I1
sS'routine'
p4871
I3
sS'progress'
p4872
I8
sS'globalisation'
p4873
I2
sS'selfregulatory'
p4874
I1
sS'junkies'
p4875
I3
sS'monarchy'
p4876
I2
sS'deliver'
p4877
I4
sS'empathy'
p4878
I3
sS'instant'
p4879
I2
sS'freely'
p4880
I1
sS'taking'
p4881
I12
sS'equal'
p4882
I6
sS'attributed'
p4883
I1
sS'agree'
p4884
I13
sS'assure'
p4885
I1
sS'gutsful'
p4886
I1
sS'otherwise'
p4887
I10
sS'comment'
p4888
I17
sS'relevant'
p4889
I4
sS'fostering'
p4890
I1
sS'laugh'
p4891
I1
sS'basing'
p4892
I1
sS'earning'
p4893
I1
sS'watkins'
p4894
I2
sS'tremendous'
p4895
I2
sS'darren'
p4896
I2
sS'seasoned'
p4897
I1
sS"home'"
p4898
I1
sS'indicators'
p4899
I2
sS'andgrovelling'
p4900
I1
sS'proposal'
p4901
I5
sS'curtail'
p4902
I1
sS'arises'
p4903
I1
sS'zealander'
p4904
I2
sS'climate'
p4905
I5
sS'ridden'
p4906
I1
sS'finished'
p4907
I3
sS'backtracks'
p4908
I1
sS'8220mr'
p4909
I2
sS'volunteer'
p4910
I1
sS"hide's"
p4911
I1
sS'homes'
p4912
I9
sS'plain'
p4913
I2
sS'appearance'
p4914
I1
sS'value'
p4915
I7
sS'promotes'
p4916
I1
sS'promoted'
p4917
I4
sS'almost'
p4918
I23
sS'dissent'
p4919
I1
sS'squib'
p4920
I1
sS'helped'
p4921
I7
sS'arrangements'
p4922
I1
sS'claimed'
p4923
I6
sS'partner'
p4924
I1
sS'productivity'
p4925
I1
sS'players'
p4926
I4
sS'wearing'
p4927
I5
sS'administration'
p4928
I3
sS'indistinguishable'
p4929
I1
sS'tighten'
p4930
I3
sS'practice'
p4931
I5
sS'everincreasing'
p4932
I1
sS'127000'
p4933
I1
sS'reporting'
p4934
I3
sS'bullying'
p4935
I2
sS'woodham'
p4936
I1
sS'discredited'
p4937
I1
sS'judgment'
p4938
I1
sS'commenters'
p4939
I1
sS'numbered'
p4940
I2
sS'recourse'
p4941
I1
sS'center'
p4942
I1
sS'nevertheless'
p4943
I1
sS'weapon'
p4944
I1
sS'thought'
p4945
I27
sS'exceedingly'
p4946
I2
sS'comparisons'
p4947
I1
sS'raving'
p4948
I1
sS'soviet'
p4949
I2
sS'usual'
p4950
I5
sS'parliamentsupporters'
p4951
I1
sS'executive'
p4952
I4
sS'domestic'
p4953
I7
sS'interim'
p4954
I4
sS'seats'
p4955
I21
sS'protecting'
p4956
I1
sS'demographic'
p4957
I2
sS'recommending'
p4958
I1
sS'bench'
p4959
I2
sS'citizen'
p4960
I3
sS'smart'
p4961
I4
sS'resolved'
p4962
I1
sS'worlds'
p4963
I2
sS'insert'
p4964
I1
sS'success'
p4965
I10
sS'journalism'
p4966
I7
sS'admitted'
p4967
I6
sS"first's"
p4968
I1
sS'dickheads'
p4969
I1
sS'journalist'
p4970
I3
sS'chick'
p4971
I1
sS'works'
p4972
I10
sS'awash'
p4973
I1
sS'oftentimes'
p4974
I1
sS'holier'
p4975
I1
sS'alive'
p4976
I2
sS'ideals'
p4977
I1
sS'constructively'
p4978
I1
sS'convey'
p4979
I1
sS'stuffs'
p4980
I1
sS'helensville'
p4981
I3
sS'happens'
p4982
I9
sS'ohsosick'
p4983
I1
sS"alliance's"
p4984
I1
sS"legislation's"
p4985
I1
sS'assuming'
p4986
I4
sS'chains'
p4987
I1
sS'regain'
p4988
I1
sS'islander'
p4989
I1
sS'slight'
p4990
I1
sS'although'
p4991
I11
sS'worthy'
p4992
I1
sS'snapped'
p4993
I1
sS'vuitton'
p4994
I1
sS'bills'
p4995
I7
sS'actual'
p4996
I2
sS'withdrew'
p4997
I1
sS'introduces'
p4998
I1
sS'waifs'
p4999
I1
sS'evoke'
p5000
I1
sS'introduced'
p5001
I5
sS'8220reveal'
p5002
I1
sS'childrens'
p5003
I1
sS'billions'
p5004
I1
sS'chronic'
p5005
I3
sS'guard'
p5006
I2
sS'doesnt'
p5007
I6
sS'female'
p5008
I3
sS'prudent'
p5009
I1
sS'rushed'
p5010
I1
sS'awarded'
p5011
I1
sS'biggest'
p5012
I6
sS'touted'
p5013
I1
sS'chatting'
p5014
I1
sS'brand'
p5015
I2
sS'repeated'
p5016
I5
sS'editing'
p5017
I1
sS'mmpeffective'
p5018
I1
sS'partially'
p5019
I1
sS'hymns'
p5020
I1
sS'dangerous'
p5021
I5
sS'backfired'
p5022
I2
sS'minutes'
p5023
I6
sS'replying'
p5024
I1
sS'doomsayers'
p5025
I2
sS'measure'
p5026
I6
sS'scumbags'
p5027
I2
sS'crusade'
p5028
I1
sS'cherrypicking'
p5029
I1
sS'setnbsp'
p5030
I1
sS'commentators'
p5031
I2
sS'partynbsp'
p5032
I2
sS'campus'
p5033
I15
sS'corporation'
p5034
I3
sS'claiming'
p5035
I4
sS'detail'
p5036
I1
sS'citizen8217s'
p5037
I1
sS'weaponry'
p5038
I1
sS'cheque'
p5039
I2
sS'trackback'
p5040
I6
sS'christians'
p5041
I1
sS'attacker'
p5042
I1
sS'entreat'
p5043
I2
sS'parole'
p5044
I2
sS'activism'
p5045
I4
sS'decidied'
p5046
I1
sS'limited'
p5047
I5
sS'searchable'
p5048
I1
sS'facilities'
p5049
I1
sS'excusesquot'
p5050
I1
sS'poorly'
p5051
I2
sS'replacements'
p5052
I1
sS'paris'
p5053
I1
sS'bureaucrats'
p5054
I1
sS'charles'
p5055
I2
sS'whatsoever'
p5056
I1
sS'under'
p5057
I41
sS'reforms'
p5058
I2
sS'every'
p5059
I24
sS'frailty'
p5060
I1
sS'vastly'
p5061
I1
sS'school'
p5062
I18
sS'suffices'
p5063
I1
sS'venue'
p5064
I1
sS'aphrodisiacs'
p5065
I1
sS'parted'
p5066
I1
sS'leaders'
p5067
I7
sS'disciplines'
p5068
I1
sS'capitalisation'
p5069
I1
sS'consistent'
p5070
I2
sS'guidelines'
p5071
I1
sS'estimates'
p5072
I1
sS'direct'
p5073
I7
sS'surrounding'
p5074
I3
sS'persuade'
p5075
I1
sS'emptiness'
p5076
I1
sS'minto'
p5077
I1
sS'8216bomb8217'
p5078
I1
sS'selected'
p5079
I3
sS'revolves'
p5080
I1
sS'fieldhave'
p5081
I1
sS'conduct'
p5082
I3
sS'socialised'
p5083
I1
sS'abrupt'
p5084
I1
sS'equalling'
p5085
I1
sS'seeks'
p5086
I2
sS'teachers'
p5087
I6
sS'kicked'
p5088
I3
sS'yanks'
p5089
I1
sS'ulterior'
p5090
I1
sS'hundreds'
p5091
I4
sS'humility'
p5092
I1
sS'represented'
p5093
I4
sS'rampd'
p5094
I1
sS'licenced'
p5095
I1
sS'voice'
p5096
I2
sS'forum'
p5097
I1
sS'trainess'
p5098
I1
sS'leaves'
p5099
I5
sS'changed'
p5100
I8
sS'fulltime'
p5101
I4
sS'abolition'
p5102
I1
sS'mistake'
p5103
I5
sS'settled'
p5104
I1
sS'punishment'
p5105
I1
sS'mutual'
p5106
I2
sS'kieran'
p5107
I1
sS'patience'
p5108
I1
sS'forums'
p5109
I1
sS'anyhow'
p5110
I1
sS'meaty'
p5111
I1
sS'luxery'
p5112
I1
sS'would'
p5113
I160
sS'hospital'
p5114
I3
sS'turia'
p5115
I1
sS'noting'
p5116
I2
sS'asset'
p5117
I1
sS'raids'
p5118
I1
sS'breathe'
p5119
I1
sS'naive'
p5120
I1
sS'phony'
p5121
I1
sS'phone'
p5122
I4
sS'excellent'
p5123
I2
sS'outdated'
p5124
I1
sS'antikey'
p5125
I1
sS'tremendously'
p5126
I1
sS'cancellations'
p5127
I4
sS'advocacy'
p5128
I3
sS'install'
p5129
I2
sS'appendage'
p5130
I1
sS'appraisal'
p5131
I1
sS'culpability'
p5132
I2
sS'dolphin'
p5133
I1
sS'reach'
p5134
I2
sS'mayhem'
p5135
I1
sS'appointment'
p5136
I1
sS'attract'
p5137
I4
sS'looser'
p5138
I1
sS'guarantee'
p5139
I7
sS'ceremony'
p5140
I1
sS'enquiry'
p5141
I1
sS'finalist'
p5142
I1
sS'hassling'
p5143
I1
sS'accusations'
p5144
I3
sS'widespread'
p5145
I4
sS'charging'
p5146
I2
sS'badly'
p5147
I6
sS'description'
p5148
I1
sS'mouths'
p5149
I1
sS'claptrap'
p5150
I1
sS'insecure'
p5151
I1
sS"criminals'"
p5152
I1
sS'parallel'
p5153
I4
sS'appropriateness'
p5154
I1
sS'spout'
p5155
I1
sS'acknowledged'
p5156
I1
sS"antismacking'"
p5157
I1
sS'mucking'
p5158
I1
sS'jungle'
p5159
I1
sS'polytech'
p5160
I2
sS'enter'
p5161
I5
sS'reforming'
p5162
I2
sS'clusterfucked'
p5163
I1
sS'executed'
p5164
I1
sS'interpretation'
p5165
I8
sS'expects'
p5166
I2
sS'mallard'
p5167
I24
sS'historys'
p5168
I1
sS'london'
p5169
I2
sS'thesis'
p5170
I1
sS'fealty'
p5171
I1
sS'hypocrisy'
p5172
I5
sS'writing'
p5173
I6
sS'destroyed'
p5174
I4
sS'compelling'
p5175
I1
sS'whips'
p5176
I1
sS'prevented'
p5177
I3
sS'powerful'
p5178
I1
sS"'liberal"
p5179
I2
sS'incorrectly'
p5180
I1
sS'roost'
p5181
I1
sS'revelations'
p5182
I4
sS'obligingly'
p5183
I1
sS'notified'
p5184
I1
sS'8220solving8221'
p5185
I1
sS'chuck'
p5186
I1
sS'herald'
p5187
I28
sS'victory'
p5188
I1
sS'prohibit'
p5189
I1
sS'diane'
p5190
I2
sS'visionland'
p5191
I2
sS'convienent'
p5192
I2
sS'saturday'
p5193
I2
sS'islanders'
p5194
I1
sS'driving'
p5195
I9
sS'banning'
p5196
I1
sS'heldnbspseat'
p5197
I1
sS'newly'
p5198
I1
sS'stringer'
p5199
I1
sS'perception'
p5200
I1
sS'associate'
p5201
I2
sS'counterparts'
p5202
I1
sS'speechwriting'
p5203
I1
sS'reinstatement'
p5204
I1
sS'alarmingly'
p5205
I1
sS'selwyn'
p5206
I5
sS'longterm'
p5207
I1
sS'priorities'
p5208
I2
sS'corrections'
p5209
I1
sS'appeals'
p5210
I1
sS'researcher'
p5211
I1
sS'coding'
p5212
I1
sS'encouraging'
p5213
I1
sS'hearing'
p5214
I4
sS'restrict'
p5215
I6
sS"trotter's"
p5216
I1
sS'adopted'
p5217
I2
sS'insulation'
p5218
I1
sS'lulled'
p5219
I1
sS'pre2000'
p5220
I1
sS'percentage'
p5221
I4
sS'spendingnbsp'
p5222
I1
sS'ceiling'
p5223
I1
sS'murder'
p5224
I1
sS'reframing'
p5225
I1
sS'serve'
p5226
I7
sS'western'
p5227
I3
sS'unsaid'
p5228
I1
sS'threeish'
p5229
I1
sS'frankly'
p5230
I2
sS'immigrants'
p5231
I1
sS'classes'
p5232
I1
sS'noncommital'
p5233
I1
sS"company's"
p5234
I3
sS'beard'
p5235
I1
sS'fabrications'
p5236
I1
sS'displays'
p5237
I3
sS'bridge'
p5238
I2
sS'fashion'
p5239
I1
sS'talking'
p5240
I16
sS'pakatja'
p5241
I1
sS'relatively'
p5242
I3
sS'traditionally'
p5243
I1
sS'thoroughly'
p5244
I1
sS'contact'
p5245
I1
sS'laughed'
p5246
I1
sS'effectiveness'
p5247
I3
sS'though'
p5248
I16
sS'i8217m'
p5249
I1
sS'milkman'
p5250
I1
sS'audition'
p5251
I1
sS'plenty'
p5252
I3
sS'whinge'
p5253
I1
sS'treats'
p5254
I2
sS'behaviour'
p5255
I12
sS'treaty'
p5256
I1
sS'reputation'
p5257
I2
sS"related'"
p5258
I1
sS'enterprise'
p5259
I1
sS'entertaining'
p5260
I1
sS'peoplebut'
p5261
I1
sS'sanctuary'
p5262
I1
sS'quotmatthew'
p5263
I1
sS'contacted'
p5264
I1
sS'reductions'
p5265
I3
sS'labels'
p5266
I1
sS'radio'
p5267
I9
sS'solutions'
p5268
I3
sS'earth'
p5269
I5
sS"'with"
p5270
I1
sS'spite'
p5271
I4
sS'situations'
p5272
I1
sS'sycophantic'
p5273
I1
sS'disgust'
p5274
I1
sS'lodge'
p5275
I1
sS'announce'
p5276
I3
sS'asians'
p5277
I2
sS'watch'
p5278
I2
sS'despite'
p5279
I12
sS'report'
p5280
I21
sS'damilies'
p5281
I1
sS'countries'
p5282
I12
sS'spokesperson'
p5283
I2
sS'thenbspday'
p5284
I1
sS'twice'
p5285
I5
sS'movement'
p5286
I3
sS'mcleay'
p5287
I1
sS'habit'
p5288
I2
sS'1960s'
p5289
I2
sS'resist'
p5290
I1
sS'corrupt'
p5291
I2
sS'disturbing'
p5292
I1
sS'propoor'
p5293
I1
sS'quotnow'
p5294
I1
sS'jobprotection'
p5295
I1
sS'capacity'
p5296
I7
sS'grandmother'
p5297
I1
sS'overnbsplabour'
p5298
I1
sS'finger'
p5299
I1
sS'hopefully'
p5300
I1
sS'approach'
p5301
I11
sS'sarawak'
p5302
I1
sS'however'
p5303
I35
sS'censorship'
p5304
I2
sS'improve'
p5305
I10
sS'faced'
p5306
I1
sS'httpinsolentprickblogspotcomatomxml'
p5307
I3
sS'protect'
p5308
I11
sS'unicef'
p5309
I1
sS'bloggers'
p5310
I2
sS'fault'
p5311
I1
sS'extracts'
p5312
I2
sS'participating'
p5313
I2
sS'divorcing'
p5314
I1
sS'games'
p5315
I2
sS'mildly'
p5316
I1
sS'faces'
p5317
I2
sS'hypocrites'
p5318
I1
sS'unheeded'
p5319
I1
sS'expense'
p5320
I9
sS"greens'"
p5321
I1
sS'142act'
p5322
I1
sS'viruses'
p5323
I1
sS'trust'
p5324
I13
sS'buzzing'
p5325
I1
sS'bureaucratic'
p5326
I4
sS'hysterically'
p5327
I1
sS'conference'
p5328
I11
sS'quickly'
p5329
I1
sS'confident'
p5330
I1
sS'spread'
p5331
I1
sS'sucessfully'
p5332
I1
sS'decolonisation'
p5333
I1
sS'expected'
p5334
I11
sS'pursing'
p5335
I1
sS'fleeting'
p5336
I1
sS'drugs'
p5337
I4
sS'search'
p5338
I2
sS'uncommon'
p5339
I1
sS'enterprises'
p5340
I1
sS'craft'
p5341
I1
sS'catch'
p5342
I2
sS'censors'
p5343
I1
sS'cracker'
p5344
I2
sS'tolerable'
p5345
I1
sS'pinged'
p5346
I1
sS'stopping'
p5347
I1
sS'procedure'
p5348
I1
sS"hunt's"
p5349
I2
sS'expenses'
p5350
I2
sS'experts'
p5351
I2
sS'experience'
p5352
I9
sS'appalling'
p5353
I1
sS'36000'
p5354
I1
sS'suggest'
p5355
I8
sS"journalist's"
p5356
I1
sS'complex'
p5357
I3
sS'usurping'
p5358
I1
sS'several'
p5359
I10
sS'leftist'
p5360
I2
sS'tutting'
p5361
I1
sS'characters'
p5362
I1
sS'insisted'
p5363
I3
sS'cycle'
p5364
I2
sS'mentioning'
p5365
I1
sS'shortly'
p5366
I2
sS'groundswell'
p5367
I1
sS'savings'
p5368
I4
sS'mother'
p5369
I2
sS'bugger'
p5370
I2
sS'proposed'
p5371
I4
sS'unemployment'
p5372
I35
sS'enjoy'
p5373
I3
sS'proposes'
p5374
I1
sS'battles'
p5375
I1
sS'campbell'
p5376
I1
sS'enlighten'
p5377
I1
sS'zealand8217s'
p5378
I1
sS'don8217t'
p5379
I10
sS'rarked'
p5380
I1
sS'jaunt'
p5381
I1
sS'teenager'
p5382
I1
sS'78000'
p5383
I1
sS'humanity'
p5384
I4
sS'factsnbsp'
p5385
I1
sS'casting'
p5386
I1
sS'advances'
p5387
I1
sS'breaks'
p5388
I2
sS'cultural'
p5389
I1
sS'judge'
p5390
I6
sS"hubbard's"
p5391
I1
sS'advanced'
p5392
I2
sS'apart'
p5393
I2
sS'appearing'
p5394
I2
sS'peeved'
p5395
I1
sS'contradict'
p5396
I1
sS'gifted'
p5397
I1
sS'offices'
p5398
I2
sS'officer'
p5399
I2
sS'arbitrary'
p5400
I2
sS'finny'
p5401
I1
sS'successfully'
p5402
I3
sS'malaysia'
p5403
I1
sS'sedition'
p5404
I2
sS'election'
p5405
I114
sS'electionquot'
p5406
I1
sS'escape'
p5407
I1
sS'indirect'
p5408
I1
sS'extinction'
p5409
I1
sS'establish'
p5410
I3
sS'everything'
p5411
I8
sS'christmas'
p5412
I2
sS'engaged'
p5413
I4
sS'permitted'
p5414
I1
sS'interjected'
p5415
I1
sS'seniorgold'
p5416
I1
sS'parenting'
p5417
I2
sS'attacks'
p5418
I18
sS'surround'
p5419
I1
sS'misleading'
p5420
I14
sS'ensure'
p5421
I12
sS'efforts'
p5422
I4
sS'froze'
p5423
I1
sS'civic'
p5424
I2
sS'civil'
p5425
I7
sS'comalco'
p5426
I1
sS'heffernan'
p5427
I1
sS'32nbsp'
p5428
I1
sS'obscene'
p5429
I1
sS'accommodate'
p5430
I2
sS'donated'
p5431
I1
sS'national57labour18'
p5432
I1
sS'electorate'
p5433
I15
sS'rounds'
p5434
I1
sS'infidelity'
p5435
I1
sS'responsiblity'
p5436
I1
sS'transform'
p5437
I1
sS'virgin'
p5438
I3
sS'fought'
p5439
I2
sS'fairness'
p5440
I1
sS'nbspnbsp'
p5441
I138
sS'questionable'
p5442
I1
sS'petitioning'
p5443
I1
sS'greensthatschools'
p5444
I1
sS'differences'
p5445
I3
sS'purchasing'
p5446
I2
sS'calculatingly'
p5447
I1
sS'removed'
p5448
I3
sS'postmodernist'
p5449
I1
sS'portions'
p5450
I1
sS'muster'
p5451
I1
sS'clubs'
p5452
I3
sS'achieving'
p5453
I5
sS'fundament'
p5454
I1
sS'prematurely'
p5455
I1
sS'bannerthatfailedtoevenunravel'
p5456
I1
sS'sometime'
p5457
I1
sS'believable'
p5458
I1
sS'annoying'
p5459
I1
sS'check'
p5460
I7
sS'regime'
p5461
I2
sS'blatantly'
p5462
I2
sS'radically'
p5463
I2
sS'whereas'
p5464
I4
sS'setting'
p5465
I3
sS'papers'
p5466
I3
sS'erosion'
p5467
I1
sS'picture'
p5468
I2
sS'today8217s'
p5469
I2
sS'football'
p5470
I1
sS'whammed'
p5471
I1
sS'younger'
p5472
I1
sS'faster'
p5473
I1
sS'australians'
p5474
I2
sS'seascape'
p5475
I1
sS'vigorously'
p5476
I2
sS"elizabeth's"
p5477
I1
sS'voluntarism'
p5478
I2
sS'remarked'
p5479
I1
sS'serious'
p5480
I11
sS'141000'
p5481
I3
sS'undoubted'
p5482
I1
sS'unprincipled'
p5483
I1
sS'remarkable'
p5484
I2
sS'impression'
p5485
I7
sS'unregulated'
p5486
I1
sS'leads'
p5487
I4
sS"'choices'"
p5488
I1
sS'qualms'
p5489
I1
sS'marion'
p5490
I1
sS'gobsmacked'
p5491
I1
sS'protest'
p5492
I9
sS'clarification'
p5493
I1
sS'passage'
p5494
I2
sS'environment'
p5495
I11
sS'charge'
p5496
I10
sS'sceptical'
p5497
I2
sS'discovering'
p5498
I1
sS'henderson'
p5499
I1
sS'broadly'
p5500
I2
sS'sloppy'
p5501
I2
sS'14210'
p5502
I1
sS'holcim'
p5503
I1
sS'rightthe'
p5504
I1
sS'impressive'
p5505
I1
sS'level'
p5506
I12
sS'posts'
p5507
I5
sS'brookhammers'
p5508
I2
sS'standards'
p5509
I14
sS'quick'
p5510
I3
sS'tougher'
p5511
I1
sS'trend'
p5512
I1
sS'widened'
p5513
I1
sS'colin'
p5514
I13
sS'journalistic'
p5515
I1
sS'zerocarbon'
p5516
I1
sS'drinks'
p5517
I1
sS'disadvantaged'
p5518
I3
sS'stressful'
p5519
I1
sS'stands'
p5520
I4
sS'contracted'
p5521
I1
sS'pleased'
p5522
I1
sS'reply'
p5523
I3
sS'jilted'
p5524
I2
sS'pukatja'
p5525
I2
sS'water'
p5526
I7
sS'entertain'
p5527
I1
sS'witch'
p5528
I1
sS'groups'
p5529
I24
sS'healthy'
p5530
I2
sS'pearls'
p5531
I1
sS'overrides'
p5532
I1
sS'guilty'
p5533
I7
sS'proud'
p5534
I2
sS'denunciation'
p5535
I1
sS'descended'
p5536
I2
sS'christchurch'
p5537
I3
sS'weird'
p5538
I1
sS'paintergate'
p5539
I1
sS'decisionquot'
p5540
I1
sS'humour'
p5541
I1
sS'damnedest'
p5542
I1
sS'bribery'
p5543
I6
sS'crisis'
p5544
I1
sS'ironically'
p5545
I1
sS'russell'
p5546
I7
sS'yearolds'
p5547
I1
sS'sports'
p5548
I2
sS'upheld'
p5549
I1
sS'memory'
p5550
I2
sS'australian'
p5551
I5
sS'today'
p5552
I37
sS'chapter'
p5553
I2
sS'sessions'
p5554
I1
sS'clicking'
p5555
I1
sS'suggestions'
p5556
I2
sS'inherited'
p5557
I2
sS'nz906'
p5558
I1
sS'kerre'
p5559
I2
sS"bradford's"
p5560
I2
sS'cases'
p5561
I7
sS'uturn'
p5562
I2
sS'contradicts'
p5563
I1
sS'local'
p5564
I16
sS'ferry'
p5565
I1
sS'unconditional'
p5566
I3
sS'streak'
p5567
I1
sS'nursing'
p5568
I1
sS'figure'
p5569
I5
sS'newsletters'
p5570
I1
sS'critic'
p5571
I1
sS'dropped'
p5572
I4
sS'counting'
p5573
I1
sS'parliamentary'
p5574
I38
sS'requirements'
p5575
I1
sS'sidney'
p5576
I1
sS'vital'
p5577
I2
sS'naivety'
p5578
I1
sS'fourth'
p5579
I4
sS'endorsement'
p5580
I3
sS'speaks'
p5581
I2
sS'etched'
p5582
I1
sS'unbelievable'
p5583
I1
sS'cocktail'
p5584
I2
sS'broad'
p5585
I6
sS'islamic'
p5586
I2
sS'birthday'
p5587
I1
sS'tipped'
p5588
I2
sS'apprenticeship'
p5589
I4
sS'eighth'
p5590
I1
sS'repeat'
p5591
I2
sS'tories'
p5592
I1
sS'succeeded'
p5593
I3
sS'bensonpopes'
p5594
I1
sS'inform'
p5595
I2
sS'representation'
p5596
I4
sS'exclusive'
p5597
I5
sS'scammers'
p5598
I8
sS'constituents'
p5599
I5
sS'mainly'
p5600
I2
sS'muckrakers'
p5601
I1
sS'motions'
p5602
I1
sS'abusers'
p5603
I1
sS'organisation'
p5604
I6
sS'cheerleaders'
p5605
I1
sS'chalice'
p5606
I1
sS'offers'
p5607
I1
sS'loophole'
p5608
I4
sS'happened'
p5609
I8
sS'lonely'
p5610
I1
sS'qualifies'
p5611
I1
sS'statesponsored'
p5612
I1
sS'delighted'
p5613
I1
sS'sabah'
p5614
I1
sS'qualified'
p5615
I2
sS'hamilton'
p5616
I2
sS'feature'
p5617
I3
sS'onesquared'
p5618
I1
sS'rescind'
p5619
I1
sS'equality'
p5620
I3
sS'belts'
p5621
I2
sS'debating'
p5622
I3
sS'realistic'
p5623
I1
sS'realise'
p5624
I3
sS'cornerstones'
p5625
I1
sS'menagerie'
p5626
I1
sS'kelburn'
p5627
I2
sS'inopportune'
p5628
I1
sS'begun'
p5629
I1
sS'obsession'
p5630
I3
sS'intended'
p5631
I6
sS'ultimately'
p5632
I1
sS'decreasingly'
p5633
I1
sS'factors'
p5634
I8
sS'profit'
p5635
I2
sS"dyson's"
p5636
I1
sS'factory'
p5637
I3
sS'vagarity'
p5638
I1
sS"shouldn't"
p5639
I4
sS'eagle'
p5640
I1
sS'attended'
p5641
I2
sS'theory'
p5642
I1
sS'ascertain'
p5643
I1
sS'blased'
p5644
I1
sS'eyelinered'
p5645
I1
sS'quotevery'
p5646
I1
sS'progressivelynot'
p5647
I1
sS'accommodation'
p5648
I1
sS'impose'
p5649
I1
sS'motion'
p5650
I1
sS'relegalised'
p5651
I1
sS'februarynbsp'
p5652
I1
sS'place'
p5653
I14
sS'swing'
p5654
I1
sS'discontinued'
p5655
I1
sS'spotted'
p5656
I2
sS'surviving'
p5657
I1
sS'revenue'
p5658
I1
sS'21nbsp'
p5659
I1
sS'clumped'
p5660
I1
sS'symbolic'
p5661
I1
sS'george'
p5662
I2
sS'millions'
p5663
I7
sS'disinterested'
p5664
I1
sS'given'
p5665
I31
sS'necessarily'
p5666
I1
sS'district'
p5667
I1
sS'stuck'
p5668
I2
sS'arsehole'
p5669
I1
sS"'account"
p5670
I1
sS'returns'
p5671
I2
sS'convention'
p5672
I1
sS'legally'
p5673
I2
sS'moneygoround'
p5674
I2
sS'circa'
p5675
I1
sS'gives'
p5676
I10
sS'exploring'
p5677
I2
sS'shrouded'
p5678
I1
sS'released'
p5679
I10
sS'hillcone'
p5680
I1
sS'population'
p5681
I8
sS'nathan'
p5682
I1
sS'unfortunately'
p5683
I3
sS'require'
p5684
I4
sS'hootonquot'
p5685
I1
sS'accused'
p5686
I6
sS'cards'
p5687
I3
sS'outcome'
p5688
I5
sS'parnell'
p5689
I3
sS'prostitution'
p5690
I1
sS'mates'
p5691
I4
sS'illintentions'
p5692
I1
sS'prosperity'
p5693
I1
sS'ideas'
p5694
I9
sS'ideal'
p5695
I2
sS"'low'"
p5696
I1
sS'blunt'
p5697
I2
sS'multiple'
p5698
I2
sS'selfinterested'
p5699
I1
sS"mercury's"
p5700
I1
sS'donation'
p5701
I1
sS'multiply'
p5702
I1
sS'minimilisation'
p5703
I1
sS'considered'
p5704
I12
sS'adopt'
p5705
I1
sS'hungry'
p5706
I2
sS'cadetships'
p5707
I1
sS'arguably'
p5708
I3
sS'senior'
p5709
I6
sS'quantity'
p5710
I1
sS'bawling'
p5711
I1
sS'vetted'
p5712
I1
sS'allegations'
p5713
I4
sS'supporters'
p5714
I6
sS'state'
p5715
I94
sS'crime'
p5716
I7
sS'fickle'
p5717
I1
sS'explicitly'
p5718
I2
sS'believing'
p5719
I1
sS'halfpage'
p5720
I1
sS'dreaded'
p5721
I1
sS'commies'
p5722
I2
sS'zealanders'
p5723
I32
sS'they8217ve'
p5724
I1
sS'begging'
p5725
I1
sS'changednbsp'
p5726
I1
sS'tailor'
p5727
I1
sS'lighter'
p5728
I1
sS'competant'
p5729
I1
sS'closure'
p5730
I2
sS'reveal'
p5731
I1
sS'regarding'
p5732
I5
sS'naked'
p5733
I2
sS'unlicensed'
p5734
I1
sS'reveals'
p5735
I2
sS'encourages'
p5736
I3
sS'signs'
p5737
I1
sS'comparable'
p5738
I4
sS'dickhead'
p5739
I1
sS'college'
p5740
I1
sS'ignores'
p5741
I1
sS'apologies'
p5742
I1
sS'envirofascist'
p5743
I2
sS'fails'
p5744
I2
sS'voluntary'
p5745
I6
sS'mortgage'
p5746
I2
sS'overruled'
p5747
I1
sS'federal'
p5748
I1
sS'subsequent'
p5749
I1
sS'review'
p5750
I6
sS'opening'
p5751
I2
sS'marchnbsp'
p5752
I1
sS'weapons'
p5753
I2
sS'outside'
p5754
I11
sS'arrogant'
p5755
I3
sS'caucus'
p5756
I7
sS'arrival'
p5757
I1
sS'originated'
p5758
I1
sS'fearless'
p5759
I1
sS'isthmus'
p5760
I1
sS'postage'
p5761
I1
sS'reaction'
p5762
I5
sS'missions'
p5763
I3
sS'stupidest'
p5764
I1
sS'quiet'
p5765
I1
sS'contract'
p5766
I1
sS'columnist'
p5767
I1
sS'yayword'
p5768
I1
sS'pontificates'
p5769
I1
sS'period'
p5770
I27
sS'insist'
p5771
I1
sS'resentment'
p5772
I1
sS'neverat'
p5773
I1
sS'pundits'
p5774
I1
sS'assertions'
p5775
I2
sS'approval'
p5776
I1
sS'opines'
p5777
I1
sS'confessions'
p5778
I1
sS'hardly'
p5779
I7
sS"clark's"
p5780
I6
sS'direction'
p5781
I3
sS'andrey'
p5782
I1
sS'exasperate'
p5783
I1
sS'blessing'
p5784
I1
sS'andrew'
p5785
I1
sS'minister'
p5786
I77
sS'accountible'
p5787
I1
sS'careful'
p5788
I4
sS'spirit'
p5789
I1
sS'paying'
p5790
I7
sS'shaft'
p5791
I1
sS'myself'
p5792
I6
sS'amend'
p5793
I3
sS'mount'
p5794
I2
sS'40000'
p5795
I2
sS"life'"
p5796
I2
sS'shops'
p5797
I1
sS'punches'
p5798
I1
sS'coupled'
p5799
I1
sS'telephone'
p5800
I3
sS'clutter'
p5801
I1
sS'capping'
p5802
I1
sS'ironic'
p5803
I2
sS'resentful'
p5804
I1
sS'author'
p5805
I1
sS'granted'
p5806
I3
sS'shifts'
p5807
I1
sS'actnbsp'
p5808
I1
sS'shifty'
p5809
I1
sS'events'
p5810
I6
sS'moronic'
p5811
I1
sS'status'
p5812
I3
sS'15minutesagowhenigothome'
p5813
I1
sS'leonie'
p5814
I2
sS'mockery'
p5815
I1
sS'refusal'
p5816
I3
sS'driver'
p5817
I2
sS'drives'
p5818
I1
sS'producers'
p5819
I1
sS'statutory'
p5820
I3
sS'delicate'
p5821
I1
sS'changing'
p5822
I7
sS'cartoon'
p5823
I3
sS'compulsary'
p5824
I1
sS'westpac'
p5825
I1
sS'magical'
p5826
I1
sS'without'
p5827
I27
sS'relied'
p5828
I2
sS'model'
p5829
I4
sS'justify'
p5830
I3
sS'captures'
p5831
I1
sS'guided'
p5832
I2
sS'actions'
p5833
I10
sS'risking'
p5834
I1
sS'violent'
p5835
I1
sS'cease'
p5836
I1
sS'qualificaition'
p5837
I1
sS'captured'
p5838
I2
sS'ocasion'
p5839
I1
sS'announcement'
p5840
I4
sS'webcameronorguk'
p5841
I1
sS"we've"
p5842
I1
sS"everyone's"
p5843
I1
sS'seems'
p5844
I17
sS'except'
p5845
I8
sS'complain'
p5846
I2
sS"'lawyer'"
p5847
I1
sS'tanty'
p5848
I2
sS'governor8217s'
p5849
I1
sS'inflation'
p5850
I12
sS'justice'
p5851
I1
sS'confined'
p5852
I1
sS'accepted'
p5853
I1
sS'8220parents'
p5854
I1
sS'acute'
p5855
I3
sS'towel'
p5856
I1
sS'buddies'
p5857
I3
sS'robson'
p5858
I1
sS'pawluk'
p5859
I1
sS'donations'
p5860
I34
sS'sellotaped'
p5861
I1
sS'reduced'
p5862
I6
sS'pacific'
p5863
I4
sS"'conversation'"
p5864
I1
sS'mccully8217s'
p5865
I1
sS'cowboys'
p5866
I1
sS'provided'
p5867
I8
sS'caribbean'
p5868
I1
sS'farcie'
p5869
I1
sS'provides'
p5870
I4
sS'provider'
p5871
I1
sS'compulsion'
p5872
I1
sS'heading8221nats'
p5873
I1
sS'cringing'
p5874
I1
sS'polite'
p5875
I1
sS'thenbsplast'
p5876
I1
sS'subdued'
p5877
I1
sS'discussed'
p5878
I3
sS'stand'
p5879
I16
sS"stop'"
p5880
I1
sS'communication'
p5881
I1
sS'rising'
p5882
I5
sS'determine'
p5883
I1
sS'burton'
p5884
I2
sS'abrogate'
p5885
I1
sS'lastly'
p5886
I1
sS'lawmaking'
p5887
I1
sS'equates'
p5888
I1
sS'hazards'
p5889
I1
sS'alleged'
p5890
I3
sS'valley'
p5891
I1
sS'potpourri'
p5892
I1
sS"account'"
p5893
I1
sS'vested'
p5894
I1
sS'muliagas'
p5895
I7
sS'eyeliner'
p5896
I1
sS'amongst'
p5897
I8
sS'cabinet'
p5898
I21
sS'promote'
p5899
I5
sS'longer'
p5900
I19
sS'subcontractors'
p5901
I1
sS'applying'
p5902
I1
sS'sleaze'
p5903
I2
sS'turbines'
p5904
I3
sS'grasp'
p5905
I3
sS'herselfbut'
p5906
I1
sS'feeley'
p5907
I2
sS'strongly'
p5908
I7
sS'toilet'
p5909
I2
sS'wwwscamwatchorgnz'
p5910
I1
sS'grumpily'
p5911
I1
sS'contributory'
p5912
I1
sS'britain'
p5913
I2
sS'tasty'
p5914
I1
sS'controlled'
p5915
I4
sS'russel'
p5916
I9
sS'bishop'
p5917
I2
sS'incorrect'
p5918
I1
sS'stumbled'
p5919
I1
sS'hasnt'
p5920
I1
sS'heather'
p5921
I8
sS'rubbed'
p5922
I1
sS'idiot'
p5923
I4
sS'deserve'
p5924
I5
sS"cullen's"
p5925
I11
sS'trash'
p5926
I1
sS'brash'
p5927
I17
sS'briefly'
p5928
I1
sS'oneself'
p5929
I2
sS'collaborative'
p5930
I1
sS'contradicted'
p5931
I1
sS'leftleaning'
p5932
I1
sS'includes'
p5933
I4
sS'election8221'
p5934
I1
sS'included'
p5935
I5
sS'spouse'
p5936
I1
sS'muldoon'
p5937
I1
sS'pledgecard'
p5938
I1
sS'calls'
p5939
I5
sS'refinanced'
p5940
I1
sS'invest'
p5941
I1
sS'websites'
p5942
I5
sS'i8217ll'
p5943
I1
sS'directors'
p5944
I3
sS'shortfall'
p5945
I1
sS'focusnbspgroups'
p5946
I1
sS'midnovember'
p5947
I1
sS'donorslarge'
p5948
I1
sS'wreath'
p5949
I1
sS'projected'
p5950
I2
sS'ladders'
p5951
I1
sS'earners'
p5952
I2
sS'follow'
p5953
I12
sS'decisions'
p5954
I3
sS'lining'
p5955
I1
sS'subsided'
p5956
I1
sS'opportunities'
p5957
I3
sS'removal'
p5958
I2
sS'diluting'
p5959
I1
sS'program'
p5960
I1
sS'dairy'
p5961
I3
sS'thiswe'
p5962
I1
sS'presentation'
p5963
I3
sS'democracyquot'
p5964
I1
sS'activities'
p5965
I12
sS'woman'
p5966
I7
sS'worse'
p5967
I8
sS'infringement'
p5968
I1
sS'focus'
p5969
I10
sS'worst'
p5970
I7
sS'awful'
p5971
I1
sS'salmonella'
p5972
I1
sS'flipflopping'
p5973
I1
sS'abandoned'
p5974
I1
sS'treating'
p5975
I1
sS'ranting'
p5976
I1
sS'stimulus'
p5977
I2
sS'legalisation'
p5978
I1
sS'conflicted'
p5979
I1
sS'programme'
p5980
I3
sS'flick'
p5981
I2
sS'employing'
p5982
I1
sS'reins'
p5983
I1
sS'battle'
p5984
I2
sS'design'
p5985
I1
sS'farrars'
p5986
I1
sS'functioning'
p5987
I2
sS'deeply'
p5988
I2
sS'anniversary'
p5989
I2
sS'version'
p5990
I1
sS'racing'
p5991
I1
sS'christian'
p5992
I6
sS'eligibility'
p5993
I4
sS'supposedly'
p5994
I3
sS'eventuate'
p5995
I1
sS'mayoral'
p5996
I5
sS'directions'
p5997
I1
sS'tragedy'
p5998
I3
sS"'well"
p5999
I1
sS'difficulty'
p6000
I1
sS'identifiable'
p6001
I1
sS'allows'
p6002
I3
sS'horrified'
p6003
I2
sS'options'
p6004
I5
sS'suddenly'
p6005
I4
sS'demands'
p6006
I2
sS'texts'
p6007
I3
sS'herring'
p6008
I2
sS'abhorrent'
p6009
I1
sS'proceed'
p6010
I2
sS'sheehan'
p6011
I4
sS'kiwiblog'
p6012
I3
sS'glossing'
p6013
I1
sS'branded'
p6014
I1
sS'markets'
p6015
I6
sS'minor'
p6016
I9
sS'knows'
p6017
I10
sS'definition'
p6018
I13
sS'stick'
p6019
I2
sS'newsgroups'
p6020
I1
sS'known'
p6021
I12
sS'unblemished'
p6022
I2
sS'debates'
p6023
I2
sS'equation'
p6024
I1
sS'debated'
p6025
I1
sS'2007the'
p6026
I1
sS'needing'
p6027
I1
sS'embarrassing'
p6028
I2
sS'division'
p6029
I2
sS'joints'
p6030
I1
sS'quothopefully'
p6031
I1
sS'protects'
p6032
I3
sS'imitation'
p6033
I1
sS'arise'
p6034
I1
sS'libertarian'
p6035
I4
sS'influenced'
p6036
I1
sS'court'
p6037
I5
sS'advantage'
p6038
I6
sS'desperation'
p6039
I2
sS'rather'
p6040
I20
sS'breaking'
p6041
I8
sS'influences'
p6042
I3
sS'explains'
p6043
I4
sS'breakins'
p6044
I1
sS'acknowledging'
p6045
I2
sS'ubiquitous'
p6046
I1
sS'firstname'
p6047
I1
sS'emulate'
p6048
I1
sS'reflect'
p6049
I5
sS"'warning"
p6050
I1
sS'pilots'
p6051
I1
sS'reestablishing'
p6052
I1
sS'susan'
p6053
I1
sS"explain'"
p6054
I1
sS'departure'
p6055
I1
sS'trevor'
p6056
I11
sS'shore'
p6057
I3
sS'extrapolation'
p6058
I1
sS'goal8230'
p6059
I1
sS'september'
p6060
I7
sS'essence'
p6061
I2
sS"zealand's"
p6062
I5
sS'mission'
p6063
I3
sS'disabled'
p6064
I1
sS'logan'
p6065
I1
sS'airing'
p6066
I1
sS'disagreed'
p6067
I1
sS'style'
p6068
I8
sS'slipped'
p6069
I2
sS'susceptible'
p6070
I1
sS'electioneering'
p6071
I12
sS'dross'
p6072
I1
sS'strange'
p6073
I3
sS'stephen'
p6074
I2
sS'might'
p6075
I34
sS'alter'
p6076
I2
sS'farrer'
p6077
I1
sS'return'
p6078
I6
sS'sucking'
p6079
I1
sS'hunter'
p6080
I1
sS'waged'
p6081
I1
sS'framework'
p6082
I1
sS'respiratory'
p6083
I2
sS'asserting'
p6084
I1
sS'communities'
p6085
I9
sS'suffice'
p6086
I1
sS'adventurous'
p6087
I1
sS'bigger'
p6088
I2
sS'debacle'
p6089
I1
sS'mihael'
p6090
I1
sS'ornbspnot'
p6091
I1
sS'weight'
p6092
I2
sS'generation'
p6093
I7
sS'organiser'
p6094
I1
sS'culminating'
p6095
I1
sS'undertake'
p6096
I2
sS'scratching'
p6097
I3
sS'organised'
p6098
I3
sS'paymentsnbsp'
p6099
I1
sS'alcohol'
p6100
I5
sS'poachers'
p6101
I2
sS'adhere'
p6102
I2
sS'health'
p6103
I26
sS'apprenticeships'
p6104
I2
sS'induced'
p6105
I1
sS'disagree'
p6106
I6
sS'friday'
p6107
I9
sS'organising'
p6108
I3
sS'thrown'
p6109
I2
sS'thread'
p6110
I1
sS'dominionpost'
p6111
I1
sS'threat'
p6112
I5
sS'divorce'
p6113
I1
sS'consequence'
p6114
I3
sS'spokespersonkatherine'
p6115
I1
sS'throws'
p6116
I1
sS'relate'
p6117
I1
sS'linking'
p6118
I1
sS'sympathy'
p6119
I6
sS'bland'
p6120
I1
sS'totalitarianism'
p6121
I2
sS'story'
p6122
I29
sS'breathless'
p6123
I1
sS'stateish'
p6124
I1
sS'postgrad'
p6125
I2
sS'script'
p6126
I1
sS'leading'
p6127
I6
sS'interact'
p6128
I1
sS'rails'
p6129
I1
sS'soldout'
p6130
I1
sS'wingman'
p6131
I1
sS'passed'
p6132
I15
sS'temptations'
p6133
I1
sS'option'
p6134
I7
sS'autobiographies'
p6135
I1
sS'vindication'
p6136
I2
sS'convinced'
p6137
I1
sS"media's"
p6138
I1
sS'albeit'
p6139
I4
sS'karol'
p6140
I1
sS'double'
p6141
I1
sS'invaded'
p6142
I1
sS'outrageous'
p6143
I1
sS'architect'
p6144
I1
sS'insulted'
p6145
I1
sS'risky'
p6146
I1
sS'motivation'
p6147
I2
sS'hodgeson'
p6148
I1
sS'outstanding'
p6149
I1
sS'upped'
p6150
I1
sS'ravings'
p6151
I1
sS'alike'
p6152
I1
sS'mikenbspwilliams'
p6153
I1
sS'semiliterate'
p6154
I1
sS'wilson'
p6155
I10
sS'nights'
p6156
I1
sS'entirety'
p6157
I3
sS'finding'
p6158
I3
sS'donor'
p6159
I1
sS'fella'
p6160
I1
sS'foreman'
p6161
I2
sS'added'
p6162
I3
sS'electric'
p6163
I1
sS'warnings'
p6164
I3
sS'reckon'
p6165
I1
sS"seats'"
p6166
I1
sS'react'
p6167
I1
sS'spome'
p6168
I1
sS'shareholder'
p6169
I4
sS'nothing'
p6170
I24
sS'achievement'
p6171
I2
sS'constitution'
p6172
I9
sS'quorum'
p6173
I1
sS'ryall'
p6174
I3
sS'coincides'
p6175
I1
sS'traditional'
p6176
I3
sS'dissolved'
p6177
I1
sS'brenmuhl'
p6178
I1
sS'realised'
p6179
I1
sS'institutions'
p6180
I3
sS'lying'
p6181
I2
sS'inflexible'
p6182
I2
sS'routinely'
p6183
I1
sS'costing'
p6184
I1
sS'clarkmrs'
p6185
I1
sS'natshave'
p6186
I1
sS'inselect'
p6187
I1
sS'quothouseholds'
p6188
I1
sS'publicity'
p6189
I6
sS'gains'
p6190
I4
sS'spurious'
p6191
I1
sS"rodney's"
p6192
I6
sS'whistle'
p6193
I1
sS'fastest'
p6194
I1
sS'critically'
p6195
I4
sS'emails'
p6196
I7
sS'grievances'
p6197
I1
sS'commensurate'
p6198
I1
sS'continuum'
p6199
I1
sS'brendan'
p6200
I1
sS'medicines'
p6201
I2
sS'investigate'
p6202
I1
sS'statist'
p6203
I2
sS'activity'
p6204
I5
sS'sustainable'
p6205
I1
sS'relentless'
p6206
I1
sS'wrote'
p6207
I6
sS'achieved'
p6208
I5
sS'intelligence'
p6209
I5
sS"yourselves'"
p6210
I1
sS'chambers'
p6211
I1
sS'declined'
p6212
I2
sS'integrityclick'
p6213
I1
sS'threats'
p6214
I4
sS'unions'
p6215
I8
sS'determined'
p6216
I1
sS'various'
p6217
I5
sS"other's"
p6218
I1
sS'corruption'
p6219
I6
sS'recently'
p6220
I9
sS'initially'
p6221
I2
sS'attention'
p6222
I12
sS'succeed'
p6223
I2
sS'opposition'
p6224
I21
sS'competent'
p6225
I2
sS'relying'
p6226
I1
sS'loathers'
p6227
I1
sS'prescription'
p6228
I2
sS'cardinalship'
p6229
I1
sS'oversee'
p6230
I1
sS'quotdr'
p6231
I2
sS'context'
p6232
I6
sS"'unemployment"
p6233
I1
sS'finds'
p6234
I2
sS'regulates'
p6235
I1
sS'clashing'
p6236
I1
sS'reasons'
p6237
I5
sS'sweet'
p6238
I1
sS'buttake'
p6239
I1
sS'harbour'
p6240
I1
sS'regulated'
p6241
I7
sS'capabilities'
p6242
I1
sS'village'
p6243
I2
sS'decline'
p6244
I3
sS'incomes'
p6245
I3
sS'political'
p6246
I118
sS'politican'
p6247
I1
sS'strategy'
p6248
I6
sS'reduction'
p6249
I5
sS'nother'
p6250
I1
sS'flight'
p6251
I1
sS'desperatelly'
p6252
I1
sS'transferring'
p6253
I1
sS'flinty'
p6254
I1
sS'demand'
p6255
I3
sS'nbspmay'
p6256
I1
sS'they8217re'
p6257
I2
sS'equivocation'
p6258
I1
sS'advocating'
p6259
I6
sS'georgie'
p6260
I1
sS'bashers'
p6261
I1
sS'snubbed'
p6262
I1
sS'tweaking'
p6263
I1
sS'probationary'
p6264
I1
sS'handbrake'
p6265
I1
sS'frantic'
p6266
I1
sS'lodged'
p6267
I2
sS'laundered'
p6268
I1
sS'lengthy'
p6269
I1
sS'antifreespeech'
p6270
I1
sS'peoples'
p6271
I4
sS'publicrelations'
p6272
I1
sS'higher'
p6273
I11
sS'literature'
p6274
I2
sS'cheques'
p6275
I1
sS'hesitiation'
p6276
I1
sS'negotiate'
p6277
I1
sS'cement'
p6278
I1
sS'patriotic'
p6279
I1
sS'arrived'
p6280
I1
sS'robust'
p6281
I1
sS'deluding'
p6282
I1
sS'lower'
p6283
I15
sS'cheek'
p6284
I1
sS'anybody'
p6285
I1
sS'analysis'
p6286
I12
sS'itshall'
p6287
I1
sS'stating'
p6288
I5
sS"boscowan's"
p6289
I1
sS'abilities'
p6290
I1
sS'endeavour'
p6291
I1
sS'reliant'
p6292
I2
sS'httpdiggcomsubmitphase2url'
p6293
I5
sS'polled'
p6294
I1
sS'questions'
p6295
I21
sS'todayin'
p6296
I1
sS'presidency'
p6297
I1
sS'workers'
p6298
I4
sS'exclusively'
p6299
I1
sS'contractor'
p6300
I2
sS'elction'
p6301
I2
sS'clark8217s'
p6302
I1
sS'propertyrights'
p6303
I1
sS'complaint'
p6304
I4
sS'amended'
p6305
I2
sS'advocate'
p6306
I2
sS'unlimited'
p6307
I2
sS"part's"
p6308
I1
sS'entangled'
p6309
I1
sS'moody'
p6310
I1
sS'pithy'
p6311
I1
sS'facist'
p6312
I1
sS'ignore'
p6313
I3
sS'uproar'
p6314
I1
sS'essential'
p6315
I2
sS'anzac'
p6316
I1
sS'hinted'
p6317
I1
sS'fucking'
p6318
I1
sS'understood'
p6319
I2
sS'gradually'
p6320
I1
sS'fairbrother'
p6321
I4
sS'tends'
p6322
I1
sS'contrasting'
p6323
I1
sS'palmer'
p6324
I5
sS'refused'
p6325
I7
sS'refuses'
p6326
I3
sS'intense'
p6327
I1
sS'hogwash'
p6328
I1
sS'cautious'
p6329
I1
sS'recepient'
p6330
I1
sS'range'
p6331
I4
sS'hatred'
p6332
I1
sS'womens'
p6333
I1
sS'stabresistant'
p6334
I1
sS'credible'
p6335
I4
sS'cutoff'
p6336
I1
sS'variously'
p6337
I2
sS'madagascar'
p6338
I1
sS'warned'
p6339
I3
sS'question'
p6340
I21
sS"we're"
p6341
I4
sS'sections'
p6342
I2
sS'files'
p6343
I1
sS'criteria'
p6344
I4
sS'cloth'
p6345
I1
sS"beyer's"
p6346
I1
sS'repeatedly'
p6347
I2
sS'filed'
p6348
I6
sS'raising'
p6349
I3
sS'fulfilling'
p6350
I1
sS'characteristic'
p6351
I1
sS'declarations'
p6352
I2
sS'inspeeches'
p6353
I1
sS'participants'
p6354
I1
sS'called'
p6355
I7
sS'27nbsp'
p6356
I2
sS'fiscally'
p6357
I1
sS'associated'
p6358
I1
sS'worthwhile'
p6359
I1
sS'secore'
p6360
I1
sS'commissioner'
p6361
I4
sS'warning'
p6362
I2
sS'jiggerypokery'
p6363
I1
sS'evils'
p6364
I1
sS'peace'
p6365
I1
sS'income'
p6366
I13
sS'sykes'
p6367
I1
sS'muddled'
p6368
I2
sS"peter's"
p6369
I1
sS'generates'
p6370
I1
sS'problems'
p6371
I16
sS'helping'
p6372
I1
sS'develops'
p6373
I1
sS'allowing'
p6374
I5
sS'suffers'
p6375
I1
sS'happier'
p6376
I1
sS'1980s1990s'
p6377
I1
sS'aotearoa'
p6378
I4
sS'unearnt'
p6379
I1
sS'attacking'
p6380
I5
sS'nuremburg'
p6381
I1
sS'nz210m'
p6382
I1
sS'narrative'
p6383
I1
sS"'choice'"
p6384
I1
sS'resistance'
p6385
I1
sS'steve'
p6386
I3
sS'sandpit'
p6387
I1
sS'shafts'
p6388
I2
sS'winds'
p6389
I1
sS'adjustment'
p6390
I1
sS'contributions'
p6391
I4
sS'prophecy'
p6392
I1
sS'issues'
p6393
I30
sS'simon'
p6394
I4
sS"brethren's"
p6395
I1
sS'uphold'
p6396
I1
sS'dissidents'
p6397
I1
sS'breach'
p6398
I5
sS'include'
p6399
I8
sS'fences'
p6400
I1
sS'dramatically'
p6401
I1
sS'breathing'
p6402
I1
sS'mainstream'
p6403
I1
sS'wishes'
p6404
I2
sS'assasinate'
p6405
I1
sS'drinking'
p6406
I3
sS'paternity'
p6407
I1
sS'notes'
p6408
I3
sS'deals'
p6409
I2
sS'tenderness'
p6410
I1
sS"poles'"
p6411
I1
sS'leavers'
p6412
I1
sS"week's"
p6413
I1
sS'polling'
p6414
I7
sS'dealt'
p6415
I3
sS'alltime'
p6416
I1
sS'autoranting'
p6417
I1
sS'leftliberal'
p6418
I1
sS'noted'
p6419
I2
sS'concluded'
p6420
I3
sS'smaller'
p6421
I4
sS'199899'
p6422
I1
sS'malice'
p6423
I1
sS'nz1025'
p6424
I1
sS'scandinavians'
p6425
I1
sS'makers'
p6426
I4
sS'universities'
p6427
I1
sS'hourly'
p6428
I1
sS"man's"
p6429
I1
sS'waiting'
p6430
I5
sS'1230pm130pm'
p6431
I1
sS'nazis'
p6432
I4
sS'chose'
p6433
I2
sS'desires'
p6434
I1
sS'pushing'
p6435
I5
sS'explore'
p6436
I1
sS'scrapped'
p6437
I1
sS'lickspittles'
p6438
I1
sS'larger'
p6439
I5
sS'httpdeliciouspostv4nouijumpclose'
p6440
I5
sS'leaving'
p6441
I5
sS'suggests'
p6442
I5
sS'slightest'
p6443
I1
sS'relation'
p6444
I3
sS'deputy'
p6445
I4
sS'apply'
p6446
I5
sS'boasts'
p6447
I1
sS'corrupted'
p6448
I1
sS'consumption'
p6449
I1
sS'paste'
p6450
I1
sS'timetable'
p6451
I2
sS'possession'
p6452
I1
sS'parliament'
p6453
I67
sS'journalists'
p6454
I12
sS'inclined'
p6455
I2
sS'cooperate'
p6456
I3
sS'brochure'
p6457
I2
sS'women'
p6458
I7
sS'topic'
p6459
I2
sS'tinted'
p6460
I1
sS'dusted'
p6461
I1
sS'anywhere'
p6462
I2
sS'purports'
p6463
I1
sS'aweful'
p6464
I1
sS'proof'
p6465
I1
sS'bittersweet'
p6466
I1
sS'spying'
p6467
I3
sS'seachange'
p6468
I1
sS'hilton'
p6469
I1
sS'something'
p6470
I36
sS'jeanette8217s'
p6471
I1
sS'surge'
p6472
I3
sS'mp8221'
p6473
I1
sS'autobiography'
p6474
I1
sS'united'
p6475
I23
sS'syndrome'
p6476
I2
sS'handover'
p6477
I1
sS'struggles'
p6478
I1
sS'traders'
p6479
I1
sS'brian'
p6480
I3
sS'justifiably'
p6481
I1
sS'slamming'
p6482
I1
sS'instead'
p6483
I24
sS'panic'
p6484
I1
sS'secular'
p6485
I1
sS'swedish'
p6486
I1
sS'maternal'
p6487
I1
sS'attend'
p6488
I3
sS'unforgivable'
p6489
I1
sS'comittee'
p6490
I1
sS'abuse'
p6491
I5
sS'ethnic'
p6492
I2
sS'light'
p6493
I8
sS'honestly'
p6494
I1
sS'tenure'
p6495
I1
sS'spreads'
p6496
I1
sS'interpreted'
p6497
I1
sS'whilst'
p6498
I1
sS'looks'
p6499
I7
sS'superior'
p6500
I1
sS'nondemocratic'
p6501
I1
sS'sackings'
p6502
I1
sS'nostalgia'
p6503
I1
sS"bill'"
p6504
I1
sS'permanent'
p6505
I2
sS'choose'
p6506
I2
sS'reilly'
p6507
I1
sS'covered'
p6508
I4
sS'holiday'
p6509
I1
sS'defining'
p6510
I1
sS'campaigned'
p6511
I1
sS'distress'
p6512
I2
sS'material'
p6513
I2
sS'negligent'
p6514
I1
sS'ambition'
p6515
I1
sS'nurturing'
p6516
I1
sS'successor'
p6517
I1
sS'articles'
p6518
I2
sS'profound'
p6519
I1
sS'researchoh'
p6520
I1
sS'transmitted'
p6521
I1
sS'economy'
p6522
I5
sS'privatisation'
p6523
I4
sS'related'
p6524
I5
sS'relates'
p6525
I1
sS'sentiment'
p6526
I1
sS'advicecontactsideas'
p6527
I1
sS'impart'
p6528
I1
sS'honorable'
p6529
I1
sS'supports'
p6530
I4
sS'integrated'
p6531
I1
sS'disclose'
p6532
I1
sS'coleadership'
p6533
I1
sS'intersperse'
p6534
I1
sS'conflicts'
p6535
I2
sS'philip'
p6536
I3
sS'waitaki'
p6537
I1
sS'phrases'
p6538
I1
sS'feasible'
p6539
I1
sS'conversation'
p6540
I1
sS'depriving'
p6541
I1
sS'retirement8221'
p6542
I1
sS'hence'
p6543
I6
sS'obscurity'
p6544
I1
sS'engenders'
p6545
I1
sS'proposing'
p6546
I1
sS"mccully's"
p6547
I1
sS'publication'
p6548
I1
sS'unknown'
p6549
I1
sS'guys8230'
p6550
I1
sS'wagging'
p6551
I2
sS'priority'
p6552
I1
sS'antigreen'
p6553
I1
sS"god's"
p6554
I1
sS'shell'
p6555
I1
sS'debate'
p6556
I21
sS'regards'
p6557
I4
sS'institution'
p6558
I3
sS'8217solve8217'
p6559
I1
sS'holland'
p6560
I1
sS'isolation'
p6561
I1
sS'riches'
p6562
I1
sS'limiting'
p6563
I1
sS'probe'
p6564
I1
sS'nontransferrable'
p6565
I1
sS'beter'
p6566
I1
sS'unaccountable'
p6567
I1
sS'misjudgement'
p6568
I1
sS'teenagers'
p6569
I1
sS"carrier'"
p6570
I1
sS'linked'
p6571
I2
sS'8220i'
p6572
I1
sS'peers'
p6573
I1
sS'afraid'
p6574
I1
sS'8220a'
p6575
I1
sS'agency'
p6576
I2
sS'key8217s'
p6577
I4
sS'combat'
p6578
I4
sS'centre'
p6579
I5
sS'petrol'
p6580
I2
sS'bushin'
p6581
I1
sS'cracking'
p6582
I3
sS'alarmed'
p6583
I1
sS'class'
p6584
I7
sS'discourage'
p6585
I1
sS'expert'
p6586
I2
sS'appallingly'
p6587
I1
sS'multiparty'
p6588
I2
sS'exhorting'
p6589
I1
sS'looked'
p6590
I5
sS"zealanders'"
p6591
I1
sS'cloaked'
p6592
I2
sS'treehugging'
p6593
I1
sS'inane'
p6594
I1
sS'digipoll'
p6595
I2
sS'chances'
p6596
I6
sS'electoral'
p6597
I106
sS'agreed'
p6598
I7
sS'longevity'
p6599
I1
sS'purely'
p6600
I2
sS'planning'
p6601
I1
sS'playbook'
p6602
I1
sS'turei'
p6603
I1
sS'dorothy'
p6604
I1
sS'utter'
p6605
I1
sS'chicken'
p6606
I1
sS'agrees'
p6607
I1
sS'swaping'
p6608
I1
sS'candidates'
p6609
I13
sS'thousands'
p6610
I3
sS'tapayers'
p6611
I1
sS'prosecute'
p6612
I4
sS'truthseeking'
p6613
I1
sS'topple'
p6614
I1
sS'watching'
p6615
I4
sS'8220insider8221'
p6616
I1
sS'words'
p6617
I15
sS'burglary'
p6618
I1
sS'chips'
p6619
I1
sS'onesided'
p6620
I1
sS'brain'
p6621
I7
sS'mccarten'
p6622
I3
sS'avoidable'
p6623
I1
sS'kindergarten'
p6624
I1
sS'europe'
p6625
I5
sS'requirement'
p6626
I1
sS'turbulent'
p6627
I1
sS'cairns'
p6628
I1
sS'popup'
p6629
I1
sS'merits'
p6630
I1
sS'closer'
p6631
I4
sS'closes'
p6632
I1
sS'closet'
p6633
I1
sS"young's"
p6634
I1
sS'superb'
p6635
I1
sS'left8230'
p6636
I1
sS'panty'
p6637
I1
sS'closed'
p6638
I6
sS'stories'
p6639
I6
sS'frustrated'
p6640
I3
sS'bought'
p6641
I4
sS'weighing'
p6642
I1
sS'ability'
p6643
I9
sS'dateless'
p6644
I1
sS'agencies'
p6645
I3
sS'embarrassment'
p6646
I1
sS'mallardnbsp'
p6647
I1
sS"ombudsman's"
p6648
I1
sS'greensand'
p6649
I1
sS'respondents'
p6650
I1
sS'coloumn'
p6651
I1
sS'april'
p6652
I3
sS'rodney'
p6653
I34
sS'grounds'
p6654
I3
sS'unclear'
p6655
I1
sS'disenfranchised'
p6656
I1
sS'rampantly'
p6657
I1
sS'8220unwise8221'
p6658
I1
sS'table'
p6659
I3
sS'narrowed'
p6660
I1
sS'motorbike'
p6661
I1
sS'decent'
p6662
I4
sS'responds'
p6663
I3
sS'quotspendingquot'
p6664
I1
sS"industry's"
p6665
I1
sS'determinant'
p6666
I1
sS'sufficient'
p6667
I1
sS'nominations'
p6668
I1
sS'scrutiny'
p6669
I3
sS'hansard'
p6670
I5
sS'overturn'
p6671
I1
sS'present'
p6672
I4
sS'brenden'
p6673
I1
sS'unlike'
p6674
I3
sS'vicki'
p6675
I1
sS'choices'
p6676
I4
sS'medicinal'
p6677
I1
sS"nobody's"
p6678
I1
sS'plead'
p6679
I1
sS'8220activism8221'
p6680
I1
sS'ringing'
p6681
I3
sS'tennisnbspcourt'
p6682
I1
sS'perhaps'
p6683
I11
sS'cross'
p6684
I1
sS'unite'
p6685
I1
sS'member'
p6686
I22
sS'adverse'
p6687
I1
sS'units'
p6688
I1
sS'tomatoes'
p6689
I1
sS'difficult'
p6690
I11
sS'observors'
p6691
I1
sS'residential'
p6692
I2
sS'retarded'
p6693
I1
sS'dalziel'
p6694
I1
sS'8220substantial8221'
p6695
I1
sS'32200'
p6696
I1
sS'beast'
p6697
I2
sS'student'
p6698
I11
sS'lobby'
p6699
I2
sS'warming'
p6700
I1
sS'gutter'
p6701
I2
sS'approve'
p6702
I1
sS'fighting'
p6703
I1
sS'posthistory'
p6704
I1
sS'english'
p6705
I35
sS'firstly'
p6706
I5
sS'contenders'
p6707
I1
sS'excessive'
p6708
I2
sS'heavily'
p6709
I1
sS'obtain'
p6710
I1
sS'biologist'
p6711
I1
sS'temerity'
p6712
I1
sS'nicky'
p6713
I2
sS'supply'
p6714
I6
sS'smith'
p6715
I10
sS'morbidly'
p6716
I1
sS'wanganuis'
p6717
I1
sS'adoption'
p6718
I1
sS"house's"
p6719
I1
sS'mccully'
p6720
I1
sS'identical'
p6721
I1
sS'provisions'
p6722
I2
sS"who's"
p6723
I1
sS'protesters'
p6724
I1
sS'presume'
p6725
I1
sS'press'
p6726
I32
sS'variants'
p6727
I1
sS'hollow'
p6728
I4
sS'incredibly'
p6729
I8
sS'showing'
p6730
I8
sS'helpful'
p6731
I5
sS'pamphlet'
p6732
I1
sS'twonew'
p6733
I1
sS'loser'
p6734
I5
sS'loses'
p6735
I1
sS'taxpayers'
p6736
I8
sS'january'
p6737
I3
sS'hooton'
p6738
I1
sS'wonders'
p6739
I4
sS'parity'
p6740
I1
sS'traitors'
p6741
I1
sS'because'
p6742
I80
sS'scared'
p6743
I1
sS'church'
p6744
I1
sS'socialists'
p6745
I2
sS'growth'
p6746
I6
sS'persue'
p6747
I1
sS'empire'
p6748
I1
sS'employment'
p6749
I10
sS'philosopher'
p6750
I1
sS'accademic'
p6751
I1
sS'leader'
p6752
I23
sS'300000'
p6753
I1
sS'coleading'
p6754
I1
sS'ripped'
p6755
I2
sS'kitsch'
p6756
I1
sS'after'
p6757
I71
sS'carried'
p6758
I7
sS'extension'
p6759
I2
sS'getting'
p6760
I21
sS'column'
p6761
I7
sS'universe'
p6762
I2
sS'dependence'
p6763
I1
sS'sidekick'
p6764
I1
sS'carries'
p6765
I1
sS'swear'
p6766
I1
sS'wilderness'
p6767
I1
sS'finnicky'
p6768
I1
sS'traipsing'
p6769
I1
sS'warrants'
p6770
I1
sS'weather'
p6771
I2
sS'promise'
p6772
I11
sS'micropoliticians'
p6773
I1
sS'registration'
p6774
I2
sS'prompted'
p6775
I2
sS'hitting'
p6776
I1
sS'egalitarian'
p6777
I3
sS'transfer'
p6778
I7
sS'intention'
p6779
I4
sS'dynamite'
p6780
I1
sS'triggered'
p6781
I1
sS'shane'
p6782
I2
sS'funds'
p6783
I9
sS'noght'
p6784
I1
sS'clampdown'
p6785
I1
sS'automated'
p6786
I1
sS'selfish'
p6787
I1
sS'tactics'
p6788
I7
sS'whether'
p6789
I24
sS'protesting'
p6790
I2
sS'distract'
p6791
I1
sS'record'
p6792
I4
sS'below'
p6793
I28
sS'demonstrate'
p6794
I2
sS'greensnbsp'
p6795
I1
sS'benefitunemployment'
p6796
I1
sS'jenny'
p6797
I2
sS'spending8221'
p6798
I1
sS'inadequate'
p6799
I3
sS'meaningless'
p6800
I1
sS'goodness'
p6801
I1
sS'rightwing'
p6802
I3
sS'happen'
p6803
I6
sS'conspired'
p6804
I1
sS'avoided'
p6805
I2
sS'percent'
p6806
I17
sS'smears'
p6807
I3
sS'overspending'
p6808
I4
sS'other'
p6809
I88
sS'hysteria'
p6810
I1
sS'electricty'
p6811
I1
sS'conclusion'
p6812
I3
sS'illegally'
p6813
I3
sS'kinds'
p6814
I3
sS'shredded'
p6815
I2
sS'inherently'
p6816
I1
sS'feral'
p6817
I1
sS'margaret'
p6818
I4
sS'earthly'
p6819
I1
sS'disclosure'
p6820
I2
sS'squeal'
p6821
I1
sS'validation'
p6822
I1
sS'perigo'
p6823
I1
sS'ideological'
p6824
I2
sS'tonnes'
p6825
I1
sS'furthermore'
p6826
I4
s.