(dp1
S'yellow'
p2
I1
sS'cook8217s'
p3
I1
sS'hanging'
p4
I4
sS'cotourist'
p5
I1
sS'youraccountgeekzonemailcom'
p6
I1
sS'yottamusic'
p7
I1
sS'localized'
p8
I1
sS'increase'
p9
I11
sS'authorit'
p10
I2
sS'granting'
p11
I1
sS'electricity'
p12
I3
sS'ajaxified'
p13
I1
sS"wikipedia's"
p14
I2
sS'regional'
p15
I1
sS'wimaz'
p16
I1
sS'wimax'
p17
I9
sS'bringing'
p18
I2
sS'differentiated'
p19
I1
sS'basics'
p20
I1
sS'internally'
p21
I2
sS'grueling'
p22
I1
sS'customizable'
p23
I1
sS'commenter'
p24
I1
sS'wednesday'
p25
I5
sS"couple's"
p26
I1
sS'debuting'
p27
I1
sS'reliable'
p28
I1
sS'fritter'
p29
I1
sS'drury8217s'
p30
I1
sS'tired'
p31
I3
sS'bitstream'
p32
I5
sS'elegant'
p33
I4
sS'second'
p34
I13
sS'valiant'
p35
I3
sS'sustaining'
p36
I1
sS'wilson'
p37
I4
sS'errors'
p38
I2
sS'bittorrent'
p39
I1
sS'cooking'
p40
I1
sS'fingers'
p41
I3
sS'designing'
p42
I1
sS'increasing'
p43
I2
sS'exclamations'
p44
I1
sS'specialist'
p45
I2
sS'widget'
p46
I5
sS'reporter'
p47
I1
sS'loadbalancednbspiis'
p48
I1
sS'error'
p49
I1
sS'atoms'
p50
I2
sS'specialise'
p51
I1
sS'reported'
p52
I10
sS'china'
p53
I6
sS'doesn8217t'
p54
I6
sS'boringeasy'
p55
I1
sS'confronts'
p56
I1
sS'who8217s'
p57
I4
sS'blankquot'
p58
I1
sS'substance'
p59
I1
sS'reports'
p60
I9
sS'advantages'
p61
I3
sS'criticism'
p62
I2
sS'golden'
p63
I1
sS'divide'
p64
I3
sS'explained'
p65
I5
sS'replace'
p66
I11
sS'brought'
p67
I7
sS'hypemachine'
p68
I1
sS'monetization'
p69
I1
sS'spoke'
p70
I5
sS'browse'
p71
I5
sS'abbreviations'
p72
I1
sS'music'
p73
I46
sS'therefore'
p74
I3
sS'strike'
p75
I1
sS'until'
p76
I18
sS'females'
p77
I1
sS'relay'
p78
I1
sS'relax'
p79
I1
sS'successful'
p80
I9
sS'brings'
p81
I5
sS'yahoo'
p82
I32
sS'midst'
p83
I3
sS'encountered'
p84
I1
sS'addon'
p85
I1
sS'locked'
p86
I9
sS'pursue'
p87
I2
sS'systemsite'
p88
I1
sS'reword'
p89
I1
sS'concepts'
p90
I3
sS'revenues'
p91
I2
sS'example'
p92
I27
sS'household'
p93
I2
sS'organized'
p94
I4
sS'absolute'
p95
I2
sS"palm's"
p96
I6
sS'gpugems'
p97
I2
sS'complaining'
p98
I2
sS'travel'
p99
I3
sS'drying'
p100
I1
sS'feature'
p101
I25
sS'machine'
p102
I19
sS'epinions'
p103
I1
sS'significance'
p104
I1
sS'gaming'
p105
I2
sS'abstraction'
p106
I1
sS'utilise'
p107
I1
sS'typed'
p108
I2
sS'diagram'
p109
I1
sS'wrong'
p110
I7
sS'nonprofit'
p111
I2
sS'types'
p112
I7
sS'effective'
p113
I5
sS'lenehan'
p114
I1
sS'revolt'
p115
I1
sS'quotboringquot'
p116
I1
sS"juha's"
p117
I1
sS'beeping'
p118
I2
sS'keeps'
p119
I6
sS"'formats'"
p120
I1
sS'democratic'
p121
I1
sS'schoolmates'
p122
I1
sS'seedcamp'
p123
I1
sS'feedback'
p124
I8
sS'singersongwriter'
p125
I1
sS'telecom'
p126
I85
sS'worldmode'
p127
I5
sS'fidelity'
p128
I1
sS'owens'
p129
I1
sS'aargh'
p130
I1
sS'businessrelated'
p131
I1
sS'screaming'
p132
I1
sS'plymedia'
p133
I1
sS'knewnbsp'
p134
I1
sS'wales'
p135
I15
sS'hidden'
p136
I1
sS'admirable'
p137
I1
sS'easier'
p138
I11
sS'enrich'
p139
I1
sS'disturb'
p140
I2
sS'effects'
p141
I2
sS'schools'
p142
I1
sS'braised'
p143
I1
sS'silver'
p144
I3
sS'structural'
p145
I1
sS'rumour'
p146
I1
sS'represents'
p147
I2
sS'whacking'
p148
I1
sS'disconnection'
p149
I1
sS'arrow'
p150
I1
sS'addicted'
p151
I1
sS'queued'
p152
I1
sS'techbiz'
p153
I1
sS'financial'
p154
I4
sS'telescope'
p155
I1
sS'series'
p156
I15
sS'allan'
p157
I1
sS'solution'
p158
I19
sS'strips'
p159
I1
sS'fortnight'
p160
I1
sS'substantially'
p161
I1
sS'overwrite'
p162
I1
sS'forwarding'
p163
I1
sS'touts'
p164
I1
sS'excepting'
p165
I1
sS'encourage'
p166
I7
sS'engineer'
p167
I4
sS'threatened'
p168
I2
sS'given'
p169
I18
sS'sensory'
p170
I2
sS'estimate'
p171
I2
sS'universally'
p172
I1
sS"'messages'"
p173
I1
sS'commented'
p174
I1
sS'ministries'
p175
I1
sS'levels'
p176
I3
sS'speedy'
p177
I1
sS"today's"
p178
I3
sS'1970s'
p179
I1
sS'speeds'
p180
I3
sS'purpose'
p181
I4
sS'hearsay'
p182
I2
sS"'office"
p183
I1
sS'channels'
p184
I4
sS'bengurion'
p185
I1
sS'opensocial'
p186
I5
sS'customization'
p187
I3
sS'clarity'
p188
I2
sS'traction'
p189
I1
sS'service'
p190
I121
sS'similarly'
p191
I4
sS'engagement'
p192
I2
sS'needed'
p193
I5
sS'master'
p194
I3
sS'listed'
p195
I15
sS'rabin'
p196
I1
sS'bitter'
p197
I1
sS'listen'
p198
I10
sS'rewards'
p199
I1
sS'collapse'
p200
I1
sS'predictably'
p201
I1
sS'wisdom'
p202
I1
sS'rectified'
p203
I1
sS'palsy'
p204
I1
sS'positively'
p205
I1
sS'durig'
p206
I1
sS'showed'
p207
I5
sS'nations'
p208
I3
sS'project'
p209
I14
sS'feeling'
p210
I4
sS'acquisition'
p211
I2
sS'kublax'
p212
I1
sS'spectrum'
p213
I21
sS'affairs'
p214
I3
sS'blazeds'
p215
I10
sS'followon'
p216
I1
sS'causing'
p217
I2
sS'ledlit'
p218
I1
sS'amusing'
p219
I2
sS'vcomms'
p220
I3
sS'workmates'
p221
I1
sS'shall'
p222
I1
sS'miscalculated'
p223
I1
sS'object'
p224
I3
sS'looming'
p225
I1
sS'resonates'
p226
I2
sS'metrics'
p227
I1
sS'simplify'
p228
I1
sS'letter'
p229
I6
sS'entry'
p230
I5
sS'drought'
p231
I1
sS'macbook'
p232
I9
sS'3rdquo'
p233
I1
sS'8220brand8221'
p234
I1
sS'emailing'
p235
I3
sS'professor'
p236
I3
sS'advisory'
p237
I6
sS'signatures'
p238
I1
sS'meetings'
p239
I2
sS'advisors'
p240
I1
sS'nominated'
p241
I1
sS'participate'
p242
I2
sS'boardlevel'
p243
I1
sS'touches'
p244
I2
sS'layout'
p245
I1
sS'louise'
p246
I1
sS'headline'
p247
I1
sS'cousins'
p248
I1
sS'theme'
p249
I1
sS'settopboxes'
p250
I1
sS'touched'
p251
I2
sS'meurig'
p252
I1
sS'halfarsed'
p253
I1
sS'klein'
p254
I1
sS'pocket'
p255
I4
sS'sniping'
p256
I1
sS'reversal'
p257
I1
sS'nicely'
p258
I1
sS'septembernbsp'
p259
I1
sS'patch'
p260
I1
sS"them'"
p261
I1
sS'piggy'
p262
I1
sS'release'
p263
I29
sS'respond'
p264
I2
sS'mandatory'
p265
I1
sS'disaster'
p266
I2
sS'branding'
p267
I3
sS'niche'
p268
I8
sS'result'
p269
I23
sS'hammer'
p270
I1
sS'bigco'
p271
I2
sS'ambitions'
p272
I1
sS'wikipedia'
p273
I3
sS'bookmarking'
p274
I3
sS'conductive'
p275
I2
sS'pirate'
p276
I2
sS'preserve'
p277
I1
sS'parallels'
p278
I1
sS'extend'
p279
I2
sS'nature'
p280
I4
sS'rolled'
p281
I1
sS'longlost'
p282
I3
sS'extent'
p283
I2
sS'prelocation'
p284
I1
sS'tyranny'
p285
I1
sS'accident'
p286
I1
sS'sacrificing'
p287
I1
sS'disdain'
p288
I2
sS'voyeuristic'
p289
I1
sS'adapter'
p290
I1
sS'adventures'
p291
I2
sS'dave8217s'
p292
I1
sS'planned'
p293
I4
sS'surprises'
p294
I1
sS'login'
p295
I2
sS'argue'
p296
I2
sS'asked'
p297
I14
sS'releasednbsp'
p298
I1
sS'organisational'
p299
I3
sS"aren't"
p300
I5
sS'shouting'
p301
I1
sS'union'
p302
I1
sS'doomsaying'
p303
I1
sS'criticised'
p304
I1
sS'bothers'
p305
I1
sS'documentsnbsp'
p306
I1
sS'correction'
p307
I1
sS'sydney'
p308
I4
sS'facetoface'
p309
I1
sS'worked'
p310
I14
sS'commerce'
p311
I3
sS'gritty'
p312
I1
sS'professionally'
p313
I1
sS'brainstorm'
p314
I1
sS'remembering'
p315
I1
sS'biotech'
p316
I1
sS'played'
p317
I7
sS'player'
p318
I6
sS'telecomxtra'
p319
I1
sS'trusted'
p320
I1
sS'damaged'
p321
I1
sS'things'
p322
I68
sS'toaster'
p323
I1
sS'craigslist'
p324
I2
sS'split'
p325
I3
sS'skateboards'
p326
I2
sS'european'
p327
I7
sS'templates'
p328
I1
sS'fairly'
p329
I4
sS'quotlibraryquot'
p330
I1
sS'workforce'
p331
I1
sS"'ground"
p332
I1
sS'ownership'
p333
I9
sS'shure8217s'
p334
I1
sS'lucas'
p335
I1
sS'mentors'
p336
I2
sS'academic'
p337
I3
sS'meade'
p338
I4
sS'echoes'
p339
I1
sS'red8221'
p340
I1
sS'corporate'
p341
I6
sS'opinions'
p342
I1
sS'attractor'
p343
I1
sS'distribute'
p344
I1
sS'networkinglife'
p345
I1
sS'tagsnbsp'
p346
I1
sS'rushing'
p347
I1
sS'proofing'
p348
I3
sS'previous'
p349
I10
sS'emphasis'
p350
I3
sS'ooooh'
p351
I1
sS'projects'
p352
I7
sS'prison'
p353
I1
sS'facebookcom'
p354
I1
sS'match'
p355
I3
sS'synchronisation'
p356
I4
sS'alcatellucent'
p357
I2
sS'possible'
p358
I17
sS'possibly'
p359
I5
sS'yearrsquos'
p360
I1
sS'frederiksberg'
p361
I1
sS'i8217ve'
p362
I24
sS'sliced'
p363
I1
sS'alice'
p364
I3
sS'remind'
p365
I3
sS'steps'
p366
I2
sS'wwwwsisawardorg'
p367
I1
sS'right'
p368
I53
sS'crowd'
p369
I6
sS'people'
p370
I153
sS'broadcasters'
p371
I5
sS'crown'
p372
I1
sS"'nobody"
p373
I1
sS'transmist'
p374
I1
sS'attendees'
p375
I3
sS'noncomputer'
p376
I1
sS'bottom'
p377
I5
sS'lockdown'
p378
I1
sS'creative'
p379
I14
sS'contributing'
p380
I2
sS'individuals'
p381
I14
sS'pondered'
p382
I2
sS'nbspit'
p383
I1
sS'httpwwwjtc1sc34org'
p384
I1
sS'simplenbsp'
p385
I1
sS'starring'
p386
I1
sS'losing'
p387
I2
sS'bowing'
p388
I1
sS'manufacturing'
p389
I11
sS'dollars'
p390
I4
sS'citizens'
p391
I5
sS'entrants'
p392
I1
sS'catchy'
p393
I1
sS'despair'
p394
I1
sS'lacked'
p395
I1
sS'slightly'
p396
I4
sS'raised'
p397
I2
sS'statements'
p398
I2
sS'facility'
p399
I2
sS'dyson'
p400
I1
sS'undermining'
p401
I1
sS'beings'
p402
I3
sS'addressnet'
p403
I1
sS'raises'
p404
I2
sS'workgroups'
p405
I1
sS'lookingnbspgood'
p406
I1
sS'methods'
p407
I7
sS'foothold'
p408
I1
sS'resistedand'
p409
I1
sS'panorama'
p410
I2
sS'support'
p411
I49
sS'constantly'
p412
I5
sS'absolutely'
p413
I2
sS'wordpress'
p414
I8
sS"boy's"
p415
I1
sS'resulted'
p416
I2
sS'techmeme'
p417
I3
sS'launching'
p418
I5
sS'happy'
p419
I15
sS'offer'
p420
I22
sS'fascination'
p421
I2
sS'forming'
p422
I1
sS'paypal'
p423
I3
sS'notifications'
p424
I3
sS'hemisphere'
p425
I1
sS'pagerank'
p426
I1
sS'incorporation'
p427
I1
sS'universitys'
p428
I1
sS'concatenates'
p429
I1
sS'congratulations'
p430
I2
sS'inside'
p431
I7
sS'devices'
p432
I20
sS'unanimous'
p433
I1
sS'panels'
p434
I3
sS'machinesnbsp'
p435
I1
sS'nz179'
p436
I1
sS'tonne'
p437
I1
sS'later'
p438
I15
sS'proved'
p439
I1
sS'steady'
p440
I3
sS'proven'
p441
I1
sS'proves'
p442
I1
sS'exist'
p443
I5
sS'accounting'
p444
I5
sS'ericsson'
p445
I5
sS'negotiations'
p446
I1
sS'posting'
p447
I4
sS'starsoft'
p448
I1
sS'geographically'
p449
I2
sS'factfinding'
p450
I1
sS'jaycut'
p451
I1
sS'developers'
p452
I26
sS'doesfrom'
p453
I1
sS'models'
p454
I3
sS'outage'
p455
I1
sS'asterisk'
p456
I2
sS'epolitics'
p457
I4
sS'acquaintance'
p458
I1
sS'intent'
p459
I4
sS'rolling'
p460
I5
sS'lowdown'
p461
I1
sS'breadth'
p462
I2
sS'chain'
p463
I3
sS'reviewers'
p464
I1
sS'viaduct'
p465
I1
sS"film's"
p466
I3
sS'skate'
p467
I1
sS'selfcreation'
p468
I1
sS'venice'
p469
I1
sS'machinesnbspit'
p470
I1
sS'bluray8217s'
p471
I1
sS'masterofyourdomain'
p472
I1
sS'downloading'
p473
I5
sS'prepaid'
p474
I3
sS'consolidation'
p475
I1
sS'choice'
p476
I19
sS'stays'
p477
I1
sS'exact'
p478
I1
sS'minute'
p479
I4
sS'quotrevamp'
p480
I1
sS'leave'
p481
I11
sS'solved'
p482
I1
sS'subway'
p483
I4
sS'defaults'
p484
I1
sS'mindmapping'
p485
I1
sS'loads'
p486
I1
sS'prevent'
p487
I2
sS'spiritual'
p488
I1
sS'yitzhak'
p489
I1
sS'findings'
p490
I1
sS'enduser'
p491
I1
sS'shirts'
p492
I2
sS'saarinen'
p493
I1
sS'current'
p494
I17
sS'falling'
p495
I2
sS'ground'
p496
I8
sS'badge'
p497
I1
sS'quotauto'
p498
I1
sS"april's"
p499
I1
sS'nbspscreenshot'
p500
I1
sS'topicality'
p501
I2
sS'understanding'
p502
I6
sS'address'
p503
I23
sS'alone'
p504
I7
sS'along'
p505
I19
sS'studied'
p506
I1
sS'funded'
p507
I7
sS'commonly'
p508
I3
sS'ineffective'
p509
I2
sS'sprouted'
p510
I1
sS'tasks'
p511
I7
sS'prefer'
p512
I4
sS'logical'
p513
I2
sS'bloody'
p514
I4
sS'fakecamp'
p515
I1
sS'bookmarks'
p516
I2
sS'fantasysportsmatrixcom'
p517
I2
sS'working'
p518
I35
sS'positive'
p519
I5
sS'angry'
p520
I1
sS'salihefendic'
p521
I1
sS'tightly'
p522
I1
sS'optimize'
p523
I2
sS'amazoncom'
p524
I1
sS'opposed'
p525
I1
sS'wondering'
p526
I3
sS'collateral'
p527
I2
sS'films'
p528
I2
sS'scope'
p529
I2
sS'introducing'
p530
I1
sS'apparent'
p531
I1
sS'oregon'
p532
I1
sS'visual'
p533
I3
sS'everywhere'
p534
I1
sS'virtue'
p535
I1
sS'easiest'
p536
I1
sS'behalf'
p537
I5
sS'feeddemon'
p538
I7
sS'lifethreatening'
p539
I2
sS'originally'
p540
I7
sS'facilitating'
p541
I2
sS'believer'
p542
I1
sS'believes'
p543
I6
sS'trounced'
p544
I1
sS'printing'
p545
I7
sS'values'
p546
I1
sS'kendrick'
p547
I1
sS'believed'
p548
I2
sS'telematics'
p549
I5
sS'admired'
p550
I1
sS'awesome'
p551
I1
sS'nascar'
p552
I1
sS'locks'
p553
I1
sS'incremental'
p554
I1
sS'unveiled'
p555
I1
sS'allowed'
p556
I4
sS'vocea'
p557
I2
sS'monitoring'
p558
I2
sS'winter'
p559
I1
sS'silos'
p560
I1
sS'divided'
p561
I1
sS'poking'
p562
I1
sS'edinburgh'
p563
I2
sS'laundry'
p564
I1
sS'explorer'
p565
I10
sS'jeanpascal'
p566
I1
sS'applications'
p567
I21
sS'explored'
p568
I1
sS'jaiku'
p569
I2
sS'improving'
p570
I2
sS'morphyossatmorphnetnz'
p571
I1
sS'revealed'
p572
I4
sS'geneious'
p573
I1
sS'stress'
p574
I1
sS'surfing'
p575
I3
sS'natural'
p576
I14
sS'sectors'
p577
I3
sS'23ghz'
p578
I2
sS'opinionated'
p579
I1
sS'castings'
p580
I1
sS'bequest'
p581
I1
sS'unsolicited'
p582
I4
sS'worldleading'
p583
I1
sS'transplants'
p584
I1
sS'webpage'
p585
I1
sS'callnbsp'
p586
I1
sS'beaumont'
p587
I1
sS'barracuda'
p588
I3
sS'damage'
p589
I4
sS'opentech'
p590
I1
sS'course'
p591
I27
sS'episodes'
p592
I1
sS'experiments'
p593
I1
sS'pp1345'
p594
I1
sS'constituted'
p595
I1
sS'thumb'
p596
I1
sS'internationally'
p597
I2
sS'bagels'
p598
I1
sS'councillor'
p599
I1
sS'attraction'
p600
I1
sS'creations'
p601
I1
sS'antipathy'
p602
I1
sS'limbo'
p603
I1
sS'instantly'
p604
I5
sS'limewire'
p605
I1
sS'matches'
p606
I2
sS'smarter'
p607
I3
sS'records'
p608
I9
sS'compelled'
p609
I2
sS'subscribers'
p610
I8
sS'sorted'
p611
I2
sS'obdii'
p612
I1
sS'maintaining'
p613
I1
sS'matched'
p614
I1
sS'bb8800'
p615
I1
sS'neutrality'
p616
I1
sS'establishing'
p617
I3
sS'win32'
p618
I1
sS'fisherman'
p619
I1
sS'personalizing'
p620
I1
sS'quarter'
p621
I3
sS'stalling'
p622
I2
sS'bloglines'
p623
I45
sS'revised'
p624
I1
sS'breakthrough'
p625
I2
sS'sponsor'
p626
I4
sS'ezines'
p627
I1
sS'disasters'
p628
I1
sS'container'
p629
I1
sS'codeblacks'
p630
I1
sS'contained'
p631
I1
sS'penguins'
p632
I1
sS'internet'
p633
I115
sS'suggesting'
p634
I2
sS'million'
p635
I37
sS'possibility'
p636
I2
sS'quite'
p637
I10
sS'recordings'
p638
I1
sS'complicated'
p639
I4
sS'emulation'
p640
I1
sS'besides'
p641
I1
sS"cisco's"
p642
I3
sS'training'
p643
I2
sS'lasercut'
p644
I2
sS'ctick'
p645
I1
sS'dunno'
p646
I1
sS'collapsing'
p647
I1
sS'programming'
p648
I6
sS'downsides'
p649
I1
sS'undesirable'
p650
I1
sS'quotoffice'
p651
I1
sS'router'
p652
I2
sS'320kbps'
p653
I1
sS'emotion'
p654
I1
sS'saving'
p655
I12
sS'spoken'
p656
I1
sS'peoplenbspdepend'
p657
I1
sS'spanish'
p658
I2
sS'structured'
p659
I1
sS'indicate'
p660
I2
sS'quotit'
p661
I1
sS'draft'
p662
I7
sS'typing'
p663
I2
sS"retailer's"
p664
I1
sS'nbspon'
p665
I1
sS'williams'
p666
I1
sS'zealotry'
p667
I1
sS'proving'
p668
I1
sS'forward'
p669
I10
sS'ridiculous'
p670
I2
sS'representing'
p671
I1
sS'lucent'
p672
I1
sS'translate'
p673
I3
sS'iceberg'
p674
I2
sS'depressed'
p675
I1
sS'rival'
p676
I1
sS'folly'
p677
I1
sS'latencysensitive'
p678
I1
sS'future'
p679
I36
sS'cavalier'
p680
I1
sS'standardised'
p681
I2
sS'individualized'
p682
I2
sS'prospect'
p683
I2
sS'addressing'
p684
I1
sS'considerably'
p685
I1
sS'turned'
p686
I8
sS'afternoons'
p687
I1
sS'alley'
p688
I1
sS'airpoints'
p689
I1
sS'connectionz'
p690
I1
sS'dismissive'
p691
I1
sS'aside'
p692
I2
sS'intends'
p693
I1
sS'wanting'
p694
I6
sS'ironically'
p695
I2
sS'printer'
p696
I6
sS'capitalist'
p697
I1
sS'opposite'
p698
I2
sS'ascendency'
p699
I2
sS'immigration'
p700
I4
sS'printed'
p701
I10
sS'remarks'
p702
I3
sS'inserted'
p703
I1
sS'pages'
p704
I16
sS'average'
p705
I2
sS'drive'
p706
I14
sS'defeating'
p707
I1
sS'managing'
p708
I4
sS'jitters'
p709
I1
sS'refining'
p710
I1
sS'vasts'
p711
I1
sS'walking'
p712
I2
sS'lotus'
p713
I1
sS'hustings'
p714
I1
sS'woosh'
p715
I4
sS'fibre'
p716
I5
sS"'glitterati'"
p717
I1
sS'importantcrucial'
p718
I1
sS'welcomed'
p719
I1
sS'tears'
p720
I2
sS'going'
p721
I84
sS'hockey'
p722
I1
sS'outrage'
p723
I1
sS'blinds'
p724
I1
sS'dispute'
p725
I3
sS"xfm's"
p726
I1
sS'assistant'
p727
I1
sS'freezing'
p728
I1
sS'outlet'
p729
I2
sS'mondo'
p730
I1
sS'tuanz'
p731
I1
sS'prime'
p732
I9
sS'resource'
p733
I5
sS'settings'
p734
I5
sS'borrow'
p735
I1
sS'worried'
p736
I2
sS'overreaction'
p737
I1
sS'worrier'
p738
I1
sS'vision'
p739
I5
sS'impressions'
p740
I4
sS"alex's"
p741
I1
sS'clips'
p742
I4
sS'harvey'
p743
I2
sS'representatives'
p744
I1
sS'sponsorship'
p745
I1
sS'moons'
p746
I1
sS'affecting'
p747
I1
sS'gives'
p748
I13
sS'vertical'
p749
I1
sS'screen'
p750
I25
sS'nightrsquos'
p751
I1
sS'concentrate'
p752
I1
sS'awards'
p753
I5
sS'nic8217s'
p754
I2
sS'spark'
p755
I1
sS'conversed'
p756
I1
sS'myself'
p757
I16
sS'densely'
p758
I2
sS'rankings'
p759
I2
sS"site'"
p760
I1
sS'expression'
p761
I1
sS'allowance'
p762
I1
sS'pokemoncrater'
p763
I1
sS'stream'
p764
I7
sS'coloradobased'
p765
I1
sS'sentinel'
p766
I1
sS'neutraceuticals'
p767
I1
sS'combines'
p768
I1
sS'vancouver8217s'
p769
I1
sS'webshots'
p770
I1
sS'stretch'
p771
I1
sS'locally'
p772
I2
sS'vacation'
p773
I2
sS'breath'
p774
I1
sS'nonvalue'
p775
I1
sS'incubation'
p776
I1
sS'combined'
p777
I2
sS'reflective'
p778
I1
sS'diatribe'
p779
I1
sS'wants'
p780
I12
sS'enable'
p781
I7
sS"actor's"
p782
I1
sS'formed'
p783
I2
sS'grayscale'
p784
I1
sS'antivirus'
p785
I1
sS'photos'
p786
I15
sS'extant'
p787
I1
sS'former'
p788
I5
sS'noah8217s'
p789
I1
sS'kazaa'
p790
I2
sS'successes'
p791
I1
sS'policies'
p792
I2
sS'dualmode'
p793
I1
sS'newspaper'
p794
I6
sS'situation'
p795
I6
sS'endured'
p796
I1
sS'spotlight'
p797
I1
sS'todoist'
p798
I10
sS'moveonorg'
p799
I1
sS'engaged'
p800
I3
sS'wasn8217t'
p801
I1
sS'cobol'
p802
I3
sS'engages'
p803
I1
sS'couldn8217t'
p804
I2
sS'binary'
p805
I3
sS'ingrained'
p806
I1
sS'ubabased'
p807
I1
sS'breakdown'
p808
I1
sS'visually'
p809
I5
sS'wires'
p810
I1
sS'assigns'
p811
I1
sS'bebofacebook'
p812
I1
sS'singapore'
p813
I1
sS'allocation'
p814
I1
sS'constraining'
p815
I1
sS"internet'"
p816
I1
sS'wired'
p817
I2
sS'windowsmedia'
p818
I1
sS'tracking'
p819
I8
sS'academics'
p820
I1
sS'customized'
p821
I2
sS'costs'
p822
I9
sS'quixotic'
p823
I1
sS'acqusition'
p824
I1
sS'customizer'
p825
I1
sS'dimension'
p826
I1
sS'summer'
p827
I1
sS'hvx200'
p828
I1
sS'being'
p829
I106
sS'usonian'
p830
I3
sS'peerproduced'
p831
I1
sS'unbelivers'
p832
I2
sS'weekly'
p833
I3
sS'pillar'
p834
I1
sS'adsense'
p835
I2
sS'aspects'
p836
I2
sS'around'
p837
I68
sS'grigsby'
p838
I1
sS'unveil'
p839
I1
sS'gestures'
p840
I1
sS'traffic'
p841
I16
sS'vacuum'
p842
I1
sS'world'
p843
I76
sS'postal'
p844
I4
sS'meaning'
p845
I9
sS'intel'
p846
I4
sS'inexplicably'
p847
I2
sS'updat'
p848
I1
sS'shirky'
p849
I1
sS'learning'
p850
I3
sS'dilbert'
p851
I1
sS'8216dead8217'
p852
I1
sS'cleanburning'
p853
I1
sS'thinks'
p854
I3
sS'8220ponoko8221'
p855
I1
sS"there'll"
p856
I1
sS'cavity'
p857
I1
sS'ability'
p858
I16
sS"'services'"
p859
I1
sS'refer'
p860
I2
sS'power'
p861
I33
sS'leadership'
p862
I2
sS'thailand'
p863
I1
sS'stone'
p864
I1
sS'origins'
p865
I1
sS'package'
p866
I12
sS'industry'
p867
I45
sS'thinkfree'
p868
I6
sS'favorite'
p869
I11
sS'johnston'
p870
I1
sS'wikis'
p871
I3
sS'addons'
p872
I3
sS'diversely'
p873
I1
sS'burning'
p874
I3
sS'screentips'
p875
I1
sS'image'
p876
I8
sS'parties'
p877
I2
sS'pivot'
p878
I2
sS'truckies'
p879
I1
sS'800000'
p880
I1
sS'technically'
p881
I3
sS'legacy'
p882
I1
sS"phone's"
p883
I1
sS'futile'
p884
I1
sS'venturebeat'
p885
I1
sS'bubble'
p886
I3
sS'emergence'
p887
I4
sS'complete'
p888
I12
sS'76025'
p889
I1
sS'brain'
p890
I2
sS'casebycase'
p891
I1
sS'antiquated'
p892
I1
sS'unreliable'
p893
I1
sS'technologies'
p894
I31
sS'openxml'
p895
I2
sS'buying'
p896
I6
sS'nonbootable'
p897
I1
sS'october'
p898
I6
sS'monopoly'
p899
I2
sS'unveils'
p900
I1
sS'dirty'
p901
I1
sS'crowds'
p902
I2
sS'agree'
p903
I11
sS'detailed'
p904
I1
sS'engine'
p905
I19
sS'migrate'
p906
I3
sS'certain'
p907
I6
sS'aquaflow'
p908
I1
sS'tshirt'
p909
I4
sS'associating'
p910
I1
sS'formulation'
p911
I1
sS'typepad'
p912
I1
sS'watched'
p913
I2
sS"baseball's"
p914
I1
sS'ideally'
p915
I1
sS'drafts'
p916
I1
sS'readwrite'
p917
I4
sS'extract'
p918
I3
sS'novice'
p919
I1
sS'graduate'
p920
I1
sS'tight'
p921
I2
sS'friggin'
p922
I1
sS'puppy'
p923
I1
sS'openid'
p924
I1
sS'faxes'
p925
I1
sS'congress'
p926
I1
sS'reached'
p927
I2
sS'slant'
p928
I1
sS'seriousness'
p929
I1
sS'provenco'
p930
I2
sS'realised'
p931
I3
sS'careforce'
p932
I2
sS'resell'
p933
I1
sS'tricky'
p934
I2
sS'natalie'
p935
I3
sS'tricks'
p936
I1
sS'behavioral'
p937
I2
sS'original'
p938
I9
sS'consider'
p939
I12
sS'asteroids'
p940
I1
sS'ernie'
p941
I1
sS'welfare'
p942
I1
sS'jason'
p943
I2
sS'directorship'
p944
I1
sS'reasoning'
p945
I2
sS'causes'
p946
I1
sS'vikings'
p947
I1
sS'irrelevant'
p948
I1
sS'highquality'
p949
I1
sS"'all'"
p950
I1
sS'openrightsgrouporg'
p951
I1
sS'homepage'
p952
I6
sS'technopop'
p953
I1
sS'apassing'
p954
I1
sS'returned'
p955
I2
sS'puzzled'
p956
I1
sS'detention'
p957
I3
sS'surprise'
p958
I3
sS'manageable'
p959
I1
sS'cable'
p960
I10
sS'laying'
p961
I1
sS'joined'
p962
I5
sS'large'
p963
I23
sS'pesky'
p964
I1
sS'fleshbot'
p965
I2
sS'small'
p966
I36
sS'discipleship'
p967
I1
sS'quicker'
p968
I1
sS'penalties'
p969
I1
sS'seeby'
p970
I4
sS'displays'
p971
I1
sS'situated'
p972
I1
sS'telecommunication'
p973
I2
sS'franco'
p974
I2
sS'richard'
p975
I4
sS'section'
p976
I4
sS'zenbu'
p977
I3
sS'tonbspfeeddemon'
p978
I1
sS'succinct'
p979
I1
sS'seemed'
p980
I7
sS'revealing'
p981
I1
sS'infancies'
p982
I1
sS'hours'
p983
I11
sS'portrayl'
p984
I2
sS'concluding'
p985
I1
sS'november'
p986
I7
sS'backlash'
p987
I2
sS'introductory'
p988
I2
sS'compliance'
p989
I1
sS'experience'
p990
I31
sS'anthropologists'
p991
I1
sS'mouldy'
p992
I1
sS'prior'
p993
I4
sS'emulator'
p994
I1
sS'social'
p995
I62
sS'action'
p996
I12
sS"would've"
p997
I1
sS"ftc's"
p998
I2
sS'followed'
p999
I7
sS'verbose'
p1000
I2
sS'realplayer'
p1001
I7
sS'select'
p1002
I5
sS'executable'
p1003
I1
sS'portege'
p1004
I1
sS'magnification'
p1005
I1
sS'pollock'
p1006
I1
sS'archives'
p1007
I3
sS'pitching'
p1008
I1
sS'8220how'
p1009
I1
sS'preloaded'
p1010
I1
sS'initiated'
p1011
I1
sS'company'
p1012
I83
sS'tested'
p1013
I9
sS'multifunction'
p1014
I1
sS'keeping'
p1015
I4
sS'science'
p1016
I1
sS'installing'
p1017
I6
sS'autocomplete'
p1018
I1
sS"online'"
p1019
I1
sS'morgan'
p1020
I2
sS'learn'
p1021
I11
sS'ingredient'
p1022
I1
sS'changeover'
p1023
I1
sS'scramble'
p1024
I1
sS'beautiful'
p1025
I1
sS'prompt'
p1026
I1
sS'photosynthseadragon'
p1027
I1
sS'stated'
p1028
I3
sS'suggestions'
p1029
I4
sS'accept'
p1030
I2
sS'states'
p1031
I3
sS'unbiased'
p1032
I1
sS'canrsquot'
p1033
I1
sS'sense'
p1034
I17
sS'disliked'
p1035
I1
sS'dress'
p1036
I1
sS'tapestry'
p1037
I1
sS'information'
p1038
I79
sS'respective'
p1039
I2
sS'hickey'
p1040
I1
sS'imminent'
p1041
I1
sS'trixbox'
p1042
I1
sS'glowing'
p1043
I2
sS'100000'
p1044
I2
sS'3pane'
p1045
I3
sS'aplenty'
p1046
I1
sS'fastpaced'
p1047
I1
sS'plans'
p1048
I11
sS'strippeddown'
p1049
I1
sS'craftster'
p1050
I1
sS'variant'
p1051
I1
sS'soundtrack'
p1052
I1
sS'plane'
p1053
I2
sS'clicktale'
p1054
I2
sS'pleaded'
p1055
I1
sS"computer's"
p1056
I1
sS'lifecycle'
p1057
I2
sS'acquisitions'
p1058
I3
sS"'download"
p1059
I1
sS'register'
p1060
I3
sS'therenbsp'
p1061
I1
sS'broadcasting'
p1062
I2
sS'fundamental'
p1063
I1
sS'geographic'
p1064
I5
sS'replied'
p1065
I3
sS'passages'
p1066
I2
sS'trade'
p1067
I11
sS'attitude'
p1068
I4
sS'paper'
p1069
I19
sS'scott'
p1070
I1
sS'signs'
p1071
I2
sS'installer'
p1072
I2
sS'rapidly'
p1073
I4
sS'blurring'
p1074
I1
sS'nifty'
p1075
I1
sS'travelling'
p1076
I1
sS'betamax'
p1077
I1
sS'sauce'
p1078
I1
sS'focussed'
p1079
I2
sS'tinic'
p1080
I1
sS'gadget'
p1081
I4
sS'misuse'
p1082
I1
sS'harrop'
p1083
I2
sS'subtitles'
p1084
I1
sS'brokenness'
p1085
I1
sS'streetside'
p1086
I1
sS'always'
p1087
I23
sS'seinfeld'
p1088
I1
sS'todaynbsp'
p1089
I1
sS'found'
p1090
I37
sS'execs'
p1091
I1
sS'reactions'
p1092
I2
sS'revver'
p1093
I1
sS'megabytes'
p1094
I1
sS'reduce'
p1095
I7
sS'sweeper'
p1096
I3
sS'girlish'
p1097
I1
sS'investigated'
p1098
I1
sS'fookes'
p1099
I3
sS'advertisers'
p1100
I2
sS'operation'
p1101
I3
sS'22401'
p1102
I1
sS'really'
p1103
I75
sS'repressive'
p1104
I1
sS'missed'
p1105
I6
sS'blacks'
p1106
I1
sS'research'
p1107
I8
sS'misses'
p1108
I1
sS'offline'
p1109
I10
sS'netvibes'
p1110
I4
sS'26300quot'
p1111
I1
sS'salute'
p1112
I1
sS'belief'
p1113
I1
sS'drifting'
p1114
I2
sS'manch'
p1115
I2
sS'1920s'
p1116
I1
sS'sparked'
p1117
I1
sS'drives'
p1118
I6
sS'imaging'
p1119
I1
sS'imagine'
p1120
I8
sS'webdialogs'
p1121
I2
sS'director'
p1122
I11
sS'owners'
p1123
I2
sS'atampt'
p1124
I2
sS'gladwell'
p1125
I1
sS'bumper'
p1126
I1
sS'existential'
p1127
I1
sS'grossman'
p1128
I1
sS'major'
p1129
I22
sS'headlinesthe'
p1130
I1
sS'here8217s'
p1131
I1
sS'contender'
p1132
I1
sS'number'
p1133
I42
sS'preservation'
p1134
I1
sS'nbsplots'
p1135
I1
sS'differ'
p1136
I1
sS'heads'
p1137
I5
sS'leverage'
p1138
I2
sS'become'
p1139
I30
sS'introduction'
p1140
I1
sS'arlington'
p1141
I1
sS'threatening'
p1142
I1
sS'vocalist'
p1143
I1
sS'essays'
p1144
I1
sS'ilium'
p1145
I3
sS'gnash'
p1146
I1
sS'relationship'
p1147
I6
sS'interviewed'
p1148
I3
sS'immediate'
p1149
I4
sS'appreciation'
p1150
I1
sS'threaded'
p1151
I1
sS'demonstrations'
p1152
I1
sS'focusing'
p1153
I1
sS'stifle'
p1154
I1
sS'endlessly'
p1155
I1
sS'obama'
p1156
I2
sS'determines'
p1157
I1
sS'vocal'
p1158
I1
sS"head'"
p1159
I1
sS'determined'
p1160
I1
sS'marriage'
p1161
I1
sS'algol'
p1162
I1
sS'organisations'
p1163
I10
sS'graffiti'
p1164
I1
sS'ambitious'
p1165
I2
sS'updatednbsptotals'
p1166
I1
sS'wwwcomcomgovtnz'
p1167
I1
sS'macaulay'
p1168
I1
sS'quotthe'
p1169
I3
sS'torstar8217s'
p1170
I1
sS'vulnerabilities'
p1171
I1
sS'donrsquot'
p1172
I3
sS'zealandrsquos'
p1173
I5
sS'companiesnbspuse'
p1174
I1
sS'internal'
p1175
I8
sS'analogy'
p1176
I1
sS'ancillary'
p1177
I1
sS'mybloglog'
p1178
I3
sS'virus'
p1179
I3
sS'complementing'
p1180
I2
sS'understands'
p1181
I2
sS'sometimes'
p1182
I11
sS'cover'
p1183
I6
sS'microbloggingquot'
p1184
I1
sS'researchers'
p1185
I3
sS'barrel'
p1186
I1
sS'microsoft'
p1187
I114
sS'changednbspnbsp13440600'
p1188
I1
sS'dicaprio'
p1189
I1
sS'flirted'
p1190
I1
sS'session'
p1191
I2
sS'space8230'
p1192
I1
sS'overwhelmed'
p1193
I1
sS'impact'
p1194
I15
sS'intreresting'
p1195
I1
sS'writes'
p1196
I8
sS'writer'
p1197
I7
sS'failed'
p1198
I7
sS'quotmy'
p1199
I1
sS'factor'
p1200
I6
sS'columns'
p1201
I1
sS'keall'
p1202
I1
sS'synchronization'
p1203
I1
sS'preparing'
p1204
I2
sS'closely'
p1205
I5
sS'banner'
p1206
I2
sS'firms'
p1207
I1
sS'spams'
p1208
I1
sS'sleeve'
p1209
I1
sS'disregarding'
p1210
I1
sS'inbuilt'
p1211
I1
sS'banking'
p1212
I10
sS'couriers'
p1213
I1
sS'prospectus'
p1214
I1
sS'rumored'
p1215
I3
sS'insane'
p1216
I2
sS'creator'
p1217
I2
sS'heshe'
p1218
I1
sS'startup'
p1219
I7
sS'internationalization'
p1220
I1
sS'migration'
p1221
I2
sS'overboard'
p1222
I1
sS'origami'
p1223
I2
sS"'compose'"
p1224
I1
sS'analog'
p1225
I1
sS'regulator'
p1226
I2
sS'unsettling'
p1227
I1
sS'movie'
p1228
I10
sS'currently'
p1229
I35
sS'rejecting'
p1230
I1
sS'available'
p1231
I60
sS'quotthere'
p1232
I1
sS'monteithrsquos'
p1233
I1
sS'targeted'
p1234
I2
sS'javascript'
p1235
I2
sS'respondents'
p1236
I4
sS'selectively'
p1237
I1
sS'interface'
p1238
I25
sS'empowering'
p1239
I1
sS'prospects'
p1240
I1
sS'enables'
p1241
I7
sS'improved'
p1242
I1
sS'pagequot'
p1243
I1
sS'apple8217s'
p1244
I1
sS'connection'
p1245
I9
sS'objects'
p1246
I2
sS'scams'
p1247
I1
sS'whole'
p1248
I25
sS'myspaces'
p1249
I1
sS'visionaries'
p1250
I1
sS'pound8'
p1251
I1
sS'community'
p1252
I31
sS'agents'
p1253
I1
sS'church'
p1254
I3
sS'desktop'
p1255
I15
sS'worthless'
p1256
I1
sS'hogge'
p1257
I1
sS'filth'
p1258
I1
sS'publishing'
p1259
I13
sS'monthly'
p1260
I5
sS'acceptance'
p1261
I1
sS'implicit'
p1262
I23
sS'hitting'
p1263
I1
sS'initiation'
p1264
I2
sS'mindset'
p1265
I2
sS'freeview'
p1266
I15
sS'humping'
p1267
I2
sS'nbspfor'
p1268
I1
sS'8220talk'
p1269
I1
sS"what's"
p1270
I12
sS'stardoll'
p1271
I1
sS'representative'
p1272
I1
sS'insiders'
p1273
I1
sS'tweaked'
p1274
I1
sS'handling'
p1275
I2
sS'uncertain'
p1276
I1
sS'enrollment'
p1277
I1
sS'expanded'
p1278
I1
sS'budget'
p1279
I11
sS'gnutella'
p1280
I1
sS'ifonce'
p1281
I1
sS'receive'
p1282
I10
sS'optimization'
p1283
I1
sS'pressed'
p1284
I3
sS'evaluating'
p1285
I1
sS'formats'
p1286
I18
sS'huffington'
p1287
I10
sS'cages'
p1288
I1
sS'secluded'
p1289
I1
sS'hoping'
p1290
I6
sS'backing'
p1291
I3
sS'suntimes'
p1292
I1
sS'triple'
p1293
I1
sS'neutral'
p1294
I2
sS'chase'
p1295
I1
sS'emaillike'
p1296
I1
sS'funny'
p1297
I1
sS'shorted'
p1298
I1
sS'virtually'
p1299
I5
sS'flooded'
p1300
I1
sS'comprehensive'
p1301
I4
sS"stanley's"
p1302
I1
sS'leweb3'
p1303
I5
sS'alert'
p1304
I1
sS'viewing'
p1305
I1
sS'walmart'
p1306
I1
sS'gonna'
p1307
I1
sS'necessity'
p1308
I1
sS'fabrication'
p1309
I3
sS'recent'
p1310
I16
sS'kelli'
p1311
I1
sS'picks'
p1312
I4
sS'person'
p1313
I12
sS'pagetopage'
p1314
I1
sS'comprise'
p1315
I1
sS'arrests'
p1316
I1
sS'plagued'
p1317
I1
sS'adspace'
p1318
I1
sS'racers'
p1319
I1
sS'glitches'
p1320
I1
sS'relevancy'
p1321
I3
sS'readers'
p1322
I19
sS'rebecca'
p1323
I1
sS'it8217s'
p1324
I41
sS'advertisements'
p1325
I1
sS'tauranga'
p1326
I1
sS'signals'
p1327
I6
sS'snappy'
p1328
I1
sS'parents'
p1329
I3
sS'location'
p1330
I9
sS'crying'
p1331
I1
sS'relevance'
p1332
I2
sS'input'
p1333
I2
sS'submissions'
p1334
I2
sS'surprised'
p1335
I3
sS'netsafe'
p1336
I1
sS'australia'
p1337
I22
sS'emergency'
p1338
I3
sS'format'
p1339
I26
sS'blue8217s'
p1340
I1
sS'couple'
p1341
I22
sS'responsibly'
p1342
I1
sS'imovie'
p1343
I1
sS'suffering'
p1344
I1
sS'quest'
p1345
I3
sS'blackjack'
p1346
I1
sS'entrenched'
p1347
I1
sS'altsearchengines'
p1348
I8
sS'coenraets'
p1349
I3
sS'imposed'
p1350
I1
sS'interweb'
p1351
I1
sS'gaiman'
p1352
I1
sS'communications'
p1353
I7
sS'continue'
p1354
I11
sS'tribenet'
p1355
I1
sS'dad8217s'
p1356
I1
sS'collective'
p1357
I2
sS'spins'
p1358
I1
sS'names'
p1359
I7
sS'designmaker'
p1360
I1
sS'08062007'
p1361
I1
sS'bounce'
p1362
I2
sS'bouncy'
p1363
I1
sS'curious'
p1364
I1
sS'sprint'
p1365
I4
sS'amicable'
p1366
I1
sS'broadband'
p1367
I31
sS'transactions'
p1368
I3
sS"processing'"
p1369
I1
sS'thrilled'
p1370
I3
sS'behave'
p1371
I1
sS"webb's"
p1372
I1
sS'assisted'
p1373
I1
sS'vitale'
p1374
I2
sS'streetscrolling'
p1375
I2
sS'obscures'
p1376
I1
sS'agreement'
p1377
I8
sS'smiths'
p1378
I1
sS'nowhere'
p1379
I4
sS'yet8230'
p1380
I1
sS'victoria'
p1381
I2
sS'today8221'
p1382
I1
sS'anything'
p1383
I19
sS'coexist'
p1384
I1
sS'whiteboard'
p1385
I1
sS'deserves'
p1386
I1
sS'xmlquot'
p1387
I1
sS'repair'
p1388
I3
sS'computational'
p1389
I1
sS'colorado'
p1390
I1
sS'garbage'
p1391
I1
sS'fooooo'
p1392
I1
sS'verifying'
p1393
I1
sS'servers'
p1394
I8
sS'appropriate'
p1395
I1
sS'primarily'
p1396
I4
sS'ebitda'
p1397
I1
sS'interactivity'
p1398
I2
sS'criticisms'
p1399
I1
sS'contentpowered'
p1400
I1
sS'sneaky'
p1401
I1
sS'spending'
p1402
I1
sS'plotbot'
p1403
I2
sS'specifically'
p1404
I7
sS'custom'
p1405
I1
sS'downloadable'
p1406
I3
sS'opens'
p1407
I6
sS'fragmented'
p1408
I1
sS'elsewhere'
p1409
I3
sS'relaxed'
p1410
I2
sS'yourmy'
p1411
I1
sS'competition'
p1412
I11
sS'considerable'
p1413
I3
sS'posted'
p1414
I11
sS'factchecked'
p1415
I1
sS"drury's"
p1416
I1
sS'mature'
p1417
I4
sS'cruxy'
p1418
I1
sS'storing'
p1419
I2
sS'raging'
p1420
I1
sS'likewise'
p1421
I2
sS'influence'
p1422
I2
sS'starbucks'
p1423
I1
sS'globally'
p1424
I1
sS'diverse'
p1425
I3
sS'nautical'
p1426
I1
sS'defines'
p1427
I1
sS'coder'
p1428
I1
sS'codes'
p1429
I1
sS'paradox'
p1430
I1
sS'fixing'
p1431
I1
sS'edwards'
p1432
I2
sS'uranium'
p1433
I1
sS'scovell'
p1434
I1
sS'preventing'
p1435
I2
sS'points'
p1436
I4
sS'actors'
p1437
I2
sS'democrat8221'
p1438
I1
sS'outsourced'
p1439
I1
sS'elements'
p1440
I2
sS'sides'
p1441
I2
sS'tailored'
p1442
I2
sS'miles'
p1443
I1
sS'algorithm'
p1444
I5
sS'mailing'
p1445
I1
sS'geraldine'
p1446
I1
sS'afterwards'
p1447
I1
sS'summit'
p1448
I5
sS'fresh'
p1449
I2
sS'having'
p1450
I29
sS'essay'
p1451
I1
sS'partial'
p1452
I2
sS'saying'
p1453
I19
sS'melts'
p1454
I1
sS'peppercoin'
p1455
I1
sS'laziness'
p1456
I1
sS'results'
p1457
I36
sS'existing'
p1458
I11
sS'legal'
p1459
I4
sS'broader'
p1460
I1
sS"'lite'"
p1461
I1
sS'werent'
p1462
I5
sS'centers'
p1463
I1
sS'nanowrimo'
p1464
I3
sS'concerned'
p1465
I4
sS'young'
p1466
I6
sS'citing'
p1467
I1
sS'multicore'
p1468
I1
sS'dislike'
p1469
I1
sS'postings'
p1470
I2
sS'resources'
p1471
I9
sS'uploaded'
p1472
I3
sS'emaillinks'
p1473
I1
sS'street'
p1474
I24
sS'zmx7500'
p1475
I1
sS'continues'
p1476
I5
sS'languished'
p1477
I1
sS'earthraces'
p1478
I2
sS'sexist'
p1479
I1
sS'there8217s'
p1480
I6
sS'continued'
p1481
I3
sS'categories'
p1482
I2
sS'transmission'
p1483
I1
sS'experiencing'
p1484
I3
sS"they've"
p1485
I2
sS'fewer'
p1486
I2
sS'nottootechnical'
p1487
I1
sS'industrytechnology'
p1488
I1
sS'photobox'
p1489
I1
sS'mediterranean'
p1490
I3
sS'licensed'
p1491
I4
sS'recruitment'
p1492
I3
sS'video'
p1493
I87
sS'licenses'
p1494
I7
sS'thron'
p1495
I1
sS'graduating'
p1496
I1
sS'index'
p1497
I2
sS'multimedia'
p1498
I1
sS'expressed'
p1499
I1
sS'indian'
p1500
I1
sS'flowing'
p1501
I1
sS'delving'
p1502
I1
sS'equivalent'
p1503
I2
sS'proliferation'
p1504
I1
sS'gathered'
p1505
I2
sS'quotseasoned'
p1506
I1
sS'delivering'
p1507
I1
sS'8216just'
p1508
I1
sS'licence'
p1509
I1
sS'xmlbased'
p1510
I1
sS'consideration'
p1511
I1
sS'invented'
p1512
I1
sS'physiology'
p1513
I1
sS'great'
p1514
I78
sS'engage'
p1515
I4
sS'technical'
p1516
I10
sS'involved'
p1517
I19
sS'devicequot'
p1518
I1
sS'survey'
p1519
I7
sS'negative'
p1520
I1
sS'opinion'
p1521
I6
sS'residents'
p1522
I1
sS'makes'
p1523
I23
sS'maker'
p1524
I1
sS'involves'
p1525
I1
sS'thats'
p1526
I14
sS'firefox'
p1527
I24
sS'extricate'
p1528
I1
sS'outcomes'
p1529
I1
sS'weaker'
p1530
I1
sS'crosby'
p1531
I10
sS'tools'
p1532
I19
sS'standing'
p1533
I1
sS'confidence'
p1534
I1
sS'certificate'
p1535
I1
sS'ministers'
p1536
I2
sS'doubt'
p1537
I2
sS'occurred'
p1538
I4
sS'folks'
p1539
I3
sS'actuals'
p1540
I1
sS'carrying'
p1541
I3
sS'rubbish'
p1542
I2
sS'pieces'
p1543
I10
sS'netscape'
p1544
I10
sS'charity'
p1545
I2
sS'customer'
p1546
I22
sS'animals'
p1547
I2
sS'portability'
p1548
I1
sS'integrating'
p1549
I1
sS"readwriteweb's"
p1550
I1
sS'challenge'
p1551
I6
sS'clients'
p1552
I3
sS'publications'
p1553
I1
sS'friendfeed'
p1554
I3
sS'fulfill'
p1555
I1
sS'coffin'
p1556
I1
sS'mpeg1'
p1557
I1
sS'mpeg2'
p1558
I1
sS'streamed'
p1559
I2
sS'process'
p1560
I28
sS'billboards'
p1561
I1
sS'purposes'
p1562
I2
sS'promotional'
p1563
I3
sS'reynolds'
p1564
I1
sS'schemas'
p1565
I1
sS'educational'
p1566
I1
sS'clogs'
p1567
I1
sS'wares'
p1568
I1
sS'delay'
p1569
I1
sS'xero8217s'
p1570
I2
sS'establishment'
p1571
I1
sS'pales'
p1572
I1
sS'blocks'
p1573
I1
sS"'google"
p1574
I1
sS'aspiring'
p1575
I1
sS'apress'
p1576
I2
sS"dick's"
p1577
I1
sS'notebook'
p1578
I1
sS'realized'
p1579
I2
sS'discusses'
p1580
I1
sS'metabettahinformation'
p1581
I1
sS'counter'
p1582
I2
sS'robot'
p1583
I6
sS'element'
p1584
I2
sS'allow'
p1585
I20
sS'counted'
p1586
I1
sS'freeing'
p1587
I1
sS'insight'
p1588
I5
sS'doubtful'
p1589
I1
sS'produced'
p1590
I7
sS'motorcycle'
p1591
I1
sS'telstraclear'
p1592
I3
sS'kedelhallen'
p1593
I1
sS'directx'
p1594
I1
sS'perfect'
p1595
I6
sS'meantime'
p1596
I4
sS'degrees'
p1597
I1
sS'prosumerlevel'
p1598
I1
sS'hobby'
p1599
I1
sS'prosper'
p1600
I1
sS'mitigates'
p1601
I1
sS'newman'
p1602
I1
sS'salesforcecom'
p1603
I1
sS'realize'
p1604
I1
sS'mindmaps'
p1605
I1
sS'outofpocket'
p1606
I1
sS'undertaking'
p1607
I1
sS'wiresnbsp'
p1608
I1
sS"motion's"
p1609
I1
sS'truth'
p1610
I3
sS'fields'
p1611
I2
sS'rising'
p1612
I1
sS'hoodwinked'
p1613
I1
sS'traces'
p1614
I1
sS'jdlasica'
p1615
I1
sS'nz243'
p1616
I1
sS'doing'
p1617
I41
sS'society'
p1618
I8
sS'frequency'
p1619
I3
sS'thirteen'
p1620
I1
sS'nvidiarsquos'
p1621
I1
sS'blackbox'
p1622
I1
sS'shannon'
p1623
I2
sS'findaconz'
p1624
I1
sS'mafias'
p1625
I2
sS'dominated'
p1626
I1
sS'googleowned'
p1627
I1
sS'interactions'
p1628
I1
sS'regulators'
p1629
I1
sS'surely'
p1630
I3
sS'touchpoints'
p1631
I1
sS'initialize'
p1632
I1
sS'scary'
p1633
I3
sS'dubbed'
p1634
I1
sS'gallons'
p1635
I1
sS'could'
p1636
I75
sS'david'
p1637
I12
sS'length'
p1638
I3
sS'ratification'
p1639
I1
sS'assumed'
p1640
I1
sS'stimulate'
p1641
I1
sS'37signals'
p1642
I2
sS'blown'
p1643
I1
sS'touring'
p1644
I1
sS'owned'
p1645
I9
sS'jesus'
p1646
I2
sS'owner'
p1647
I5
sS'8220mafia8221'
p1648
I1
sS'sysadminday'
p1649
I1
sS"facebook's"
p1650
I1
sS'reference'
p1651
I3
sS'festival'
p1652
I3
sS'detailing'
p1653
I2
sS'system'
p1654
I42
sS'ornbspuse'
p1655
I1
sS'norton'
p1656
I1
sS'adopts'
p1657
I1
sS'pervasive'
p1658
I1
sS'adaptor'
p1659
I1
sS'shouldn8217t'
p1660
I1
sS'tim8217s'
p1661
I1
sS'won8217t'
p1662
I1
sS'x3watch'
p1663
I1
sS'haven'
p1664
I1
sS'colleagues'
p1665
I2
sS'bother'
p1666
I2
sS'reactee'
p1667
I1
sS'extraordinarily'
p1668
I1
sS'listeners'
p1669
I2
sS'briefing'
p1670
I1
sS'steep'
p1671
I1
sS'misunderstand'
p1672
I1
sS'blogosphere'
p1673
I3
sS'immersive'
p1674
I1
sS'trusting'
p1675
I1
sS'o8217halloran'
p1676
I1
sS'tonight'
p1677
I6
sS'gentle'
p1678
I1
sS'gigabyte'
p1679
I1
sS'ponders'
p1680
I1
sS'blockbuster'
p1681
I3
sS'clearly'
p1682
I4
sS'viewed'
p1683
I3
sS'documents'
p1684
I27
sS'dishes'
p1685
I2
sS'studying'
p1686
I2
sS'adjunct'
p1687
I2
sS'squawks'
p1688
I1
sS'nbspto'
p1689
I1
sS'worldwide'
p1690
I4
sS'extrastrong'
p1691
I1
sS'courtesy'
p1692
I1
sS'bioshock'
p1693
I1
sS'rollout'
p1694
I1
sS'segment'
p1695
I1
sS'addiction'
p1696
I3
sS'stronger'
p1697
I1
sS'bitpass'
p1698
I1
sS"you'll"
p1699
I10
sS"firm's"
p1700
I1
sS'painting'
p1701
I1
sS'sexualised'
p1702
I1
sS'bring'
p1703
I7
sS'lloyd'
p1704
I1
sS'bedroom'
p1705
I1
sS'interwebby'
p1706
I1
sS'trivial'
p1707
I1
sS'decade'
p1708
I2
sS'nominally'
p1709
I1
sS'pause'
p1710
I1
sS'should'
p1711
I65
sS'terminal'
p1712
I3
sS'score'
p1713
I2
sS'printers'
p1714
I7
sS'meant'
p1715
I2
sS'handle'
p1716
I2
sS'means'
p1717
I26
sS'intellectually'
p1718
I1
sS'timeframe'
p1719
I2
sS'lucky'
p1720
I2
sS'autos'
p1721
I1
sS'fraud'
p1722
I5
sS'keyboardmonitor'
p1723
I1
sS'us450'
p1724
I2
sS'spektors'
p1725
I1
sS'spammers'
p1726
I4
sS'directv'
p1727
I3
sS'grrrr'
p1728
I1
sS'disapproval'
p1729
I1
sS'scene'
p1730
I5
sS'denmark'
p1731
I1
sS'comprising'
p1732
I1
sS'stuff'
p1733
I25
sS'wholesale'
p1734
I7
sS'weeeell'
p1735
I1
sS'withstand'
p1736
I2
sS'crocheting'
p1737
I1
sS'temporarily'
p1738
I1
sS'differentials'
p1739
I1
sS'packet'
p1740
I1
sS'edition'
p1741
I7
sS'apiquot'
p1742
I1
sS'we8217ve'
p1743
I5
sS'destiny'
p1744
I1
sS'nuclear'
p1745
I2
sS'migrations'
p1746
I1
sS'wwwwsaawardsorgnz'
p1747
I1
sS'nominees'
p1748
I1
sS'youll'
p1749
I1
sS'email'
p1750
I92
sS'keynote'
p1751
I2
sS'nbspthey'
p1752
I1
sS'strides'
p1753
I1
sS'8hour'
p1754
I1
sS'figured'
p1755
I2
sS'quotservicesquot'
p1756
I1
sS'overbeke'
p1757
I1
sS'invited'
p1758
I3
sS'montfort'
p1759
I1
sS'webby'
p1760
I2
sS'ictnz'
p1761
I5
sS'darryn'
p1762
I1
sS'figures'
p1763
I2
sS'invites'
p1764
I4
sS'wellbeing8230'
p1765
I1
sS'crafter'
p1766
I1
sS'malcolm'
p1767
I3
sS'revamp'
p1768
I1
sS"gmail's"
p1769
I1
sS'labor'
p1770
I6
sS'hawkins'
p1771
I5
sS'silvio'
p1772
I1
sS'powered'
p1773
I6
sS'willing'
p1774
I4
sS'imarda'
p1775
I3
sS'utilizing'
p1776
I1
sS'waste'
p1777
I1
sS'recurring'
p1778
I1
sS'chastised'
p1779
I2
sS'realworld'
p1780
I2
sS'freshdailyca'
p1781
I2
sS'spain'
p1782
I1
sS'theyve'
p1783
I5
sS'laser'
p1784
I5
sS'meebo'
p1785
I2
sS'parrners'
p1786
I1
sS'country'
p1787
I17
sS'tasty'
p1788
I1
sS'discoveries'
p1789
I1
sS'uncertainty'
p1790
I4
sS'playgrounds'
p1791
I1
sS'designs'
p1792
I4
sS'they8217ll'
p1793
I1
sS'hardware'
p1794
I17
sS'optimistic'
p1795
I2
sS'opendocument'
p1796
I1
sS'spamsuite'
p1797
I2
sS'terrorist'
p1798
I1
sS'oldfashioned'
p1799
I1
sS'newsroom'
p1800
I1
sS'nonrelational'
p1801
I1
sS'highlighted'
p1802
I3
sS'matthew'
p1803
I1
sS'craftspeople'
p1804
I4
sS'digging'
p1805
I1
sS'nextgeneration'
p1806
I1
sS'nonprice'
p1807
I2
sS'covenant'
p1808
I1
sS'quotunlimitedquot'
p1809
I1
sS"devil's"
p1810
I1
sS'nationally'
p1811
I1
sS'expand'
p1812
I2
sS'audit'
p1813
I1
sS'functionalities'
p1814
I1
sS'acknowledgement'
p1815
I2
sS'colour'
p1816
I1
sS"isp's"
p1817
I1
sS'patterns'
p1818
I4
sS'command'
p1819
I2
sS'audio'
p1820
I9
sS'drawing'
p1821
I1
sS'newest'
p1822
I2
sS'disconnections'
p1823
I1
sS'years'
p1824
I65
sS'unplugged'
p1825
I1
sS'generous'
p1826
I2
sS'residential'
p1827
I2
sS'christianetcom'
p1828
I1
sS'combine'
p1829
I3
sS'crack'
p1830
I1
sS'increased'
p1831
I2
sS'government'
p1832
I25
sS'gsm3g'
p1833
I1
sS'increases'
p1834
I1
sS'rakon'
p1835
I1
sS'password'
p1836
I2
sS'atstng'
p1837
I1
sS'telenav'
p1838
I1
sS'finnish'
p1839
I1
sS'icons'
p1840
I1
sS'units'
p1841
I3
sS'garage'
p1842
I1
sS'flickering'
p1843
I1
sS'quotfeaturesquot'
p1844
I1
sS'replacement'
p1845
I2
sS'commsday'
p1846
I1
sS'foreseeable'
p1847
I1
sS'footage'
p1848
I2
sS'interact'
p1849
I4
sS'daylight'
p1850
I12
sS'choosing'
p1851
I1
sS'springs'
p1852
I2
sS'transport'
p1853
I2
sS'forgives'
p1854
I1
sS'disbelief'
p1855
I1
sS'literally'
p1856
I6
sS'avoid'
p1857
I8
sS'lowtech'
p1858
I1
sS'fedex'
p1859
I1
sS'passion'
p1860
I2
sS'hyperlocal'
p1861
I2
sS'leverages'
p1862
I1
sS'blurry'
p1863
I1
sS'blowing'
p1864
I1
sS'schedule'
p1865
I4
sS'routers'
p1866
I1
sS'crazyegg'
p1867
I2
sS'pressure'
p1868
I6
sS'includes'
p1869
I14
sS'stage'
p1870
I6
sS'sister'
p1871
I1
sS'lifestyle'
p1872
I1
sS'angeles'
p1873
I1
sS'whistles'
p1874
I1
sS'documentary'
p1875
I1
sS'andnbsppublishernbspnbspwith'
p1876
I1
sS'software'
p1877
I107
sS'branching'
p1878
I1
sS'letters'
p1879
I1
sS'suited'
p1880
I1
sS"youtube's"
p1881
I2
sS'catherine'
p1882
I1
sS'commitment'
p1883
I1
sS'leksi'
p1884
I1
sS'assess'
p1885
I2
sS'hubert'
p1886
I2
sS'theyd'
p1887
I2
sS'roads'
p1888
I1
sS'justifying'
p1889
I1
sS'spots'
p1890
I3
sS'frustration'
p1891
I1
sS'annette'
p1892
I1
sS'troubling'
p1893
I1
sS'naturally'
p1894
I2
sS'function'
p1895
I3
sS'maori'
p1896
I1
sS'overlapping'
p1897
I1
sS'delivery'
p1898
I5
sS'construction'
p1899
I1
sS'convergence'
p1900
I1
sS'delivers'
p1901
I2
sS'basin'
p1902
I1
sS'count'
p1903
I3
sS'places'
p1904
I6
sS'official'
p1905
I7
sS'smooth'
p1906
I3
sS'excitement'
p1907
I3
sS'harvested'
p1908
I1
sS'convince'
p1909
I4
sS'distribution'
p1910
I9
sS'informational'
p1911
I1
sS'rightly'
p1912
I2
sS'you8217ve'
p1913
I1
sS'contribute'
p1914
I1
sS'slowing'
p1915
I1
sS'replica'
p1916
I1
sS'jesse'
p1917
I1
sS'compared'
p1918
I4
sS'variety'
p1919
I5
sS'trials'
p1920
I1
sS'lately'
p1921
I2
sS'compares'
p1922
I2
sS'details'
p1923
I10
sS'predominant'
p1924
I1
sS'francisco'
p1925
I2
sS'monday'
p1926
I8
sS'footprints'
p1927
I1
sS'outlets'
p1928
I2
sS'kerrang'
p1929
I1
sS'chance'
p1930
I7
sS'multinationals'
p1931
I1
sS'exposure'
p1932
I3
sS'ghost'
p1933
I1
sS'searcher'
p1934
I1
sS'lasted'
p1935
I2
sS'compete'
p1936
I6
sS'rural'
p1937
I2
sS'gardens'
p1938
I1
sS'unspeakable'
p1939
I1
sS'rapid'
p1940
I5
sS'oldest'
p1941
I1
sS'saved'
p1942
I4
sS'relationships'
p1943
I5
sS'votes'
p1944
I19
sS'cafepresscom'
p1945
I1
sS'specialising'
p1946
I1
sS'messenger'
p1947
I4
sS'worth'
p1948
I15
sS"team's"
p1949
I2
sS'calstanford'
p1950
I1
sS'replication'
p1951
I1
sS'tagging'
p1952
I3
sS"we'll"
p1953
I8
sS'exaggerate'
p1954
I1
sS'mercury8217s'
p1955
I1
sS'upload'
p1956
I3
sS'roadblock'
p1957
I1
sS'notifying'
p1958
I2
sS'delegate'
p1959
I2
sS'reinvent'
p1960
I2
sS'pragmatic'
p1961
I1
sS'sodomites'
p1962
I2
sS'phones'
p1963
I11
sS'specs'
p1964
I1
sS'machines'
p1965
I8
sS'established'
p1966
I6
sS'settlement'
p1967
I2
sS'ludicorp'
p1968
I2
sS'petri'
p1969
I1
sS'above'
p1970
I13
sS'churches'
p1971
I4
sS'selfexplanatory'
p1972
I1
sS'officially'
p1973
I4
sS'crunch'
p1974
I1
sS'simultaneously'
p1975
I2
sS'wrapping'
p1976
I1
sS'metaphorically'
p1977
I1
sS'protection'
p1978
I1
sS'pursuit'
p1979
I1
sS"blogto's"
p1980
I1
sS'nonmarket'
p1981
I3
sS'kerryne'
p1982
I1
sS'items'
p1983
I6
sS'employees'
p1984
I4
sS'auckland'
p1985
I9
sS'itunes'
p1986
I14
sS'smoke'
p1987
I1
sS'browsing'
p1988
I12
sS'crowdrelated'
p1989
I1
sS'postponed'
p1990
I1
sS'ldquogpu'
p1991
I1
sS'secure'
p1992
I3
sS'wouldn8217t'
p1993
I1
sS'spooky'
p1994
I1
sS'highly'
p1995
I8
sS'regulatory'
p1996
I3
sS'opportunities'
p1997
I10
sS'achievable'
p1998
I1
sS'socioeconomic'
p1999
I4
sS'8220insane'
p2000
I1
sS'total'
p2001
I10
sS'sarah'
p2002
I2
sS'8220rather'
p2003
I1
sS'bundles'
p2004
I2
sS'chooses'
p2005
I2
sS'cutdown'
p2006
I1
sS'bundled'
p2007
I6
sS'sushi'
p2008
I1
sS'dismantled'
p2009
I1
sS'award'
p2010
I2
sS'aware'
p2011
I6
sS'interaction'
p2012
I3
sS'trojans'
p2013
I1
sS'ihave'
p2014
I1
sS'scribble'
p2015
I1
sS'blocking'
p2016
I2
sS'yousendit'
p2017
I1
sS'screenplays'
p2018
I1
sS'refusing'
p2019
I1
sS'sunnyo'
p2020
I1
sS'eighteen'
p2021
I1
sS'videographers'
p2022
I1
sS'already'
p2023
I52
sS"smartarse'"
p2024
I1
sS'indie'
p2025
I3
sS'india'
p2026
I3
sS'heartless'
p2027
I1
sS'woman'
p2028
I1
sS'validated'
p2029
I1
sS'millionquote'
p2030
I1
sS'recovery'
p2031
I1
sS'farce'
p2032
I1
sS'carriers'
p2033
I2
sS'provide'
p2034
I19
sS'stockroom8221'
p2035
I1
sS'moroz'
p2036
I2
sS'moron'
p2037
I1
sS'beach'
p2038
I2
sS'offshore'
p2039
I1
sS'doable'
p2040
I1
sS'centruflowrsquos'
p2041
I1
sS'coined'
p2042
I3
sS'after'
p2043
I57
sS'movable'
p2044
I3
sS'amazonowned'
p2045
I1
sS'audiomovies'
p2046
I1
sS"everyone'"
p2047
I1
sS'meaningful'
p2048
I4
sS'retail'
p2049
I9
sS'yorknew'
p2050
I1
sS'hasty'
p2051
I1
sS'ewallet'
p2052
I1
sS'appreciate'
p2053
I4
sS'anbspwindows'
p2054
I1
sS'encompassing'
p2055
I1
sS'nascent'
p2056
I1
sS'green'
p2057
I5
sS'massmedia'
p2058
I3
sS'order'
p2059
I9
sS'greed'
p2060
I2
sS'office'
p2061
I64
sS'devote'
p2062
I1
sS'consent'
p2063
I7
sS'satisfied'
p2064
I1
sS'innovative'
p2065
I10
sS'natter'
p2066
I2
sS'japan'
p2067
I2
sS'derided'
p2068
I1
sS'somewhere'
p2069
I5
sS'highlights'
p2070
I4
sS'encapsulated'
p2071
I1
sS'pricenbsp'
p2072
I1
sS'200amnbsp'
p2073
I1
sS'production'
p2074
I22
sS'understated'
p2075
I1
sS'potentially'
p2076
I7
sS'auction'
p2077
I12
sS'connectedness'
p2078
I1
sS'versus'
p2079
I1
sS'eventually'
p2080
I6
sS'coffee'
p2081
I3
sS'affected'
p2082
I6
sS'metering'
p2083
I1
sS'break'
p2084
I3
sS'penetration'
p2085
I1
sS'bread'
p2086
I1
sS'windowbased'
p2087
I1
sS'tampering'
p2088
I1
sS'reasonably'
p2089
I3
sS'schroter'
p2090
I1
sS'reasonable'
p2091
I2
sS'hurdle'
p2092
I1
sS'feeds'
p2093
I19
sS'entitled'
p2094
I3
sS'installquot'
p2095
I1
sS'lifted'
p2096
I1
sS'schemes'
p2097
I1
sS'meets'
p2098
I4
sS'councils'
p2099
I1
sS'omnidrive'
p2100
I2
sS'hosted'
p2101
I3
sS'magazine'
p2102
I8
sS'recognizable'
p2103
I1
sS'network'
p2104
I95
sS'cameras'
p2105
I7
sS'diesel'
p2106
I2
sS'strangers'
p2107
I2
sS'daniel'
p2108
I1
sS'owning'
p2109
I2
sS'medicine'
p2110
I2
sS'forth'
p2111
I5
sS'midaugust'
p2112
I1
sS'occurs'
p2113
I1
sS'meatier'
p2114
I1
sS'barrier'
p2115
I1
sS'nonip'
p2116
I1
sS'standard'
p2117
I53
sS'admits'
p2118
I1
sS'techno'
p2119
I2
sS'amadeus'
p2120
I1
sS"people's"
p2121
I1
sS'sadly'
p2122
I1
sS'certified'
p2123
I4
sS'created'
p2124
I11
sS'installs'
p2125
I2
sS'creates'
p2126
I2
sS'canterbury'
p2127
I2
sS"'bollocks"
p2128
I1
sS'organize'
p2129
I2
sS'render'
p2130
I1
sS'synonymous'
p2131
I1
sS'delicious'
p2132
I5
sS'navigator'
p2133
I4
sS'electronic'
p2134
I9
sS'illustrate'
p2135
I2
sS'modelquot'
p2136
I1
sS'djfree'
p2137
I1
sS'compromise'
p2138
I2
sS'fumble'
p2139
I1
sS'techpolitical'
p2140
I1
sS'paltry'
p2141
I1
sS'grandchildren'
p2142
I1
sS'happily'
p2143
I3
sS'revalidating'
p2144
I2
sS'enmeshed'
p2145
I1
sS'albero'
p2146
I1
sS'wasted'
p2147
I1
sS'diversifies'
p2148
I1
sS'toronto'
p2149
I3
sS'mercy'
p2150
I1
sS'fuelled'
p2151
I1
sS'target'
p2152
I3
sS'glorified'
p2153
I1
sS'scenes'
p2154
I3
sS'guilt'
p2155
I1
sS'historical'
p2156
I2
sS'hacking'
p2157
I1
sS'solely'
p2158
I2
sS'grant8217s'
p2159
I1
sS'interests'
p2160
I4
sS'youre'
p2161
I7
sS'respecting'
p2162
I1
sS'navigate'
p2163
I2
sS'attenuation'
p2164
I1
sS'executing'
p2165
I2
sS'manner'
p2166
I2
sS'overlays'
p2167
I2
sS'contents'
p2168
I1
sS'telecom8217s'
p2169
I2
sS'forced'
p2170
I1
sS'realm'
p2171
I1
sS'convenient'
p2172
I2
sS'orgainsations'
p2173
I1
sS'subjects'
p2174
I1
sS'forces'
p2175
I1
sS'transmit'
p2176
I1
sS'completed'
p2177
I3
sS'conscience'
p2178
I1
sS'acquire'
p2179
I4
sS'20068243'
p2180
I1
sS'ericssons'
p2181
I1
sS'ebook'
p2182
I1
sS'prohibitive'
p2183
I1
sS'extending'
p2184
I1
sS'involving'
p2185
I1
sS'germany'
p2186
I5
sS'cronin'
p2187
I1
sS'phase'
p2188
I5
sS'webcam'
p2189
I1
sS'alcatel'
p2190
I2
sS'fitter'
p2191
I1
sS'calculated'
p2192
I1
sS'responder'
p2193
I2
sS'368243'
p2194
I1
sS'inferred'
p2195
I2
sS'investments'
p2196
I2
sS'accounted'
p2197
I2
sS'unsophisticated'
p2198
I1
sS'voting'
p2199
I1
sS'fitted'
p2200
I1
sS'anniversary'
p2201
I2
sS'keywords'
p2202
I2
sS'protocol'
p2203
I2
sS'realvastcom'
p2204
I1
sS'enjoyed'
p2205
I5
sS'implementation'
p2206
I9
sS'guidance'
p2207
I2
sS'whosamungus'
p2208
I2
sS'summarizing'
p2209
I1
sS'indepth'
p2210
I8
sS'goffice'
p2211
I1
sS'scalable'
p2212
I1
sS'globeshooter'
p2213
I1
sS'onboard'
p2214
I1
sS'covering'
p2215
I5
sS'compse'
p2216
I1
sS'mysky'
p2217
I6
sS'chanezon'
p2218
I1
sS'implication'
p2219
I1
sS'steal'
p2220
I1
sS'secretary'
p2221
I1
sS'analytics'
p2222
I9
sS'depends'
p2223
I1
sS'damnation'
p2224
I1
sS'horrendous'
p2225
I1
sS'discussions'
p2226
I5
sS'optimum'
p2227
I1
sS'frontline'
p2228
I1
sS'techniques'
p2229
I2
sS'thelazyadmincom'
p2230
I1
sS'draws'
p2231
I2
sS'mitch'
p2232
I4
sS'sourcing'
p2233
I1
sS'ponokocom'
p2234
I1
sS'unable'
p2235
I4
sS'drawn'
p2236
I6
sS'terms'
p2237
I19
sS'handful'
p2238
I2
sS'phoneback'
p2239
I1
sS'travellers'
p2240
I1
sS'disservice'
p2241
I1
sS'separately'
p2242
I2
sS'crche'
p2243
I1
sS'kitchen'
p2244
I1
sS'received'
p2245
I12
sS'essentially'
p2246
I6
sS'steer'
p2247
I1
sS'receiver'
p2248
I3
sS'requests'
p2249
I1
sS'supplementation'
p2250
I1
sS'negotiation'
p2251
I1
sS'tough'
p2252
I3
sS'browsingquot'
p2253
I1
sS'wider'
p2254
I6
sS'refill'
p2255
I2
sS'heals'
p2256
I1
sS'telecommunications'
p2257
I22
sS'speak'
p2258
I3
sS'engines'
p2259
I30
sS'homebase'
p2260
I1
sS'revens'
p2261
I1
sS'partnership'
p2262
I3
sS'families'
p2263
I1
sS'us499'
p2264
I1
sS'concerning'
p2265
I1
sS'excite'
p2266
I1
sS'telcos'
p2267
I5
sS'applied'
p2268
I4
sS'publicly'
p2269
I2
sS'launches'
p2270
I3
sS'physicsquot'
p2271
I1
sS'formatting'
p2272
I7
sS'applies'
p2273
I1
sS'voice'
p2274
I18
sS'feedburner'
p2275
I10
sS'launched'
p2276
I18
sS'mistake'
p2277
I2
sS'beetles'
p2278
I1
sS'whaddaya'
p2279
I1
sS'dumped'
p2280
I1
sS'clipblast'
p2281
I1
sS'transponder'
p2282
I1
sS'ifyouknowmei8217llhappilyshowyouhowitworksas'
p2283
I1
sS'tissue'
p2284
I1
sS'tugged'
p2285
I1
sS"girls'"
p2286
I1
sS'stateowned'
p2287
I1
sS'confirmed'
p2288
I3
sS'patent'
p2289
I3
sS'demonstration'
p2290
I1
sS'syncs'
p2291
I4
sS'synch'
p2292
I1
sS'hardedged'
p2293
I1
sS'bunny'
p2294
I1
sS'advertising'
p2295
I14
sS'independent'
p2296
I9
sS'8216blogs8217'
p2297
I1
sS'counterparts'
p2298
I1
sS'liberties'
p2299
I1
sS'producers'
p2300
I4
sS'animations'
p2301
I1
sS'whereby'
p2302
I1
sS'scenario'
p2303
I3
sS'humble'
p2304
I3
sS'contact'
p2305
I13
sS'centres'
p2306
I3
sS'camps'
p2307
I1
sS'unified'
p2308
I2
sS'traditions'
p2309
I1
sS'equivalant'
p2310
I1
sS'photo'
p2311
I13
sS'amfphp'
p2312
I2
sS'quotes'
p2313
I4
sS'thanks'
p2314
I14
sS'sabbatical'
p2315
I1
sS'electronically'
p2316
I3
sS'bookmarked'
p2317
I1
sS'transformer'
p2318
I1
sS'unique'
p2319
I2
sS'hills'
p2320
I1
sS'photographer'
p2321
I1
sS'passive'
p2322
I2
sS'wright'
p2323
I1
sS'belongs'
p2324
I2
sS'addins'
p2325
I1
sS'requiring'
p2326
I1
sS'fares'
p2327
I4
sS'photographed'
p2328
I2
sS'usable'
p2329
I1
sS'boxed'
p2330
I1
sS'boxes'
p2331
I13
sS'designers'
p2332
I6
sS'we8217re'
p2333
I3
sS'theyre'
p2334
I6
sS'night'
p2335
I13
sS'invaluable'
p2336
I2
sS'security'
p2337
I9
sS'towards'
p2338
I9
sS"iphone's"
p2339
I1
sS'sends'
p2340
I2
sS'flatter'
p2341
I1
sS'hassle'
p2342
I1
sS'confusing'
p2343
I3
sS'denies'
p2344
I1
sS'soloway'
p2345
I10
sS'comments'
p2346
I26
sS'filming'
p2347
I2
sS'asking'
p2348
I11
sS'stockphotography'
p2349
I1
sS'ultrarealistic'
p2350
I1
sS'beating'
p2351
I2
sS'participation'
p2352
I1
sS'quotetelecom'
p2353
I1
sS'repository'
p2354
I1
sS'quotsome'
p2355
I1
sS'iskold'
p2356
I5
sS'marketing'
p2357
I17
sS'confer'
p2358
I1
sS'architectural'
p2359
I2
sS'onthe'
p2360
I1
sS'underpowered'
p2361
I1
sS'trophy'
p2362
I2
sS"where's"
p2363
I1
sS'newspapers'
p2364
I2
sS'months'
p2365
I28
sS'whomsoever8217s'
p2366
I1
sS'horizon'
p2367
I1
sS'entrant'
p2368
I2
sS'digestion'
p2369
I3
sS'rendering'
p2370
I1
sS'balanced'
p2371
I2
sS'what8217s'
p2372
I2
sS'skytv3'
p2373
I1
sS'accordo'
p2374
I2
sS'legislation'
p2375
I2
sS'fight'
p2376
I3
sS'accordingly'
p2377
I3
sS'quirks'
p2378
I1
sS'editions'
p2379
I1
sS'pragmatically'
p2380
I1
sS'sagging'
p2381
I1
sS'weldon'
p2382
I2
sS'becoming'
p2383
I11
sS'sundry'
p2384
I2
sS'freelancer'
p2385
I1
sS'hmmmmmmm'
p2386
I1
sS'encoded'
p2387
I1
sS'reset'
p2388
I1
sS'bypassing'
p2389
I1
sS'branded'
p2390
I3
sS'maximum'
p2391
I1
sS'plymouth'
p2392
I1
sS'quoteupdate'
p2393
I1
sS'promises'
p2394
I2
sS'publicprivate'
p2395
I1
sS'journalismcouk'
p2396
I1
sS'computing'
p2397
I4
sS'nudity'
p2398
I1
sS'abstract'
p2399
I1
sS'paragraphs'
p2400
I2
sS'evidence'
p2401
I2
sS'billboard'
p2402
I1
sS'engleman'
p2403
I3
sS'expertise'
p2404
I6
sS'promised'
p2405
I5
sS'distributions'
p2406
I1
sS'simplest'
p2407
I1
sS'physical'
p2408
I3
sS'massproduced'
p2409
I1
sS'lacewings'
p2410
I1
sS'stake'
p2411
I1
sS'reality'
p2412
I2
sS'interested'
p2413
I15
sS'klock'
p2414
I2
sS'bitsquot'
p2415
I1
sS'brothers'
p2416
I2
sS'sprawl'
p2417
I1
sS'128kb'
p2418
I1
sS'welcome'
p2419
I3
sS'convincing'
p2420
I1
sS'polite'
p2421
I1
sS"let's"
p2422
I11
sS'concurrent'
p2423
I2
sS'stumblevideo'
p2424
I1
sS'blogsforums'
p2425
I1
sS'virginianbsp'
p2426
I1
sS'necessitates'
p2427
I1
sS'together'
p2428
I23
sS'loyal'
p2429
I1
sS'igoogle'
p2430
I3
sS'lineup'
p2431
I1
sS'songs'
p2432
I6
sS'concept'
p2433
I7
sS'switched'
p2434
I3
sS'jumpcut'
p2435
I1
sS'baited'
p2436
I1
sS'switches'
p2437
I1
sS'supplement'
p2438
I1
sS'battle'
p2439
I1
sS"'platform'"
p2440
I1
sS'layers'
p2441
I4
sS'certainly'
p2442
I18
sS'hurry'
p2443
I2
sS'flash'
p2444
I9
sS'gbmonth'
p2445
I1
sS'chargesrdquo'
p2446
I1
sS'brown'
p2447
I4
sS'protective'
p2448
I1
sS'wcdma'
p2449
I4
sS'treadmill'
p2450
I1
sS'8220chipmunk8221'
p2451
I1
sS'seemingly'
p2452
I3
sS'liability'
p2453
I2
sS'vegas'
p2454
I3
sS'anonymous'
p2455
I1
sS'entries'
p2456
I3
sS'trouble'
p2457
I3
sS'unbundled'
p2458
I6
sS'fortnightly'
p2459
I1
sS'perceived'
p2460
I3
sS'presented'
p2461
I3
sS'turns'
p2462
I4
sS'innefective'
p2463
I1
sS'soooo'
p2464
I1
sS'sidewalk'
p2465
I3
sS'crowdsourced'
p2466
I1
sS'upper'
p2467
I1
sS'revolution'
p2468
I3
sS'discover'
p2469
I2
sS'affiliation'
p2470
I1
sS'you8217re'
p2471
I5
sS'snipers'
p2472
I1
sS'appear'
p2473
I5
sS'barbie'
p2474
I1
sS'assistance'
p2475
I4
sS"domain'"
p2476
I1
sS'shares'
p2477
I4
sS'switch'
p2478
I8
sS'multitouch'
p2479
I2
sS'sequential'
p2480
I1
sS'shared'
p2481
I7
sS'appeal'
p2482
I1
sS'satisfy'
p2483
I1
sS'supporting'
p2484
I5
sS'explosion'
p2485
I1
sS'downloaded'
p2486
I9
sS'teaches'
p2487
I1
sS'appears'
p2488
I8
sS'change'
p2489
I32
sS'sending'
p2490
I9
sS'incoming'
p2491
I2
sS'flames'
p2492
I1
sS'viewscore'
p2493
I1
sS'fidonet'
p2494
I1
sS'exiting'
p2495
I1
sS'trial'
p2496
I2
sS'domains'
p2497
I2
sS'macintosh'
p2498
I1
sS'regardless'
p2499
I4
sS'extra'
p2500
I3
sS'hoverover'
p2501
I1
sS'lending'
p2502
I3
sS'marked'
p2503
I2
sS'uphill'
p2504
I1
sS'sincerely'
p2505
I2
sS'rarely'
p2506
I4
sS'metros'
p2507
I1
sS'market'
p2508
I53
sS'announcenbspthenbspnewnbsptelecommunicationsnbspcommissioner'
p2509
I1
sS'flavors'
p2510
I1
sS'buttons'
p2511
I2
sS'prove'
p2512
I1
sS'https'
p2513
I1
sS'sayth'
p2514
I2
sS'selects'
p2515
I1
sS'obsolescence'
p2516
I1
sS'commissioner'
p2517
I2
sS'cadcam'
p2518
I1
sS'symptomatic'
p2519
I1
sS'potrayl'
p2520
I1
sS'nguyen'
p2521
I1
sS'fingered'
p2522
I3
sS'massmarketed'
p2523
I1
sS'prepay'
p2524
I1
sS'graphic'
p2525
I1
sS'slogan'
p2526
I3
sS'incidents'
p2527
I1
sS'inferior'
p2528
I1
sS'bioengineering'
p2529
I1
sS'stimulating'
p2530
I1
sS'heart'
p2531
I4
sS'dedicated'
p2532
I3
sS'recalled'
p2533
I1
sS'december'
p2534
I11
sS'subsidies'
p2535
I3
sS"didn't"
p2536
I12
sS'1980s'
p2537
I1
sS'heard'
p2538
I9
sS'hardrive'
p2539
I1
sS'anteater'
p2540
I1
sS'fronde'
p2541
I8
sS'occur'
p2542
I3
sS'productive'
p2543
I6
sS'fortunately'
p2544
I1
sS'selfinflicted'
p2545
I1
sS'discussion'
p2546
I5
sS'flourishes'
p2547
I1
sS'publicise'
p2548
I1
sS'write'
p2549
I23
sS'adobes'
p2550
I1
sS'familiar'
p2551
I2
sS'noncelebrity'
p2552
I1
sS'8216n8217'
p2553
I1
sS'economy'
p2554
I15
sS'product'
p2555
I31
sS'newsbin'
p2556
I4
sS'antimicrosoft'
p2557
I1
sS'southern'
p2558
I4
sS'produce'
p2559
I1
sS'annotation'
p2560
I1
sS'lifting'
p2561
I1
sS'remember'
p2562
I18
sS'whenever'
p2563
I5
sS'prosthetics'
p2564
I1
sS'accelerated'
p2565
I1
sS'offend'
p2566
I1
sS'typical'
p2567
I4
sS'serving'
p2568
I2
sS'neighbourhoods'
p2569
I1
sS'indeed'
p2570
I9
sS'displayed'
p2571
I3
sS'consulting'
p2572
I3
sS'spreadsheet'
p2573
I3
sS'cotter'
p2574
I1
sS'statistical'
p2575
I1
sS'whats'
p2576
I4
sS'still'
p2577
I64
sS'birds'
p2578
I1
sS'acknowledge'
p2579
I2
sS"amazon's"
p2580
I1
sS'konquerer'
p2581
I1
sS'inflicted'
p2582
I1
sS'forms'
p2583
I4
sS'window'
p2584
I3
sS'commonmicro'
p2585
I1
sS'marshall'
p2586
I3
sS'disparate'
p2587
I1
sS'introduce'
p2588
I2
sS'scaling'
p2589
I1
sS'wealthy'
p2590
I1
sS'recap'
p2591
I1
sS'provision'
p2592
I1
sS'discuss'
p2593
I4
sS'highlevel'
p2594
I1
sS'inversion'
p2595
I1
sS'james'
p2596
I5
sS'intrigued'
p2597
I1
sS'entirely'
p2598
I1
sS'domain'
p2599
I10
sS'significantly'
p2600
I3
sS'challenged'
p2601
I1
sS'directing'
p2602
I1
sS'snapshots'
p2603
I1
sS'cejas'
p2604
I1
sS'happen'
p2605
I18
sS'calling'
p2606
I10
sS'pills'
p2607
I1
sS'album'
p2608
I10
sS'shown'
p2609
I2
sS'accomplish'
p2610
I2
sS'opened'
p2611
I3
sS'space'
p2612
I21
sS'irony'
p2613
I2
sS'looking'
p2614
I34
sS'calledbegin'
p2615
I1
sS'receiving'
p2616
I8
sS'viable'
p2617
I6
sS'shows'
p2618
I10
sS'rebuilding'
p2619
I2
sS'derived'
p2620
I1
sS'sneak'
p2621
I2
sS'unwanted'
p2622
I3
sS'marina'
p2623
I1
sS'inevitable'
p2624
I1
sS'fixed'
p2625
I6
sS'transition'
p2626
I2
sS'british'
p2627
I4
sS'invitation'
p2628
I1
sS'styles'
p2629
I2
sS'promotion'
p2630
I4
sS'suffice'
p2631
I1
sS'didn8217t'
p2632
I3
sS'omitted'
p2633
I1
sS'variables'
p2634
I1
sS'yourself'
p2635
I2
sS'directly'
p2636
I10
sS'impossible'
p2637
I3
sS'message'
p2638
I15
sS'drove'
p2639
I1
sS'tomorrow'
p2640
I5
sS'whaddon'
p2641
I2
sS'sheet'
p2642
I3
sS'mendels'
p2643
I1
sS'caught'
p2644
I8
sS'breed'
p2645
I1
sS'remotely'
p2646
I1
sS'households'
p2647
I1
sS'groupunder'
p2648
I1
sS'callsnbsp'
p2649
I2
sS'friend'
p2650
I13
sS'providersthe'
p2651
I1
sS'showdown'
p2652
I1
sS'mostly'
p2653
I7
sS'hillbillies'
p2654
I1
sS'eliminated'
p2655
I1
sS'flowers'
p2656
I1
sS'appreciated'
p2657
I1
sS'professionals'
p2658
I2
sS'television'
p2659
I9
sS'rugged'
p2660
I1
sS'thumbnails'
p2661
I1
sS'optimise'
p2662
I1
sS'recruit'
p2663
I2
sS'applet'
p2664
I1
sS'apples'
p2665
I2
sS'accessed'
p2666
I1
sS'browser'
p2667
I42
sS'crain'
p2668
I3
sS'contentious'
p2669
I1
sS'enhanced'
p2670
I20
sS'investors'
p2671
I6
sS'craig'
p2672
I1
sS'dynamically'
p2673
I3
sS'premier'
p2674
I2
sS'recover'
p2675
I1
sS'computationally'
p2676
I1
sS'veteran'
p2677
I1
sS'manufacturers'
p2678
I10
sS'terrific'
p2679
I1
sS'equipment'
p2680
I4
sS'online'
p2681
I88
sS'filmforay'
p2682
I1
sS'begin'
p2683
I4
sS'cctlds'
p2684
I4
sS"'look'"
p2685
I1
sS'price'
p2686
I19
sS'screennbspnbsp'
p2687
I1
sS'newsreaders'
p2688
I1
sS'importantly'
p2689
I3
sS'rationale'
p2690
I1
sS'america'
p2691
I6
sS'forever'
p2692
I1
sS'cwmac'
p2693
I2
sS"'users"
p2694
I1
sS'implications'
p2695
I2
sS'professional'
p2696
I5
sS'duplication'
p2697
I2
sS'typically'
p2698
I2
sS'rambling'
p2699
I1
sS'german'
p2700
I1
sS'mains'
p2701
I1
sS'spyware'
p2702
I17
sS'discovered'
p2703
I5
sS'resurrecting'
p2704
I1
sS'fletcher'
p2705
I2
sS'geography'
p2706
I2
sS'upgrade'
p2707
I9
sS'title'
p2708
I2
sS'proportion'
p2709
I1
sS'essence'
p2710
I1
sS'pumpkin'
p2711
I1
sS'truly'
p2712
I2
sS'128mb'
p2713
I1
sS'honours'
p2714
I1
sS'stroll'
p2715
I1
sS'85000'
p2716
I1
sS"church's"
p2717
I1
sS'physically'
p2718
I2
sS'hefner'
p2719
I1
sS'tivolite'
p2720
I1
sS'namely'
p2721
I1
sS'actively'
p2722
I3
sS'asleep'
p2723
I1
sS'sport'
p2724
I1
sS'concern'
p2725
I4
sS'tackling'
p2726
I1
sS'franciscobased'
p2727
I1
sS'seekers'
p2728
I2
sS'colours'
p2729
I1
sS'landline'
p2730
I4
sS'between'
p2731
I33
sS'import'
p2732
I3
sS'developer'
p2733
I13
sS'notice'
p2734
I6
sS'blame'
p2735
I1
sS'invision'
p2736
I1
sS'article'
p2737
I28
sS'mutuallyexclusive'
p2738
I1
sS'daddy'
p2739
I2
sS'installation'
p2740
I4
sS'voicemail'
p2741
I2
sS'enabling'
p2742
I3
sS'embedding'
p2743
I4
sS'reluctantly'
p2744
I2
sS'prequel'
p2745
I2
sS'comes'
p2746
I26
sS'nearby'
p2747
I3
sS'8220hung'
p2748
I1
sS'overview'
p2749
I3
sS'mirroring'
p2750
I1
sS"kirkpatrick's"
p2751
I1
sS"couldn't"
p2752
I4
sS'actually'
p2753
I43
sS'season'
p2754
I3
sS'reunited'
p2755
I1
sS'cares'
p2756
I3
sS'informed'
p2757
I3
sS'discontinuing'
p2758
I1
sS'observers'
p2759
I1
sS'external'
p2760
I4
sS'countless'
p2761
I1
sS'orcons'
p2762
I1
sS'developing'
p2763
I6
sS'trick'
p2764
I1
sS'editorial'
p2765
I2
sS'celtx'
p2766
I2
sS'coolest'
p2767
I3
sS'orientation'
p2768
I1
sS'canceled'
p2769
I1
sS'evening'
p2770
I4
sS'embrace'
p2771
I4
sS'return'
p2772
I15
sS'reznor'
p2773
I1
sS'worry'
p2774
I4
sS'develop'
p2775
I6
sS'media'
p2776
I54
sS'followers'
p2777
I2
sS'streams'
p2778
I4
sS'document'
p2779
I25
sS'vandemar'
p2780
I1
sS'noble'
p2781
I1
sS'cybersafety'
p2782
I1
sS'finish'
p2783
I4
sS'closest'
p2784
I2
sS'favorites'
p2785
I3
sS'validate'
p2786
I1
sS'swallow'
p2787
I1
sS'theater'
p2788
I2
sS'charges'
p2789
I4
sS'peripherals'
p2790
I1
sS'mediasilo'
p2791
I1
sS'charged'
p2792
I4
sS'heaps'
p2793
I2
sS'dopplr'
p2794
I3
sS'wwwimmigrationgovtnz'
p2795
I1
sS'excel'
p2796
I2
sS'valuable'
p2797
I9
sS'relevant'
p2798
I11
sS'montreal8217s'
p2799
I1
sS'touch'
p2800
I14
sS'hamachi'
p2801
I2
sS'powerset'
p2802
I5
sS'death'
p2803
I2
sS'pound1'
p2804
I1
sS'provocatively'
p2805
I1
sS'euros'
p2806
I1
sS'thinking'
p2807
I12
sS'senseless'
p2808
I1
sS'improvement'
p2809
I1
sS'treatment'
p2810
I1
sS'struck'
p2811
I2
sS'momentum'
p2812
I1
sS'laundering'
p2813
I2
sS'spectacular'
p2814
I1
sS'rules'
p2815
I2
sS'calendars'
p2816
I1
sS'nonjava'
p2817
I2
sS'early'
p2818
I33
sS'pacificquot'
p2819
I1
sS'listening'
p2820
I3
sS'using'
p2821
I65
sS'execution'
p2822
I1
sS'recipient'
p2823
I1
sS'zimbra'
p2824
I3
sS'fortune'
p2825
I1
sS'heightened'
p2826
I1
sS'pounds'
p2827
I1
sS'suppliers'
p2828
I3
sS'goldstein'
p2829
I2
sS'benefit'
p2830
I8
sS'blackberry'
p2831
I6
sS'fully'
p2832
I9
sS'cisco'
p2833
I4
sS'hacks'
p2834
I2
sS'astronomer'
p2835
I1
sS'cyberporn'
p2836
I1
sS'reprap'
p2837
I1
sS'viral'
p2838
I1
sS'regina'
p2839
I1
sS'technologist'
p2840
I1
sS'recorded'
p2841
I1
sS'conservative'
p2842
I1
sS'throat'
p2843
I1
sS'circumnavigate'
p2844
I1
sS'recorder'
p2845
I2
sS'i8221'
p2846
I1
sS'assembly'
p2847
I3
sS'studentfilmmakers'
p2848
I1
sS'business'
p2849
I111
sS'sixth'
p2850
I1
sS'chefs'
p2851
I1
sS'volkswagen'
p2852
I1
sS'credits'
p2853
I1
sS'assemble'
p2854
I2
sS'exciting'
p2855
I9
sS'comparison'
p2856
I5
sS'central'
p2857
I1
sS'greatly'
p2858
I2
sS'backup'
p2859
I4
sS'processor'
p2860
I3
sS'fullsized'
p2861
I1
sS'outlook'
p2862
I9
sS'protests'
p2863
I1
sS'inclusion'
p2864
I1
sS'variable'
p2865
I2
sS'involvement'
p2866
I2
sS'operator'
p2867
I4
sS'watchdog'
p2868
I1
sS'prepare'
p2869
I1
sS'weekend'
p2870
I13
sS'sarcasminfused'
p2871
I1
sS'start'
p2872
I44
sS'stealth'
p2873
I1
sS'cropper'
p2874
I1
sS'stars'
p2875
I4
sS'billion'
p2876
I7
sS'pitches'
p2877
I1
sS'curiously'
p2878
I1
sS'trying'
p2879
I24
sS'hottest'
p2880
I2
sS'weeksnbsp'
p2881
I1
sS'8220live8221'
p2882
I1
sS'embedded'
p2883
I5
sS'default'
p2884
I7
sS'interiors'
p2885
I1
sS'spamming'
p2886
I6
sS"ericsson's"
p2887
I1
sS'sadness'
p2888
I2
sS"telco's"
p2889
I1
sS'head8221'
p2890
I1
sS'photoworthy'
p2891
I1
sS'world8221'
p2892
I1
sS'cwindowsehomebladerunnerproresources'
p2893
I1
sS'describe'
p2894
I3
sS'moved'
p2895
I5
sS'sales'
p2896
I14
sS'reliability'
p2897
I1
sS'lotnbsp'
p2898
I1
sS'moves'
p2899
I5
sS'halen'
p2900
I8
sS'storage'
p2901
I6
sS'terminating'
p2902
I1
sS'forcing'
p2903
I1
sS'shenzhen'
p2904
I1
sS'gaining'
p2905
I1
sS'suites'
p2906
I2
sS'computerized'
p2907
I1
sS'coverage'
p2908
I9
sS'building'
p2909
I27
sS'dabble'
p2910
I1
sS'couse'
p2911
I1
sS'arianna'
p2912
I2
sS'embracing'
p2913
I4
sS'deaveraged'
p2914
I1
sS'overseas'
p2915
I12
sS'eshkol'
p2916
I7
sS'strings'
p2917
I1
sS"ward's"
p2918
I1
sS'pointing'
p2919
I2
sS'groundwork'
p2920
I1
sS'graphics'
p2921
I1
sS'month'
p2922
I30
sS'thoughtful'
p2923
I1
sS'douglas'
p2924
I1
sS'messy'
p2925
I1
sS'dreadful'
p2926
I1
sS'griffin'
p2927
I5
sS'referring'
p2928
I2
sS'frontsnbsp'
p2929
I1
sS'substantively'
p2930
I1
sS'quotgatewayquot'
p2931
I1
sS'sustain'
p2932
I2
sS'savenetradio'
p2933
I2
sS'attribution'
p2934
I1
sS'horror'
p2935
I1
sS'bombarded'
p2936
I2
sS'impersonalnbsp'
p2937
I1
sS'decide'
p2938
I13
sS'common'
p2939
I7
sS'random'
p2940
I6
sS'lifesupporting'
p2941
I1
sS'topicspecific'
p2942
I1
sS'streets'
p2943
I3
sS'unheard'
p2944
I1
sS'heralds'
p2945
I1
sS'httpwwwmicrosoftcomresourcessammsiamspx'
p2946
I1
sS'headrdquo'
p2947
I1
sS'darkness'
p2948
I1
sS'consumers'
p2949
I28
sS'witnessed'
p2950
I1
sS'investing'
p2951
I3
sS'emotions'
p2952
I1
sS'certificates'
p2953
I1
sS'learned'
p2954
I1
sS'deborah'
p2955
I1
sS'maths'
p2956
I1
sS'idolblog'
p2957
I1
sS'loose'
p2958
I2
sS'answers'
p2959
I4
sS'tracks'
p2960
I2
sS'strong'
p2961
I9
sS'rathernbspthan'
p2962
I1
sS"street'"
p2963
I1
sS'symbian'
p2964
I2
sS'ahead'
p2965
I8
sS'quotsoftware'
p2966
I1
sS'inspired'
p2967
I4
sS'losses'
p2968
I1
sS'amount'
p2969
I5
sS'arent'
p2970
I2
sS'myspacestyle'
p2971
I1
sS'uniquely'
p2972
I2
sS'ilife'
p2973
I2
sS'partnering'
p2974
I2
sS'marginal'
p2975
I1
sS'fourpart'
p2976
I1
sS'nerds8221'
p2977
I1
sS'fatuous'
p2978
I1
sS'glitch'
p2979
I1
sS'analyzing'
p2980
I1
sS'aimed'
p2981
I1
sS'trained'
p2982
I2
sS'conventional'
p2983
I5
sS'takes'
p2984
I15
sS'answered'
p2985
I2
sS'revelation'
p2986
I1
sS'contains'
p2987
I4
sS'userfriendly'
p2988
I2
sS'taken'
p2989
I12
sS'chestnut'
p2990
I1
sS'erode'
p2991
I1
sS'commences'
p2992
I1
sS'propellers'
p2993
I1
sS'msnlive'
p2994
I2
sS'surprisingly'
p2995
I3
sS'nonscientific'
p2996
I1
sS'broke'
p2997
I1
sS'factories'
p2998
I1
sS'producing'
p2999
I2
sS'coalition'
p3000
I1
sS'offended'
p3001
I1
sS'budgets'
p3002
I2
sS'history'
p3003
I11
sS'boycott'
p3004
I3
sS'radiotherapy'
p3005
I1
sS'pushed'
p3006
I4
sS'species'
p3007
I3
sS'firmly'
p3008
I3
sS'processors'
p3009
I3
sS'clarke'
p3010
I1
sS'greenpeace'
p3011
I3
sS'utilize'
p3012
I1
sS'surpassed'
p3013
I1
sS'snippet'
p3014
I3
sS'wwwimmersivemediacom'
p3015
I1
sS'tried'
p3016
I25
sS'communicating'
p3017
I3
sS'powerbuilder'
p3018
I1
sS'headquartered'
p3019
I1
sS'screenwriters'
p3020
I1
sS'tries'
p3021
I2
sS'denial'
p3022
I1
sS'82203d'
p3023
I1
sS'morphing'
p3024
I1
sS'overnight'
p3025
I1
sS'anytime'
p3026
I1
sS'spectre'
p3027
I1
sS'negligible'
p3028
I1
sS'crafts'
p3029
I3
sS'banks'
p3030
I7
sS'breads'
p3031
I1
sS'dream'
p3032
I4
sS'crafty'
p3033
I1
sS'uninstall'
p3034
I1
sS'kordia'
p3035
I14
sS'earthworm'
p3036
I1
sS'annoyingly'
p3037
I1
sS'committee'
p3038
I2
sS'committed'
p3039
I1
sS'internetworld'
p3040
I1
sS'environmentally'
p3041
I1
sS'1313p1'
p3042
I1
sS'heritages'
p3043
I1
sS'fruitful'
p3044
I1
sS'systems'
p3045
I19
sS'relate'
p3046
I2
sS'founders'
p3047
I4
sS"haven't"
p3048
I8
sS'pleads'
p3049
I2
sS'motivated'
p3050
I1
sS'moaning'
p3051
I2
sS"you've"
p3052
I9
sS'traveled'
p3053
I1
sS'slicker'
p3054
I1
sS'nhlcom'
p3055
I1
sS'sundays'
p3056
I1
sS'occasions'
p3057
I1
sS'capability'
p3058
I5
sS'stopped'
p3059
I4
sS"isn't"
p3060
I20
sS'referred'
p3061
I5
sS'heavy'
p3062
I5
sS'quotgoogle'
p3063
I1
sS'restless'
p3064
I1
sS'designmagus'
p3065
I1
sS'positioned'
p3066
I1
sS'democrat'
p3067
I1
sS'beyond'
p3068
I5
sS'event'
p3069
I11
sS'dominates'
p3070
I1
sS'geekzone'
p3071
I4
sS'robert'
p3072
I4
sS'since'
p3073
I36
sS'publish'
p3074
I5
sS'prohibitively'
p3075
I1
sS'safety'
p3076
I3
sS'is8230'
p3077
I1
sS'issue'
p3078
I23
sS'chicknet'
p3079
I1
sS'gardener'
p3080
I1
sS'favored'
p3081
I1
sS'toiling'
p3082
I1
sS'unreasonablemen'
p3083
I1
sS'story'
p3084
I28
sS'interconnections'
p3085
I1
sS'darius'
p3086
I1
sS'houses'
p3087
I3
sS'reason'
p3088
I16
sS'makret'
p3089
I1
sS'algae'
p3090
I1
sS'revolutionary'
p3091
I2
sS'rifferaff'
p3092
I1
sS'launch'
p3093
I14
sS'terrible'
p3094
I1
sS'terribly'
p3095
I1
sS'american'
p3096
I3
sS'expecting'
p3097
I1
sS'syria'
p3098
I1
sS'corrupting'
p3099
I1
sS'interviews'
p3100
I3
sS'partnerships'
p3101
I2
sS'probability'
p3102
I1
sS'encoding'
p3103
I1
sS'knocking'
p3104
I1
sS'arsenal'
p3105
I1
sS'unexpected'
p3106
I2
sS'peerproduction'
p3107
I2
sS'ecommerce'
p3108
I1
sS'horse'
p3109
I1
sS'swarm'
p3110
I1
sS'subprojects'
p3111
I1
sS'station'
p3112
I1
sS'mosaic'
p3113
I1
sS'scheme'
p3114
I1
sS'schema'
p3115
I1
sS'enterprisesolutions'
p3116
I1
sS'selling'
p3117
I19
sS'passed'
p3118
I4
sS'trapped'
p3119
I1
sS'jamie'
p3120
I1
sS'jordan'
p3121
I2
sS'authors'
p3122
I3
sS'albums'
p3123
I3
sS'classifiers'
p3124
I2
sS'hundred'
p3125
I3
sS'kindly'
p3126
I2
sS"morning's"
p3127
I1
sS'searchsmbcom'
p3128
I1
sS'clicky'
p3129
I2
sS'battering'
p3130
I1
sS'toward'
p3131
I2
sS'deciding'
p3132
I2
sS'wasnt'
p3133
I6
sS'alongside'
p3134
I3
sS'substantial'
p3135
I1
sS'sentences'
p3136
I1
sS'editedcondensed'
p3137
I1
sS'googlekillers'
p3138
I2
sS'organs'
p3139
I2
sS'chaffers'
p3140
I1
sS'option'
p3141
I17
sS'httpwwwengadgetcom20070824iphoneunlockedatandtlosesiphoneexclusivityaugust242007'
p3142
I1
sS'adrift'
p3143
I1
sS'labour'
p3144
I1
sS'useless'
p3145
I3
sS'showcases'
p3146
I1
sS'pownce'
p3147
I1
sS'caliber'
p3148
I1
sS'quoti'
p3149
I1
sS'quote'
p3150
I14
sS'multilingual'
p3151
I1
sS'quota'
p3152
I2
sS'hired'
p3153
I1
sS'sponsored'
p3154
I1
sS'position'
p3155
I9
sS'alpha'
p3156
I1
sS'stross'
p3157
I1
sS'muscle'
p3158
I1
sS'mobile'
p3159
I112
sS'roadworks'
p3160
I3
sS'clear'
p3161
I12
sS'popularity'
p3162
I6
sS'unreasonable'
p3163
I1
sS'we8217ll'
p3164
I1
sS'clean'
p3165
I3
sS'latest'
p3166
I8
sS'blend'
p3167
I5
sS'stalked'
p3168
I1
sS'phenomenon'
p3169
I1
sS'aaaaand'
p3170
I1
sS'runescape'
p3171
I1
sS'celebrities'
p3172
I1
sS'hyped'
p3173
I3
sS'completion'
p3174
I1
sS'reminiscent'
p3175
I1
sS'copyright'
p3176
I2
sS'justice'
p3177
I1
sS'flights'
p3178
I2
sS'pretty'
p3179
I25
sS'circle'
p3180
I3
sS'wwwaranzcom'
p3181
I1
sS'httpwwwroadworksconz'
p3182
I1
sS'last100'
p3183
I5
sS'policing'
p3184
I1
sS'dominant'
p3185
I5
sS'708217s'
p3186
I1
sS'meanwhile'
p3187
I2
sS'numbering'
p3188
I1
sS"pilot's"
p3189
I1
sS'famous'
p3190
I4
sS'feels'
p3191
I4
sS'competing'
p3192
I5
sS'during'
p3193
I33
sS'adotube'
p3194
I1
sS'alexander'
p3195
I1
sS'serfwritten'
p3196
I1
sS'exhibiting'
p3197
I1
sS'tmobile'
p3198
I2
sS'sacrificed'
p3199
I1
sS'boost'
p3200
I3
sS'moneylaundering'
p3201
I1
sS'underlying'
p3202
I1
sS'recommendations'
p3203
I4
sS'8216multimedia8217'
p3204
I1
sS'scanning'
p3205
I3
sS'massmarket'
p3206
I1
sS'ondemand'
p3207
I2
sS'throwing'
p3208
I1
sS'300mil'
p3209
I1
sS'culture'
p3210
I9
sS'descriptions'
p3211
I1
sS'close'
p3212
I7
sS'lynched'
p3213
I1
sS'pictures'
p3214
I10
sS'tolls'
p3215
I1
sS'ifnotoryou8217reimpatientyoucangiveitatryyourself'
p3216
I1
sS'assistants'
p3217
I1
sS'conditions'
p3218
I2
sS'unconscious'
p3219
I1
sS'missing'
p3220
I2
sS'wetpaint'
p3221
I1
sS'ranked'
p3222
I1
sS'genre'
p3223
I1
sS'itnbsp'
p3224
I1
sS'league'
p3225
I4
sS'collaborators'
p3226
I1
sS'lookalike'
p3227
I1
sS"wouldn't"
p3228
I8
sS'sensitive'
p3229
I4
sS'forgotten'
p3230
I5
sS'innovating'
p3231
I2
sS"live'"
p3232
I1
sS'liked'
p3233
I5
sS'headed'
p3234
I2
sS'battery'
p3235
I10
sS'steele'
p3236
I1
sS'whatever'
p3237
I7
sS'likes'
p3238
I9
sS'linux'
p3239
I7
sS'described'
p3240
I7
sS'forseeable'
p3241
I1
sS'describes'
p3242
I1
sS'maintenance'
p3243
I3
sS'empty'
p3244
I1
sS'collectible'
p3245
I1
sS'generating'
p3246
I2
sS'lived'
p3247
I1
sS'partly'
p3248
I2
sS'packs'
p3249
I2
sS'citizen'
p3250
I3
sS'saasblogs'
p3251
I1
sS'anthony'
p3252
I1
sS'determination'
p3253
I12
sS'disruptive'
p3254
I3
sS'bidding'
p3255
I2
sS'leapfrogged'
p3256
I1
sS'dialing'
p3257
I1
sS'intriguing'
p3258
I1
sS'while'
p3259
I46
sS"'jukebox'"
p3260
I1
sS'smart'
p3261
I4
sS'fleet'
p3262
I1
sS'guide'
p3263
I7
sS'10000'
p3264
I3
sS'medicom'
p3265
I1
sS'wherever'
p3266
I4
sS'overlooked'
p3267
I1
sS'herein'
p3268
I1
sS'skype'
p3269
I8
sS'ready'
p3270
I8
sS'scaglia'
p3271
I1
sS'anymore'
p3272
I2
sS'grant'
p3273
I2
sS'webwide'
p3274
I1
sS'belong'
p3275
I1
sS'pp556'
p3276
I1
sS'checking'
p3277
I7
sS'discredit'
p3278
I1
sS'grand'
p3279
I4
sS'reselling'
p3280
I2
sS'temporary'
p3281
I1
sS'optic'
p3282
I4
sS'sandwiched'
p3283
I1
sS'nflcom'
p3284
I1
sS'chris'
p3285
I2
sS'httpmapsgoogleconz'
p3286
I1
sS'database'
p3287
I10
sS'evening8217s'
p3288
I1
sS'obviously'
p3289
I11
sS'zinwell'
p3290
I21
sS'consistency'
p3291
I1
sS'savvy'
p3292
I1
sS'shitbox'
p3293
I1
sS'yankees'
p3294
I1
sS'chore'
p3295
I1
sS'chord'
p3296
I1
sS'powering'
p3297
I2
sS'settlements'
p3298
I1
sS'reviewed'
p3299
I2
sS'startups'
p3300
I12
sS'praying'
p3301
I1
sS'guaranteed'
p3302
I2
sS'productsbe'
p3303
I1
sS'shortcut'
p3304
I2
sS'barack'
p3305
I1
sS'transformation'
p3306
I2
sS'march'
p3307
I7
sS'lacking'
p3308
I1
sS'evaluate'
p3309
I1
sS'capacities'
p3310
I1
sS'rebranding'
p3311
I1
sS'collaboratively'
p3312
I1
sS'clusty'
p3313
I1
sS'dearly'
p3314
I1
sS'royalties'
p3315
I1
sS'ponds'
p3316
I1
sS'success'
p3317
I8
sS'submission'
p3318
I2
sS'envisioned'
p3319
I2
sS'interestingly'
p3320
I5
sS'translates'
p3321
I2
sS'macbooks'
p3322
I1
sS'getlistingsbat'
p3323
I1
sS'popular'
p3324
I12
sS'terminology'
p3325
I1
sS'saddled'
p3326
I1
sS'brakes'
p3327
I1
sS'creation'
p3328
I8
sS"'people"
p3329
I3
sS'outnumber'
p3330
I2
sS'urgent'
p3331
I2
sS'trends'
p3332
I4
sS'economic'
p3333
I4
sS'fanfare'
p3334
I1
sS'delivered'
p3335
I7
sS'describing'
p3336
I1
sS'englishspeaking'
p3337
I1
sS'exceeding'
p3338
I1
sS'conditionally'
p3339
I1
sS'providence'
p3340
I1
sS'pounding'
p3341
I1
sS'httpwwwblackboxonlinecom'
p3342
I1
sS'mediaoriented'
p3343
I1
sS'minimal'
p3344
I1
sS'httpfriendfeedcommiramarmikeformatatom'
p3345
I1
sS'eating'
p3346
I1
sS'processing'
p3347
I10
sS'negatives'
p3348
I1
sS'foleo'
p3349
I19
sS'onenote'
p3350
I1
sS'fullcolour'
p3351
I1
sS'faith'
p3352
I3
sS'wouldnt'
p3353
I1
sS'osmotically'
p3354
I1
sS'simulation'
p3355
I1
sS'messaging'
p3356
I13
sS'block'
p3357
I6
sS'seeing'
p3358
I15
sS'within'
p3359
I23
sS'predictions'
p3360
I2
sS'shortfalls'
p3361
I1
sS'guangdong'
p3362
I1
sS'rolls'
p3363
I2
sS'smells'
p3364
I1
sS'scenarios'
p3365
I2
sS'statistics'
p3366
I7
sS'propel'
p3367
I1
sS'placing'
p3368
I2
sS'accountability'
p3369
I1
sS'consultation'
p3370
I1
sS'heritage'
p3371
I1
sS'marketshare'
p3372
I1
sS'himself'
p3373
I1
sS'pangolin'
p3374
I2
sS'registered'
p3375
I4
sS'regulationtelecommunicationsstandard'
p3376
I1
sS'specialty'
p3377
I1
sS'larry'
p3378
I1
sS'authority'
p3379
I3
sS'newer'
p3380
I1
sS'wersquove'
p3381
I3
sS'intuitive'
p3382
I1
sS'restarted'
p3383
I1
sS'similar'
p3384
I14
sS'noone'
p3385
I3
sS'ordered'
p3386
I3
sS'estrogen'
p3387
I1
sS'littleco'
p3388
I7
sS'flush'
p3389
I1
sS'accessibility'
p3390
I2
sS"'record'"
p3391
I1
sS'torontocom'
p3392
I1
sS'enquirer'
p3393
I1
sS'amounts'
p3394
I3
sS'application'
p3395
I16
sS'politicians'
p3396
I4
sS'electrical'
p3397
I1
sS'enquired'
p3398
I1
sS'department'
p3399
I6
sS'venerable'
p3400
I1
sS'visits'
p3401
I1
sS'xmltvxml'
p3402
I1
sS'106000'
p3403
I1
sS'validity'
p3404
I1
sS'structure'
p3405
I6
sS'independently'
p3406
I1
sS'practically'
p3407
I3
sS'outing'
p3408
I1
sS'required'
p3409
I7
sS'youtube'
p3410
I36
sS'heath'
p3411
I1
sS'depth'
p3412
I1
sS'correlates'
p3413
I1
sS'bribe'
p3414
I1
sS'ignorant'
p3415
I1
sS'underrated'
p3416
I1
sS'requires'
p3417
I9
sS'sounded'
p3418
I3
sS'aren8217t'
p3419
I3
sS'aggregating'
p3420
I1
sS'condenced'
p3421
I1
sS'proposition'
p3422
I2
sS'compact'
p3423
I2
sS'speakerphone'
p3424
I1
sS'topic'
p3425
I5
sS'suite'
p3426
I13
sS'antispam'
p3427
I1
sS'friendly'
p3428
I4
sS'barefoot8217s'
p3429
I1
sS'facebook'
p3430
I48
sS'cellular'
p3431
I2
sS'decembers'
p3432
I1
sS'telling'
p3433
I3
sS'oneday'
p3434
I1
sS'positions'
p3435
I1
sS'button'
p3436
I3
sS'michael'
p3437
I9
sS'flickered'
p3438
I1
sS'geospatial'
p3439
I1
sS'verdict'
p3440
I2
sS'deleting'
p3441
I1
sS'quoting'
p3442
I2
sS'carter'
p3443
I2
sS'hopstop'
p3444
I1
sS'servicequot'
p3445
I1
sS"stuff'"
p3446
I1
sS'picked'
p3447
I5
sS'download'
p3448
I25
sS'click'
p3449
I21
sS'plays'
p3450
I1
sS"catone's"
p3451
I1
sS'cutover'
p3452
I4
sS'webware'
p3453
I1
sS'folini'
p3454
I1
sS'experiment'
p3455
I2
sS'pipline'
p3456
I1
sS'focuses'
p3457
I5
sS'createspace'
p3458
I1
sS'blogscoped'
p3459
I1
sS'commercial'
p3460
I2
sS'following'
p3461
I22
sS'ramsey'
p3462
I1
sS'focused'
p3463
I12
sS'affidavits'
p3464
I2
sS'scalenbspsaas'
p3465
I1
sS'accredits'
p3466
I1
sS'engraving'
p3467
I2
sS'parameters'
p3468
I1
sS'somefink'
p3469
I1
sS'youtubed'
p3470
I1
sS'janus'
p3471
I2
sS'products'
p3472
I43
sS"weren't"
p3473
I5
sS'youtubes'
p3474
I1
sS'reacteecom'
p3475
I1
sS'flowchartcom'
p3476
I1
sS'fullcodepress'
p3477
I2
sS'addresses'
p3478
I2
sS'claim'
p3479
I4
sS'manage'
p3480
I10
sS'collaborating'
p3481
I1
sS'clout'
p3482
I1
sS'addressed'
p3483
I1
sS'prequels'
p3484
I1
sS'truckloads'
p3485
I1
sS'singing'
p3486
I1
sS'httppreviewlocallivecom'
p3487
I1
sS'manipulate'
p3488
I1
sS'snoop'
p3489
I2
sS'remains'
p3490
I4
sS'hudson'
p3491
I3
sS'congratulated'
p3492
I1
sS'mind42'
p3493
I1
sS'camera'
p3494
I7
sS'systems8217'
p3495
I1
sS'bureaucracy'
p3496
I1
sS'myware'
p3497
I3
sS'started'
p3498
I37
sS'becomes'
p3499
I5
sS'benchmark'
p3500
I1
sS'themquot'
p3501
I1
sS'improve'
p3502
I6
sS'disabling'
p3503
I1
sS'appointed'
p3504
I1
sS'announcing'
p3505
I3
sS'leanback'
p3506
I1
sS'irreparable'
p3507
I1
sS'servants'
p3508
I1
sS'8216fools'
p3509
I1
sS'that8217s'
p3510
I8
sS"apostolou's"
p3511
I1
sS'control'
p3512
I15
sS'links'
p3513
I10
sS'providers'
p3514
I9
sS'freeas'
p3515
I1
sS'lonelygirl15'
p3516
I1
sS'prioritise'
p3517
I1
sS'scheinman'
p3518
I2
sS'hotmail'
p3519
I2
sS'pulling'
p3520
I2
sS'documenting'
p3521
I2
sS'sought'
p3522
I1
sS'wonderful'
p3523
I2
sS'synchronise'
p3524
I5
sS'corruptions'
p3525
I1
sS'hesitate'
p3526
I2
sS'demoing'
p3527
I1
sS'arrangement'
p3528
I3
sS'located'
p3529
I2
sS'honiara'
p3530
I2
sS'quottransparentquot'
p3531
I1
sS'introduced'
p3532
I2
sS'globenbsp'
p3533
I1
sS'scoop'
p3534
I3
sS'claire'
p3535
I7
sS'crazed'
p3536
I1
sS'encyclopedia'
p3537
I2
sS'agenda'
p3538
I1
sS'bestproactive'
p3539
I1
sS'executives'
p3540
I2
sS"cuban's"
p3541
I1
sS'astronomical'
p3542
I1
sS'rendered'
p3543
I2
sS'including'
p3544
I36
sS'mentioned'
p3545
I14
sS'fifthgrade'
p3546
I1
sS'contextual'
p3547
I2
sS'documentstogo'
p3548
I1
sS'koreans'
p3549
I1
sS'wells'
p3550
I1
sS'nokia'
p3551
I5
sS'emphasised'
p3552
I1
sS'billions'
p3553
I3
sS'hands'
p3554
I7
sS'front'
p3555
I9
sS'documented'
p3556
I1
sS'handy'
p3557
I1
sS'storyboard'
p3558
I1
sS'grumbling'
p3559
I1
sS'university'
p3560
I8
sS'slide'
p3561
I1
sS'prevailing'
p3562
I2
sS'commonwealth'
p3563
I1
sS'ankles'
p3564
I1
sS'illuminate'
p3565
I1
sS'attachments'
p3566
I2
sS'chunk'
p3567
I2
sS'bluetooth'
p3568
I5
sS'microsoftgeni'
p3569
I1
sS'measure'
p3570
I4
sS'separating'
p3571
I1
sS'inverter'
p3572
I1
sS'margins'
p3573
I2
sS'special'
p3574
I9
sS'entertainment'
p3575
I5
sS'activism'
p3576
I1
sS'mrbrown'
p3577
I1
sS'reboot'
p3578
I4
sS'remiss'
p3579
I2
sS'cause'
p3580
I5
sS'hornier'
p3581
I1
sS'wwwdaestracom'
p3582
I1
sS'galaxies'
p3583
I1
sS'transfer'
p3584
I2
sS'completely'
p3585
I15
sS'langendorf'
p3586
I1
sS'advisor'
p3587
I1
sS'ispprovided'
p3588
I1
sS'chatham'
p3589
I1
sS'hubble'
p3590
I1
sS'blogto'
p3591
I8
sS'determining'
p3592
I1
sS'route'
p3593
I4
sS'languagemeaningbased'
p3594
I1
sS'quotmyspace'
p3595
I1
sS'times'
p3596
I30
sS'daestrarsquos'
p3597
I1
sS'servicesand'
p3598
I1
sS'austin'
p3599
I1
sS'housing'
p3600
I1
sS'designed'
p3601
I8
sS'excludedquot'
p3602
I1
sS'bloglinescom'
p3603
I1
sS'blogger'
p3604
I10
sS'magdalinski'
p3605
I1
sS'powerful'
p3606
I6
sS'unsupported'
p3607
I2
sS'bootcamp'
p3608
I1
sS'bitch'
p3609
I1
sS'precisely'
p3610
I1
sS'quality'
p3611
I12
sS'blogged'
p3612
I2
sS"you're"
p3613
I19
sS'playlist'
p3614
I1
sS'management'
p3615
I25
sS'privacy'
p3616
I10
sS'tinkering'
p3617
I1
sS'adopted'
p3618
I1
sS'attack'
p3619
I5
sS'widgets'
p3620
I1
sS'perfectly'
p3621
I2
sS'final'
p3622
I12
sS'configure'
p3623
I1
sS'exactly'
p3624
I12
sS'apologise'
p3625
I3
sS'lists'
p3626
I8
sS'suitability'
p3627
I1
sS'survery'
p3628
I1
sS"that'll"
p3629
I2
sS'herself'
p3630
I1
sS'updating'
p3631
I5
sS'photograph'
p3632
I1
sS'submitted'
p3633
I2
sS'providing'
p3634
I11
sS'behaviors'
p3635
I1
sS'novlet'
p3636
I5
sS'constrained'
p3637
I1
sS'border'
p3638
I1
sS'bastard'
p3639
I1
sS'telstrsclear'
p3640
I1
sS'popups'
p3641
I6
sS'80211n'
p3642
I1
sS'sandbox'
p3643
I2
sS'purchasing'
p3644
I1
sS'makeover'
p3645
I3
sS'instance'
p3646
I12
sS'issuing'
p3647
I1
sS'fuels'
p3648
I2
sS'rickerby'
p3649
I1
sS'tshirts'
p3650
I1
sS'intentions'
p3651
I2
sS'quotsmarterquot'
p3652
I1
sS'connected'
p3653
I11
sS"vast's"
p3654
I1
sS'threats'
p3655
I1
sS'gallery'
p3656
I1
sS'cellphone'
p3657
I1
sS'trademe'
p3658
I4
sS'scrambles'
p3659
I1
sS'consequences'
p3660
I2
sS'pulled'
p3661
I2
sS'upset'
p3662
I3
sS'astonishing'
p3663
I1
sS'snapshot'
p3664
I2
sS'readwriteweblast100'
p3665
I1
sS'businessman'
p3666
I1
sS'impression'
p3667
I1
sS'emerging'
p3668
I2
sS'qualms'
p3669
I1
sS'encrypted'
p3670
I1
sS'anyway'
p3671
I12
sS'farfetched'
p3672
I1
sS'partners'
p3673
I11
sS'based'
p3674
I21
sS'unfinished'
p3675
I1
sS'winner'
p3676
I3
sS'employer'
p3677
I3
sS'cdwindowsehomebladerunnerpro'
p3678
I1
sS'finalised'
p3679
I1
sS'256mb'
p3680
I1
sS'employee'
p3681
I1
sS'employed'
p3682
I3
sS'achieve'
p3683
I3
sS'dodge'
p3684
I1
sS'slows'
p3685
I2
sS'miniclip'
p3686
I2
sS'overall'
p3687
I6
sS'joint'
p3688
I1
sS'legitimate'
p3689
I1
sS'joins'
p3690
I2
sS'probably'
p3691
I26
sS'8220friends8221'
p3692
I1
sS'parlance'
p3693
I1
sS'argues'
p3694
I3
sS'dodgy'
p3695
I2
sS'endless'
p3696
I1
sS'devicenbsp'
p3697
I1
sS'processes'
p3698
I3
sS'nimbleness'
p3699
I1
sS'hiring'
p3700
I1
sS'mazenier'
p3701
I1
sS'processed'
p3702
I1
sS'contain'
p3703
I1
sS'conduct'
p3704
I4
sS'spotted'
p3705
I1
sS'prayers'
p3706
I1
sS'capitalists'
p3707
I1
sS'freeze'
p3708
I1
sS'differs'
p3709
I1
sS'officials'
p3710
I3
sS'desperate'
p3711
I1
sS'operated'
p3712
I1
sS'stats'
p3713
I6
sS'placed'
p3714
I2
sS'written'
p3715
I18
sS'correctly'
p3716
I4
sS'neither'
p3717
I4
sS'flickr'
p3718
I20
sS'tripadvisor'
p3719
I1
sS'splurge'
p3720
I2
sS'importance'
p3721
I3
sS'efficiency'
p3722
I3
sS'lifeproduction'
p3723
I1
sS'melds'
p3724
I1
sS'slimserver'
p3725
I2
sS'problem'
p3726
I32
sS'thank'
p3727
I7
sS'simplicitynbsp'
p3728
I1
sS'sniff'
p3729
I1
sS'career'
p3730
I1
sS'minutes'
p3731
I19
sS'minds'
p3732
I2
sS'admit'
p3733
I5
sS'arrington'
p3734
I1
sS'didnrsquot'
p3735
I1
sS'flocking'
p3736
I1
sS'jersey'
p3737
I5
sS'it8221'
p3738
I1
sS'tuesday'
p3739
I3
sS'livecom'
p3740
I1
sS'tread'
p3741
I1
sS'isoiec'
p3742
I6
sS'addition'
p3743
I3
sS'aligning'
p3744
I1
sS'hatton'
p3745
I1
sS'immense'
p3746
I1
sS'slowly'
p3747
I1
sS'treat'
p3748
I3
sS'senses'
p3749
I1
sS'diversity'
p3750
I3
sS'retrospective'
p3751
I1
sS'listing'
p3752
I8
sS'hamburg'
p3753
I1
sS'kicks'
p3754
I1
sS'designersnob'
p3755
I1
sS'winwin'
p3756
I2
sS'novel'
p3757
I12
sS'license'
p3758
I10
sS'harder'
p3759
I1
sS'piloting'
p3760
I1
sS'networklike'
p3761
I1
sS'wwwfrondeanywherecom'
p3762
I1
sS'surface'
p3763
I4
sS'snipeme'
p3764
I1
sS'friendsenemies'
p3765
I1
sS'nonus'
p3766
I1
sS'intarnets'
p3767
I1
sS'capture'
p3768
I5
sS'shooting'
p3769
I2
sS"telecom's"
p3770
I11
sS'generic'
p3771
I2
sS'began'
p3772
I2
sS'upside'
p3773
I1
sS'strange'
p3774
I3
sS'speaker'
p3775
I2
sS'incumbent'
p3776
I4
sS'underground'
p3777
I1
sS'party'
p3778
I6
sS'fubar'
p3779
I1
sS'unconventional'
p3780
I2
sS'absorb'
p3781
I1
sS'thingsplaces'
p3782
I1
sS'effect'
p3783
I5
sS'fierce'
p3784
I2
sS'frequently'
p3785
I1
sS'transaction'
p3786
I3
sS'standardising'
p3787
I2
sS'reflection'
p3788
I1
sS'lunch'
p3789
I6
sS'displacing'
p3790
I1
sS'scaledown'
p3791
I1
sS'updatedquot'
p3792
I1
sS'advertiser'
p3793
I1
sS'sourced'
p3794
I1
sS'increasingly'
p3795
I5
sS'mistaken'
p3796
I1
sS'sources'
p3797
I8
sS'quotbetaquot'
p3798
I1
sS'mistakes'
p3799
I3
sS'distant'
p3800
I1
sS'advertised'
p3801
I1
sS'jonothan'
p3802
I1
sS'photobucket'
p3803
I2
sS'marketsif'
p3804
I1
sS'likea'
p3805
I1
sS'logged'
p3806
I3
sS'killed'
p3807
I3
sS'blogscope'
p3808
I1
sS'308243'
p3809
I1
sS'warrant'
p3810
I2
sS'canter'
p3811
I2
sS'mainspowered'
p3812
I1
sS'telstra'
p3813
I8
sS'historic'
p3814
I2
sS'burden'
p3815
I1
sS'propeller'
p3816
I1
sS'immediately'
p3817
I7
sS'intersection'
p3818
I2
sS'prominent'
p3819
I1
sS'necessary'
p3820
I3
sS'tvnzrsquos'
p3821
I1
sS'alternatively'
p3822
I3
sS'christchurchrsquos'
p3823
I1
sS'candy'
p3824
I1
sS'sized'
p3825
I1
sS'highspeed'
p3826
I1
sS'tollfree'
p3827
I1
sS'martin'
p3828
I2
sS'100mb'
p3829
I1
sS'twitter'
p3830
I27
sS'library'
p3831
I1
sS'motive'
p3832
I1
sS'repeat'
p3833
I1
sS'deliverance'
p3834
I1
sS'peter'
p3835
I12
sS'heartache'
p3836
I1
sS'competitor'
p3837
I2
sS'riffe8217s'
p3838
I1
sS'broad'
p3839
I1
sS'cnetcom'
p3840
I1
sS'forrester'
p3841
I1
sS'rewarding'
p3842
I1
sS'moderated'
p3843
I1
sS'stories8221'
p3844
I1
sS'demonstrated'
p3845
I3
sS'hinder'
p3846
I1
sS'onetoone'
p3847
I1
sS'reaching'
p3848
I1
sS'journal'
p3849
I1
sS"adobe's"
p3850
I3
sS"mta's"
p3851
I1
sS'benkler'
p3852
I3
sS'activesync'
p3853
I2
sS'cleans'
p3854
I1
sS'revenconz'
p3855
I1
sS'recognized'
p3856
I3
sS'compatible'
p3857
I3
sS"commission's"
p3858
I1
sS'wwwtechniumcouk'
p3859
I1
sS'equally'
p3860
I1
sS'contending'
p3861
I1
sS'adopters'
p3862
I4
sS'previously'
p3863
I6
sS'washington'
p3864
I1
sS'finalizing'
p3865
I1
sS'artists'
p3866
I10
sS'botnets'
p3867
I1
sS'backups'
p3868
I1
sS'pointless'
p3869
I2
sS'utility'
p3870
I5
sS'networking'
p3871
I28
sS'additional'
p3872
I9
sS'noticed'
p3873
I2
sS'accountant'
p3874
I1
sS'inspiration'
p3875
I6
sS'recruited'
p3876
I1
sS'89622'
p3877
I1
sS'searches'
p3878
I3
sS'crushing'
p3879
I1
sS'north'
p3880
I4
sS'subjective'
p3881
I1
sS"adopter'"
p3882
I1
sS'hierarchical'
p3883
I2
sS'goals'
p3884
I3
sS'highest'
p3885
I2
sS'mindmeister'
p3886
I1
sS'cells'
p3887
I1
sS'hosting'
p3888
I2
sS'signed'
p3889
I6
sS'limit'
p3890
I5
sS'ldquohuman'
p3891
I1
sS'katherine'
p3892
I1
sS'piece'
p3893
I12
sS'display'
p3894
I5
sS'urging'
p3895
I1
sS'mechanics'
p3896
I2
sS'marketplace'
p3897
I4
sS'flixster'
p3898
I1
sS'universal'
p3899
I1
sS'kisses'
p3900
I1
sS'dialogue'
p3901
I1
sS'twist'
p3902
I1
sS'beats'
p3903
I2
sS'education'
p3904
I2
sS'diego'
p3905
I3
sS'functions'
p3906
I2
sS'rumors'
p3907
I1
sS'offensive'
p3908
I1
sS'nbacom'
p3909
I1
sS'inject'
p3910
I1
sS'futur'
p3911
I1
sS'fledgling'
p3912
I2
sS'backgroundmotion'
p3913
I4
sS'gonzalez'
p3914
I1
sS'astounding'
p3915
I1
sS'friends'
p3916
I22
sS'sjogreen'
p3917
I1
sS'nonurban'
p3918
I1
sS'samsung'
p3919
I2
sS'blogs'
p3920
I24
sS'trichogramma'
p3921
I1
sS'starsoftrsquos'
p3922
I1
sS'lives'
p3923
I11
sS"'natural"
p3924
I1
sS'validation'
p3925
I7
sS'frankfurt'
p3926
I1
sS'simpson'
p3927
I1
sS'secondly'
p3928
I3
sS'todays'
p3929
I1
sS'dynamic'
p3930
I2
sS'cherald'
p3931
I1
sS'protest'
p3932
I1
sS'asian'
p3933
I1
sS'lowcost'
p3934
I1
sS'consists'
p3935
I1
sS'captain'
p3936
I1
sS"'cloud'"
p3937
I1
sS'work8217i'
p3938
I1
sS'whose'
p3939
I4
sS'fronts'
p3940
I1
sS'buddy'
p3941
I2
sS'disability'
p3942
I1
sS'seriously'
p3943
I5
sS'sorry'
p3944
I4
sS'characterised'
p3945
I1
sS'onstage'
p3946
I1
sS'updated'
p3947
I6
sS'collaborate'
p3948
I2
sS'rescue'
p3949
I1
sS'activation'
p3950
I2
sS'connects'
p3951
I2
sS'updates'
p3952
I6
sS'affect'
p3953
I1
sS'let8217s'
p3954
I3
sS'skills'
p3955
I2
sS'companies'
p3956
I57
sS'commons'
p3957
I1
sS'thered'
p3958
I1
sS'convenience'
p3959
I4
sS'enhance'
p3960
I3
sS'heading'
p3961
I2
sS'force'
p3962
I6
sS'concise'
p3963
I2
sS'warns'
p3964
I2
sS'japanese'
p3965
I2
sS'likely'
p3966
I23
sS'streamripping'
p3967
I1
sS'ldquoadvanced'
p3968
I1
sS'qualitatively'
p3969
I2
sS'implemented'
p3970
I3
sS'colourful'
p3971
I1
sS'quotgeekquot'
p3972
I1
sS'spouses'
p3973
I1
sS'preferences'
p3974
I4
sS'quotsocial'
p3975
I1
sS'httpwwwapplecomiphone'
p3976
I1
sS'lights'
p3977
I1
sS'evolving'
p3978
I4
sS'centric'
p3979
I2
sS'nz120'
p3980
I1
sS'never'
p3981
I27
sS"may've"
p3982
I2
sS'anthropology'
p3983
I1
sS'refinement'
p3984
I1
sS'governing'
p3985
I1
sS"zenbu's"
p3986
I1
sS'active'
p3987
I3
sS'cardboard'
p3988
I1
sS'golda'
p3989
I1
sS'rests'
p3990
I1
sS'economics'
p3991
I2
sS'credit'
p3992
I4
sS'lucrative'
p3993
I2
sS'adopting'
p3994
I1
sS'suitable'
p3995
I2
sS'fantastic'
p3996
I6
sS'digitally'
p3997
I2
sS'umpcs'
p3998
I1
sS'campaign'
p3999
I3
sS'mobility'
p4000
I1
sS'elaborates'
p4001
I1
sS'visualization'
p4002
I1
sS'cctld'
p4003
I1
sS'counts'
p4004
I2
sS'landscape'
p4005
I3
sS'recommend'
p4006
I7
sS'supporters'
p4007
I1
sS'oscar'
p4008
I2
sS'8220you'
p4009
I2
sS'frenzy'
p4010
I1
sS'cunliffe'
p4011
I4
sS'rights'
p4012
I10
sS'setup'
p4013
I4
sS'gasoline'
p4014
I3
sS'whack'
p4015
I1
sS'incubator'
p4016
I1
sS'movies'
p4017
I6
sS'newfoundland'
p4018
I1
sS'headphones'
p4019
I1
sS'itnbspnbsp'
p4020
I1
sS'stressing'
p4021
I1
sS'8220customizing8221'
p4022
I1
sS'hddvd'
p4023
I10
sS'bearpaws'
p4024
I1
sS"espncom's"
p4025
I1
sS'inhumanely'
p4026
I1
sS'autonomy'
p4027
I6
sS'stills'
p4028
I1
sS'faults'
p4029
I3
sS'amazing'
p4030
I5
sS'answer'
p4031
I9
sS'faulty'
p4032
I2
sS'massive'
p4033
I12
sS'becky'
p4034
I1
sS'minority'
p4035
I2
sS'replacing'
p4036
I3
sS'manuals'
p4037
I1
sS'president'
p4038
I6
sS'lexxe'
p4039
I9
sS'purchase'
p4040
I4
sS'attempt'
p4041
I4
sS'third'
p4042
I6
sS'capitalism'
p4043
I1
sS'maintain'
p4044
I4
sS'goodbye'
p4045
I1
sS'25ghz'
p4046
I7
sS'operate'
p4047
I3
sS'operations'
p4048
I2
sS'quintura'
p4049
I1
sS'tribulations'
p4050
I1
sS'perephials'
p4051
I1
sS'inconclusive'
p4052
I1
sS'murray'
p4053
I1
sS'dared'
p4054
I1
sS'keyboard'
p4055
I20
sS'responsive'
p4056
I1
sS'before'
p4057
I41
sS'deathly'
p4058
I1
sS'personal'
p4059
I20
sS'remuneration'
p4060
I2
sS'monkeys'
p4061
I1
sS'better'
p4062
I32
sS'teamrsquos'
p4063
I1
sS'gobbled'
p4064
I1
sS'carve'
p4065
I1
sS'weeks'
p4066
I22
sS'schmidt'
p4067
I1
sS'combination'
p4068
I3
sS'videosphere'
p4069
I1
sS'mbmonth'
p4070
I1
sS'yearin'
p4071
I1
sS'singularity'
p4072
I3
sS'niches'
p4073
I1
sS'arrested'
p4074
I3
sS'motoring'
p4075
I1
sS'rebooted'
p4076
I1
sS'adobe'
p4077
I19
sS'weightless'
p4078
I1
sS'principles'
p4079
I4
sS'taught'
p4080
I1
sS'trading'
p4081
I2
sS'forgot'
p4082
I1
sS'clauses'
p4083
I1
sS'mandated'
p4084
I1
sS'networked'
p4085
I5
sS'realtime'
p4086
I11
sS'crucial'
p4087
I3
sS'monetizing'
p4088
I2
sS'content'
p4089
I64
sS'homedesktop'
p4090
I1
sS'reader'
p4091
I24
sS'revolving'
p4092
I1
sS'turning'
p4093
I2
sS'grabaseat'
p4094
I2
sS'resume'
p4095
I1
sS'hoodia'
p4096
I1
sS'struggle'
p4097
I2
sS'telescopes'
p4098
I2
sS'unblokt'
p4099
I3
sS'starts'
p4100
I3
sS'messages'
p4101
I11
sS'rakuten'
p4102
I1
sS"freddy's"
p4103
I1
sS'prefetch'
p4104
I1
sS'moving'
p4105
I11
sS'stewart'
p4106
I8
sS'chronologically'
p4107
I1
sS'features'
p4108
I41
sS'economists'
p4109
I1
sS'grade'
p4110
I1
sS'featured'
p4111
I1
sS'downside'
p4112
I2
sS'girls'
p4113
I3
sS'ezidoesit'
p4114
I1
sS'hollywood'
p4115
I2
sS'bouncing'
p4116
I1
sS'2007nbspif'
p4117
I1
sS'somewhat'
p4118
I1
sS'helen'
p4119
I2
sS'hadnt'
p4120
I1
sS'peculiar'
p4121
I1
sS'begins'
p4122
I1
sS'distance'
p4123
I1
sS'keyword'
p4124
I1
sS'princeton'
p4125
I1
sS'legalize'
p4126
I2
sS'enabled'
p4127
I2
sS'matter'
p4128
I6
sS'solomon'
p4129
I3
sS"browsing'"
p4130
I1
sS'silly'
p4131
I2
sS'evaporated'
p4132
I1
sS'cheek'
p4133
I1
sS'modern'
p4134
I4
sS'sounding'
p4135
I2
sS'tells'
p4136
I1
sS'expeditions'
p4137
I1
sS'8220the'
p4138
I4
sS"'spent'"
p4139
I1
sS'babelgum'
p4140
I5
sS'heaney'
p4141
I1
sS'overplayed'
p4142
I1
sS'regular'
p4143
I11
sS'subtotal'
p4144
I1
sS'zealand'
p4145
I122
sS'assisting'
p4146
I1
sS'nighttime'
p4147
I1
sS'competitors'
p4148
I6
sS'definitely'
p4149
I6
sS'consumer'
p4150
I14
sS'annoyed'
p4151
I2
sS'urgency'
p4152
I1
sS'quotnext'
p4153
I1
sS'lyrics'
p4154
I1
sS'rapture'
p4155
I1
sS'visitor'
p4156
I5
sS'implodes'
p4157
I1
sS'syntax'
p4158
I2
sS'attempts'
p4159
I5
sS'liberty'
p4160
I1
sS'judges'
p4161
I2
sS'resisting'
p4162
I1
sS'explain'
p4163
I7
sS'sugar'
p4164
I2
sS'integrate'
p4165
I5
sS'folder'
p4166
I3
sS'disconnecting'
p4167
I1
sS'refillseven'
p4168
I1
sS'exports'
p4169
I1
sS'colorful'
p4170
I2
sS'consumables'
p4171
I1
sS'coast'
p4172
I3
sS'selbyadams'
p4173
I1
sS'8220reaction8221'
p4174
I1
sS'cofounded'
p4175
I1
sS'discs'
p4176
I1
sS'architecture'
p4177
I4
sS'cofounder'
p4178
I6
sS'flagged'
p4179
I1
sS'attest'
p4180
I1
sS'julien'
p4181
I1
sS'fascinating'
p4182
I2
sS'testing'
p4183
I4
sS'zones'
p4184
I1
sS'decided'
p4185
I16
sS'incorporating'
p4186
I1
sS'subject'
p4187
I5
sS'brazil'
p4188
I2
sS'voyage'
p4189
I1
sS'dialup'
p4190
I4
sS'olympics'
p4191
I3
sS'pampl'
p4192
I1
sS'sorts'
p4193
I5
sS'shaver'
p4194
I1
sS'everchanging'
p4195
I1
sS'stakeholder'
p4196
I2
sS'bunkum'
p4197
I1
sS'upfront'
p4198
I1
sS'cousin'
p4199
I1
sS'picking'
p4200
I1
sS'suggested'
p4201
I7
sS'bangkok'
p4202
I1
sS'nbspand'
p4203
I3
sS'against'
p4204
I14
sS'saidquot'
p4205
I1
sS'rollyourown'
p4206
I1
sS'orcon'
p4207
I27
sS'lowvolume'
p4208
I1
sS'distinction'
p4209
I1
sS'contribution'
p4210
I1
sS'presumably'
p4211
I1
sS'appeared'
p4212
I2
sS"benkler's"
p4213
I2
sS'cobble'
p4214
I1
sS'modems'
p4215
I3
sS'offerings'
p4216
I3
sS'initiative'
p4217
I2
sS'throats'
p4218
I1
sS'loaded'
p4219
I1
sS"feeds'"
p4220
I1
sS"boys'"
p4221
I1
sS"harrop's"
p4222
I1
sS'targeting'
p4223
I1
sS'basis'
p4224
I8
sS'allencompassing'
p4225
I1
sS'three'
p4226
I21
sS'censusatschoolorgnz'
p4227
I2
sS'commission'
p4228
I8
sS'recognised'
p4229
I1
sS'replicate'
p4230
I3
sS'interest'
p4231
I11
sS'basic'
p4232
I18
sS'entered'
p4233
I2
sS'lovely'
p4234
I2
sS'bubblus'
p4235
I1
sS'website'
p4236
I45
sS'deeper'
p4237
I1
sS'locations'
p4238
I6
sS'buyin'
p4239
I1
sS'tapping'
p4240
I1
sS'personally'
p4241
I3
sS'quotbalancingquot'
p4242
I1
sS'bt8217s'
p4243
I1
sS'exception'
p4244
I3
sS'demoed'
p4245
I1
sS'originate'
p4246
I1
sS"bbs'ing"
p4247
I1
sS'study'
p4248
I8
sS'planetarium'
p4249
I1
sS'seven'
p4250
I8
sS'metropolitan'
p4251
I1
sS'diaphragm'
p4252
I1
sS'wwwvcommscom'
p4253
I1
sS'customers'
p4254
I46
sS'shame'
p4255
I3
sS'seattle'
p4256
I1
sS'mouse'
p4257
I5
sS'grown'
p4258
I1
sS'debuted'
p4259
I1
sS'roland'
p4260
I1
sS'unfortunate'
p4261
I1
sS'filtered'
p4262
I1
sS'grows'
p4263
I3
sS'zenter'
p4264
I1
sS'bells'
p4265
I1
sS'evolve'
p4266
I2
sS'declaring'
p4267
I1
sS'stressed'
p4268
I1
sS'differing'
p4269
I1
sS'bloomberg'
p4270
I4
sS'opportunity'
p4271
I16
sS'wwwnextwindowcom'
p4272
I1
sS'thoughts'
p4273
I8
sS'emissary'
p4274
I1
sS'programs'
p4275
I7
sS'changes'
p4276
I18
sS'failing'
p4277
I3
sS'practices'
p4278
I3
sS'claims'
p4279
I5
sS'paradigm'
p4280
I1
sS'yours'
p4281
I2
sS'etiquette'
p4282
I1
sS'facto'
p4283
I3
sS'sentence'
p4284
I3
sS'sporting'
p4285
I1
sS'kinks'
p4286
I1
sS'assigned'
p4287
I1
sS'bandwidth'
p4288
I2
sS'identify'
p4289
I3
sS'human'
p4290
I7
sS'facts'
p4291
I4
sS'impending'
p4292
I1
sS'candidate'
p4293
I3
sS'legion'
p4294
I2
sS'tagline'
p4295
I1
sS'defrag'
p4296
I1
sS'character'
p4297
I1
sS'converged'
p4298
I2
sS'whichever'
p4299
I1
sS'discreet'
p4300
I2
sS'background'
p4301
I4
sS'borderless'
p4302
I1
sS'clickable'
p4303
I1
sS'shoulder'
p4304
I2
sS'manual'
p4305
I1
sS"barracuda's"
p4306
I2
sS'signal'
p4307
I5
sS'easytouse'
p4308
I1
sS'interp'
p4309
I1
sS'somehow'
p4310
I2
sS'winsnbsp'
p4311
I1
sS'statistic'
p4312
I1
sS'tripped'
p4313
I1
sS'ignore'
p4314
I3
sS'sniperquot'
p4315
I1
sS'notification'
p4316
I1
sS'daytime'
p4317
I2
sS'shakespeare'
p4318
I1
sS'subscriptions'
p4319
I6
sS'promos'
p4320
I1
sS'wrapup'
p4321
I2
sS'super'
p4322
I1
sS'12456'
p4323
I1
sS'yelling'
p4324
I1
sS"'social"
p4325
I4
sS'cliche'
p4326
I1
sS'afternoon'
p4327
I4
sS'islands'
p4328
I5
sS'automatically'
p4329
I19
sS'nerve'
p4330
I1
sS'managers'
p4331
I2
sS'formerly'
p4332
I2
sS'intellectual'
p4333
I4
sS"world's"
p4334
I1
sS"society's"
p4335
I1
sS'cardiff'
p4336
I1
sS'1990s'
p4337
I2
sS'refined'
p4338
I1
sS'initial'
p4339
I2
sS'appletv'
p4340
I4
sS'editor'
p4341
I9
sS'093625885'
p4342
I1
sS'traceroute'
p4343
I1
sS'offering'
p4344
I10
sS'chipin'
p4345
I1
sS'endtoend'
p4346
I1
sS'analyse'
p4347
I1
sS'cuban'
p4348
I5
sS'landing'
p4349
I2
sS'controllwindows'
p4350
I1
sS'failure'
p4351
I4
sS'analyst'
p4352
I2
sS'pavilion'
p4353
I2
sS'nonblog'
p4354
I1
sS'understood'
p4355
I3
sS'attached'
p4356
I9
sS'inane'
p4357
I1
sS'benchmarks'
p4358
I1
sS'stages'
p4359
I3
sS'crosslinker'
p4360
I1
sS'delete'
p4361
I1
sS'sticks'
p4362
I1
sS'classic'
p4363
I2
sS'covers'
p4364
I5
sS'sticky'
p4365
I1
sS'can8217t'
p4366
I5
sS'fashioned'
p4367
I1
sS'floating'
p4368
I2
sS'vista'
p4369
I21
sS'aunts'
p4370
I1
sS'alerts'
p4371
I2
sS'generally'
p4372
I7
sS'handed'
p4373
I1
sS'digital'
p4374
I38
sS'warehouse'
p4375
I1
sS'quotthis'
p4376
I1
sS'renderingrdquo'
p4377
I1
sS'utilities'
p4378
I1
sS'trepidation'
p4379
I1
sS'journey'
p4380
I8
sS'authorities'
p4381
I1
sS'bloggers8221'
p4382
I1
sS'micropayments'
p4383
I6
sS'unlocking'
p4384
I1
sS'jones'
p4385
I1
sS'happening'
p4386
I8
sS'apology'
p4387
I1
sS'assume'
p4388
I3
sS'togetherquot'
p4389
I1
sS'daily'
p4390
I3
sS'stripping'
p4391
I1
sS'teeth'
p4392
I1
sS'pellett'
p4393
I1
sS'restored'
p4394
I1
sS'overdue'
p4395
I1
sS'enquisite'
p4396
I2
sS'managed'
p4397
I11
sS'themed'
p4398
I1
sS'peruse'
p4399
I1
sS'primed'
p4400
I1
sS'invent'
p4401
I1
sS'themes'
p4402
I1
sS'manager'
p4403
I8
sS'manages'
p4404
I2
sS'mafia'
p4405
I2
sS'commentaries'
p4406
I1
sS'retention'
p4407
I1
sS'fixedline'
p4408
I1
sS'microblogging'
p4409
I3
sS'summarises'
p4410
I1
sS'striving'
p4411
I1
sS'technique'
p4412
I1
sS'father'
p4413
I3
sS'editors'
p4414
I5
sS'130mb'
p4415
I1
sS'amaze'
p4416
I1
sS'finally'
p4417
I15
sS'conversionnbspthis'
p4418
I1
sS'marks'
p4419
I1
sS'advises'
p4420
I1
sS'smartphone'
p4421
I10
sS'billionaire'
p4422
I1
sS'innovation'
p4423
I9
sS'crowdsource'
p4424
I1
sS'governments'
p4425
I4
sS'divorced'
p4426
I1
sS'cleaners'
p4427
I1
sS'win2k'
p4428
I1
sS'proposals'
p4429
I1
sS'accidentally'
p4430
I2
sS'keepers'
p4431
I1
sS'yesterday8217s'
p4432
I1
sS'round'
p4433
I5
sS"it'll"
p4434
I2
sS'talked'
p4435
I6
sS'dealing'
p4436
I4
sS'literature'
p4437
I3
sS'hobbyist'
p4438
I1
sS'theregister'
p4439
I2
sS'httplivemobilecom'
p4440
I1
sS'httpblogsvobodaconz'
p4441
I1
sS'entertained'
p4442
I1
sS'favour'
p4443
I3
sS'suspect'
p4444
I5
sS'international'
p4445
I28
sS'fashionistas'
p4446
I1
sS'filled'
p4447
I2
sS'transportation'
p4448
I3
sS'bandwagon'
p4449
I1
sS'guardian'
p4450
I2
sS'french'
p4451
I1
sS'corporation'
p4452
I4
sS'toconventional'
p4453
I1
sS'shift'
p4454
I5
sS'jungles'
p4455
I1
sS'endth'
p4456
I1
sS'exemplifies'
p4457
I1
sS'suggestion'
p4458
I2
sS'redundancies'
p4459
I1
sS'useful'
p4460
I17
sS'statewide'
p4461
I1
sS'merely'
p4462
I3
sS'licensing'
p4463
I6
sS'hotels'
p4464
I1
sS'everybody'
p4465
I1
sS'wealth'
p4466
I3
sS'haven8217t'
p4467
I6
sS'visit'
p4468
I9
sS'france'
p4469
I3
sS'connector'
p4470
I1
sS'to8230'
p4471
I1
sS'sharpen'
p4472
I1
sS'checkout'
p4473
I1
sS'sharing'
p4474
I16
sS'acceptable'
p4475
I1
sS'tandem'
p4476
I1
sS'adverts'
p4477
I1
sS'effort'
p4478
I7
sS'walled'
p4479
I1
sS'nbspall'
p4480
I1
sS'tokyo'
p4481
I1
sS'avoiding'
p4482
I1
sS'yearnbsp'
p4483
I1
sS'subsectors'
p4484
I1
sS'reviews'
p4485
I5
sS'growing'
p4486
I10
sS'making'
p4487
I34
sS'arrive'
p4488
I2
sS'nearest'
p4489
I1
sS'crazy'
p4490
I2
sS'unbundling'
p4491
I8
sS'8220individualization8221'
p4492
I1
sS'predict'
p4493
I2
sS'agent'
p4494
I1
sS'sample'
p4495
I2
sS'nonaggressive'
p4496
I1
sS'council'
p4497
I6
sS'spanning'
p4498
I1
sS'dennis'
p4499
I1
sS'craze'
p4500
I1
sS'subconsciously'
p4501
I2
sS'burgeoning'
p4502
I1
sS'thinsight'
p4503
I2
sS'sunday'
p4504
I10
sS'skater'
p4505
I1
sS'inputs'
p4506
I1
sS'staying'
p4507
I4
sS'designer'
p4508
I7
sS'futuristiclooking'
p4509
I1
sS'sustainability'
p4510
I2
sS'membership'
p4511
I1
sS'lucass'
p4512
I1
sS'hannover'
p4513
I2
sS'outline'
p4514
I4
sS'maybe'
p4515
I27
sS'personalizable'
p4516
I1
sS'fluent'
p4517
I2
sS'savenaca'
p4518
I1
sS'burmese'
p4519
I1
sS'african'
p4520
I1
sS'basket'
p4521
I1
sS'quotmoviestarquot'
p4522
I1
sS'nearly'
p4523
I6
sS'shoes'
p4524
I2
sS'distributors'
p4525
I1
sS'geekzonemailcom'
p4526
I1
sS'pointed'
p4527
I6
sS'spreadsheets'
p4528
I6
sS'entity'
p4529
I1
sS"view'"
p4530
I1
sS'recoup'
p4531
I2
sS'pitch'
p4532
I1
sS'argued'
p4533
I1
sS'quothardware'
p4534
I1
sS'group'
p4535
I25
sS'monitor'
p4536
I5
sS'interesting'
p4537
I54
sS'thinkingif'
p4538
I1
sS'policy'
p4539
I3
sS'ndash'
p4540
I5
sS'uptake'
p4541
I2
sS'texas'
p4542
I1
sS'tonic'
p4543
I1
sS'emailed'
p4544
I2
sS'finance'
p4545
I3
sS'laserjet'
p4546
I1
sS'views'
p4547
I8
sS'sooner'
p4548
I1
sS'boats'
p4549
I1
sS'touching'
p4550
I1
sS'safari'
p4551
I32
sS"kids'"
p4552
I1
sS'discoloured'
p4553
I2
sS'lsquothe'
p4554
I1
sS'developments'
p4555
I1
sS'directories'
p4556
I1
sS'artist'
p4557
I3
sS'engadget'
p4558
I1
sS'conventions'
p4559
I1
sS'unlock'
p4560
I2
sS'manifesto'
p4561
I1
sS'gerorge'
p4562
I1
sS'aloof'
p4563
I1
sS'morning'
p4564
I14
sS'canada'
p4565
I4
sS'living'
p4566
I8
sS'twolane'
p4567
I1
sS'gonzales'
p4568
I1
sS'multiplayer'
p4569
I1
sS'interference'
p4570
I3
sS'transforming'
p4571
I1
sS'nominal'
p4572
I1
sS'alison'
p4573
I2
sS'emerged'
p4574
I2
sS'hitech'
p4575
I1
sS'tidbits'
p4576
I1
sS'dominate'
p4577
I1
sS'sensor'
p4578
I1
sS'correct'
p4579
I4
sS'assurance'
p4580
I1
sS'earlier'
p4581
I9
sS'delicacy'
p4582
I1
sS'california'
p4583
I2
sS'cough'
p4584
I1
sS'keith'
p4585
I3
sS'digicash'
p4586
I1
sS'advance'
p4587
I4
sS'language'
p4588
I12
sS'ministry'
p4589
I2
sS'listings'
p4590
I3
sS'softwareasaservice'
p4591
I2
sS'thing'
p4592
I43
sS'think'
p4593
I82
sS'first'
p4594
I71
sS'bladerunner'
p4595
I1
sS'rachel'
p4596
I3
sS'restart'
p4597
I1
sS'suspended'
p4598
I1
sS'carry'
p4599
I6
sS'sounds'
p4600
I11
sS'cheesy'
p4601
I1
sS'little'
p4602
I42
sS'craftzine'
p4603
I1
sS'anyone'
p4604
I24
sS'participated'
p4605
I2
sS'speaking'
p4606
I8
sS'continuous'
p4607
I1
sS'httpmapsgooglecomhelpmapsstreetview'
p4608
I1
sS'broadcast'
p4609
I4
sS'smartcost'
p4610
I1
sS'undoubtedly'
p4611
I3
sS"here's"
p4612
I12
sS'thisnbspyear'
p4613
I1
sS'sailing'
p4614
I1
sS'protected'
p4615
I2
sS'venture'
p4616
I6
sS'tractor'
p4617
I1
sS'melodic'
p4618
I1
sS'topics'
p4619
I2
sS"customers'"
p4620
I1
sS'voices'
p4621
I1
sS'speakers'
p4622
I4
sS'efficient'
p4623
I3
sS'southeast'
p4624
I1
sS'upgrading'
p4625
I1
sS'consortium'
p4626
I1
sS'endangered'
p4627
I3
sS'potential'
p4628
I17
sS'bailey'
p4629
I1
sS'performance'
p4630
I3
sS'personalized'
p4631
I3
sS'collapsed'
p4632
I1
sS'channel'
p4633
I5
sS'jungle'
p4634
I1
sS'formulas'
p4635
I1
sS'norman'
p4636
I2
sS'trace'
p4637
I2
sS'normal'
p4638
I1
sS'track'
p4639
I15
sS'incidence'
p4640
I1
sS'quotblank'
p4641
I1
sS'complaints'
p4642
I2
sS'queens'
p4643
I1
sS'colocation'
p4644
I1
sS"sprint's"
p4645
I1
sS'viewable'
p4646
I1
sS'censusatschool'
p4647
I6
sS'especially'
p4648
I12
sS'surprising'
p4649
I3
sS'triggering'
p4650
I1
sS'jumped'
p4651
I1
sS'precise'
p4652
I1
sS'rating'
p4653
I2
sS'callplus'
p4654
I9
sS"wellington's"
p4655
I1
sS'sites'
p4656
I50
sS'corner'
p4657
I1
sS'enthusiast'
p4658
I1
sS'comapping'
p4659
I1
sS'behind'
p4660
I16
sS'black'
p4661
I2
sS'siggraph'
p4662
I1
sS'enthusiasm'
p4663
I1
sS'ajaxpowered'
p4664
I1
sS'awareness'
p4665
I3
sS'schobleizer'
p4666
I1
sS'ranking'
p4667
I5
sS'contracts'
p4668
I1
sS'biodiesel'
p4669
I14
sS'marlborough'
p4670
I1
sS'designated'
p4671
I2
sS'framing'
p4672
I1
sS'secondary'
p4673
I2
sS'keyboards'
p4674
I1
sS'tomorrow8221'
p4675
I1
sS'malaysian'
p4676
I1
sS'summary'
p4677
I8
sS'stupid'
p4678
I2
sS'worrying'
p4679
I2
sS'declared'
p4680
I2
sS'honesty'
p4681
I1
sS'8220risk8221'
p4682
I1
sS'blogquot'
p4683
I1
sS'relative'
p4684
I2
sS'eliminating'
p4685
I2
sS'calendar'
p4686
I10
sS'wonder'
p4687
I6
sS'opentotheworld'
p4688
I1
sS'myspacecom'
p4689
I1
sS'label'
p4690
I7
sS'enough'
p4691
I29
sS'reading'
p4692
I21
sS'across'
p4693
I30
sS'mashedup'
p4694
I1
sS'affordable'
p4695
I1
sS'infrastructure'
p4696
I10
sS'august'
p4697
I5
sS'parent'
p4698
I1
sS'betwen'
p4699
I1
sS'tacit'
p4700
I1
sS"'filtered'"
p4701
I1
sS'motivations'
p4702
I2
sS'dates'
p4703
I2
sS'rugby'
p4704
I1
sS'dedicate'
p4705
I1
sS'heaac'
p4706
I1
sS'dated'
p4707
I1
sS'spare'
p4708
I4
sS'among'
p4709
I5
sS'adaptiveblue'
p4710
I1
sS'firewall'
p4711
I1
sS'christie'
p4712
I2
sS'maintained'
p4713
I3
sS'appealing'
p4714
I3
sS'technicalities'
p4715
I1
sS'custody'
p4716
I1
sS'mediabased'
p4717
I1
sS'considering'
p4718
I6
sS'unusual'
p4719
I1
sS'masses8221'
p4720
I1
sS"firefox's"
p4721
I1
sS'workshop'
p4722
I1
sS'judging'
p4723
I1
sS'borders'
p4724
I1
sS'cannbspbuild'
p4725
I1
sS'shopping'
p4726
I2
sS'graveyard'
p4727
I1
sS'digirama'
p4728
I1
sS'offered'
p4729
I8
sS'gander'
p4730
I1
sS'laptops'
p4731
I4
sS'dramatic'
p4732
I1
sS'hardcore'
p4733
I1
sS'whiist'
p4734
I1
sS'sound'
p4735
I9
sS'apologised'
p4736
I1
sS'interoper'
p4737
I1
sS'disconnected'
p4738
I1
sS'turtles'
p4739
I1
sS'profiles'
p4740
I1
sS'compile'
p4741
I1
sS'ongoing'
p4742
I5
sS'promising'
p4743
I8
sS'investigating'
p4744
I1
sS'awakened'
p4745
I1
sS"zinwell's"
p4746
I1
sS'conferences'
p4747
I1
sS'characteristics'
p4748
I6
sS'according'
p4749
I23
sS'middle'
p4750
I5
sS'pressing'
p4751
I2
sS'loosing'
p4752
I1
sS'basecamp'
p4753
I4
sS'everyday'
p4754
I1
sS'different'
p4755
I41
sS'friendster'
p4756
I3
sS'authentication'
p4757
I2
sS"o'brien"
p4758
I1
sS'stepped'
p4759
I1
sS'extended'
p4760
I2
sS'janfergusonmicrosoftcom'
p4761
I1
sS'assist'
p4762
I3
sS'companion'
p4763
I1
sS'running'
p4764
I29
sS'climbing'
p4765
I3
sS'totally'
p4766
I9
sS'drain'
p4767
I1
sS'mindmanager'
p4768
I8
sS'largely'
p4769
I5
sS'markup'
p4770
I2
sS'wellington'
p4771
I6
sS'accountable'
p4772
I1
sS'solve'
p4773
I1
sS'bottle'
p4774
I2
sS'easing'
p4775
I1
sS'amazed'
p4776
I1
sS'parody'
p4777
I1
sS'gates'
p4778
I2
sS'peace'
p4779
I1
sS'money'
p4780
I26
sS"medium's"
p4781
I1
sS'leeway'
p4782
I1
sS'aspect'
p4783
I3
sS'nbspnbsp348'
p4784
I1
sS'libtrace'
p4785
I1
sS'wifes'
p4786
I1
sS'appropriately'
p4787
I2
sS'terse'
p4788
I1
sS'cannabalised'
p4789
I1
sS'extensive'
p4790
I2
sS'teched'
p4791
I1
sS'mouseclick'
p4792
I1
sS'addictinggames'
p4793
I1
sS'income'
p4794
I2
sS'grandstanding'
p4795
I1
sS'8216buttons8217'
p4796
I1
sS'phpbb'
p4797
I1
sS"'usonian'"
p4798
I1
sS'aiming'
p4799
I3
sS'disappointed'
p4800
I2
sS'designeruserconsumer'
p4801
I1
sS'vertically'
p4802
I1
sS'serves'
p4803
I1
sS'server'
p4804
I54
sS'facing'
p4805
I2
sS'audience'
p4806
I9
sS'either'
p4807
I8
sS'retailers'
p4808
I2
sS'intenet'
p4809
I1
sS'passionate'
p4810
I2
sS'wwwmassivesoftwarecom'
p4811
I1
sS'nontouch'
p4812
I1
sS'specified'
p4813
I1
sS'images'
p4814
I11
sS'organizing'
p4815
I1
sS'matching'
p4816
I1
sS'axing'
p4817
I1
sS"'that's"
p4818
I1
sS'confirm'
p4819
I4
sS'extensively'
p4820
I1
sS'zdnet'
p4821
I1
sS'settop'
p4822
I4
sS'pioneer'
p4823
I4
sS'critical'
p4824
I8
sS'yoursquove'
p4825
I1
sS'lunar'
p4826
I1
sS'expressing'
p4827
I1
sS'affiliate'
p4828
I1
sS'highbrow'
p4829
I1
sS'quotbid'
p4830
I1
sS'knife'
p4831
I1
sS'measuring'
p4832
I1
sS'understatement'
p4833
I1
sS'buckling'
p4834
I1
sS'seconds'
p4835
I4
sS'manufactured'
p4836
I1
sS'notable'
p4837
I2
sS'notably'
p4838
I1
sS'broken'
p4839
I3
sS'ponoko'
p4840
I8
sS'roaming'
p4841
I6
sS'refers'
p4842
I2
sS'wwwstarsoftconz'
p4843
I1
sS'released'
p4844
I22
sS'manufacturer'
p4845
I1
sS'william'
p4846
I2
sS'stations'
p4847
I5
sS'island'
p4848
I3
sS'violence'
p4849
I1
sS'develops'
p4850
I1
sS'practical'
p4851
I2
sS'wwwpivotnetnz'
p4852
I1
sS'airline'
p4853
I3
sS'youve'
p4854
I4
sS'mixed'
p4855
I2
sS'notifies'
p4856
I1
sS'organizers'
p4857
I1
sS'forprofit'
p4858
I1
sS'spreading'
p4859
I1
sS'harness'
p4860
I1
sS'references'
p4861
I1
sS'inbox'
p4862
I2
sS'strip'
p4863
I3
sS'sixday'
p4864
I3
sS'distracted'
p4865
I1
sS'styling'
p4866
I1
sS"'early"
p4867
I1
sS'mondays'
p4868
I1
sS'earphones'
p4869
I1
sS'merlinmann'
p4870
I1
sS'fanatic'
p4871
I1
sS'buggy'
p4872
I3
sS'pleased'
p4873
I5
sS'strikes'
p4874
I1
sS'sophisticated'
p4875
I6
sS'mitch8217s'
p4876
I1
sS"wasn't"
p4877
I14
sS'quotwe'
p4878
I2
sS'embed'
p4879
I3
sS'humancomputer'
p4880
I2
sS'videos'
p4881
I18
sS'general'
p4882
I15
sS'littlewood'
p4883
I2
sS'departments'
p4884
I4
sS'planets'
p4885
I1
sS'footers'
p4886
I1
sS'importing'
p4887
I2
sS'cables'
p4888
I1
sS'again'
p4889
I31
sS'assessing'
p4890
I3
sS'30000'
p4891
I3
sS'hybrid'
p4892
I7
sS'field'
p4893
I4
sS'students'
p4894
I5
sS'brandy'
p4895
I1
sS'important'
p4896
I42
sS'brands'
p4897
I1
sS'remote'
p4898
I6
sS'assets'
p4899
I2
sS"filmmaker's"
p4900
I1
sS'resolution'
p4901
I5
sS'represent'
p4902
I2
sS'problemsquot'
p4903
I1
sS'forget'
p4904
I6
sS'founder'
p4905
I9
sS'hooked'
p4906
I3
sS'suburban'
p4907
I1
sS'dollar'
p4908
I3
sS'founded'
p4909
I3
sS'browsers'
p4910
I9
sS'talks'
p4911
I6
sS'talkr'
p4912
I1
sS'children'
p4913
I1
sS'reluctant'
p4914
I1
sS'casecamp'
p4915
I2
sS'wackowiki'
p4916
I1
sS'mandell'
p4917
I1
sS'opensource'
p4918
I5
sS'prodding'
p4919
I1
sS'enjoying'
p4920
I1
sS'hattip'
p4921
I1
sS'dailymotion'
p4922
I1
sS'premium'
p4923
I3
sS'parcel'
p4924
I1
sS'straightforward'
p4925
I1
sS'sitting'
p4926
I5
sS'removing'
p4927
I2
sS'icann'
p4928
I2
sS'us8230'
p4929
I1
sS'difference'
p4930
I3
sS'steve'
p4931
I11
sS'mothers'
p4932
I2
sS'worded'
p4933
I1
sS'clubpenguin'
p4934
I2
sS'reminding'
p4935
I1
sS'donovan'
p4936
I1
sS'variances'
p4937
I1
sS'interwb'
p4938
I1
sS'neighborhood'
p4939
I4
sS'andor'
p4940
I3
sS'roboticsrsquo'
p4941
I1
sS'titles'
p4942
I1
sS'perspective'
p4943
I7
sS'lawyer'
p4944
I2
sS'plugins'
p4945
I4
sS'further'
p4946
I15
sS'ribbon'
p4947
I1
sS'managementcollaboration'
p4948
I1
sS'stood'
p4949
I1
sS'gsmumts'
p4950
I4
sS'garth'
p4951
I1
sS'vodafonise'
p4952
I2
sS'seerealise'
p4953
I1
sS'public'
p4954
I28
sS'compilation'
p4955
I1
sS'component'
p4956
I1
sS'favourably'
p4957
I1
sS'surfer'
p4958
I2
sS'squeezed'
p4959
I2
sS'operating'
p4960
I17
sS'gigahertz'
p4961
I3
sS'publishes'
p4962
I1
sS'monetize'
p4963
I1
sS'search'
p4964
I78
sS'margin'
p4965
I4
sS'stretching'
p4966
I2
sS'harddrive'
p4967
I1
sS'jackie'
p4968
I1
sS'airport'
p4969
I13
sS'published'
p4970
I8
sS"o'hear"
p4971
I1
sS'barker'
p4972
I1
sS'transit'
p4973
I13
sS'africa'
p4974
I2
sS'airplay'
p4975
I1
sS'establish'
p4976
I1
sS'readily'
p4977
I1
sS'shareholders'
p4978
I3
sS'texting'
p4979
I1
sS'comparing'
p4980
I1
sS'linear'
p4981
I1
sS'nonie'
p4982
I1
sS'brondmo'
p4983
I1
sS'mozilla'
p4984
I2
sS'attentiontrust'
p4985
I4
sS'controlling'
p4986
I1
sS'varying'
p4987
I1
sS'bionomic'
p4988
I1
sS'salesforce'
p4989
I1
sS'cluster'
p4990
I1
sS'recall'
p4991
I5
sS"nfl's"
p4992
I1
sS'sucks'
p4993
I1
sS'remain'
p4994
I4
sS'easytoinstall'
p4995
I1
sS'pioneered'
p4996
I1
sS'strategies'
p4997
I1
sS'specialized'
p4998
I3
sS'meeker'
p4999
I1
sS'purchases'
p5000
I1
sS'compare'
p5001
I4
sS'overthemoon'
p5002
I1
sS'storyist'
p5003
I1
sS"flickr's"
p5004
I3
sS'share'
p5005
I46
sS'collision'
p5006
I1
sS'minimum'
p5007
I2
sS'numbers'
p5008
I8
sS'purchased'
p5009
I6
sS'sharp'
p5010
I1
sS'biography'
p5011
I1
sS'narrowly'
p5012
I1
sS'maturing'
p5013
I1
sS'needs'
p5014
I21
sS'awkward'
p5015
I1
sS'technology'
p5016
I70
sS'comfort'
p5017
I1
sS'hamish'
p5018
I2
sS'sacred'
p5019
I1
sS'simtrix'
p5020
I3
sS'askcom'
p5021
I6
sS'driving'
p5022
I4
sS'advice'
p5023
I8
sS'shadram'
p5024
I1
sS'you8217ll'
p5025
I2
sS'sophistication'
p5026
I1
sS'connectivity'
p5027
I1
sS'blood'
p5028
I4
sS'coming'
p5029
I28
sS'response'
p5030
I6
sS'crowded'
p5031
I1
sS'unreservedly'
p5032
I2
sS'mynbspearly'
p5033
I1
sS'hardnbsp'
p5034
I1
sS'keynotes'
p5035
I4
sS'pleasure'
p5036
I1
sS'playing'
p5037
I7
sS'rounded'
p5038
I1
sS"technology's"
p5039
I1
sS'skymaori'
p5040
I1
sS'through'
p5041
I57
sS'filters'
p5042
I3
sS'thrilling'
p5043
I1
sS'8220kinkos8221'
p5044
I1
sS'handheld'
p5045
I2
sS'reuters'
p5046
I1
sS'arguments'
p5047
I2
sS'someone'
p5048
I35
sS'seeking'
p5049
I1
sS'males'
p5050
I1
sS'socially'
p5051
I1
sS'noticing'
p5052
I1
sS'primary'
p5053
I6
sS'yoursnbsp'
p5054
I1
sS'complain'
p5055
I1
sS'viewers'
p5056
I1
sS'easily'
p5057
I11
sS"crawl'"
p5058
I1
sS'wrapped'
p5059
I2
sS'micro'
p5060
I1
sS'habits'
p5061
I6
sS'deteriorated'
p5062
I1
sS'225000'
p5063
I1
sS'repeating'
p5064
I1
sS'teletext'
p5065
I1
sS'maunganui'
p5066
I1
sS'sterling'
p5067
I2
sS'everyone'
p5068
I21
sS'another'
p5069
I69
sS'therersquos'
p5070
I1
sS'house'
p5071
I12
sS'energy'
p5072
I7
sS'engaging'
p5073
I1
sS'connect'
p5074
I14
sS'zealandowned'
p5075
I1
sS'ripple'
p5076
I1
sS'portland'
p5077
I1
sS'thick'
p5078
I1
sS'worshipers'
p5079
I1
sS'initiatives'
p5080
I1
sS'funding'
p5081
I13
sS'coauthor'
p5082
I1
sS'participants'
p5083
I7
sS"they'll"
p5084
I5
sS'print'
p5085
I8
sS'tiresome'
p5086
I1
sS"bbc's"
p5087
I1
sS'enforcing'
p5088
I1
sS'ldquoour'
p5089
I1
sS'bombshell'
p5090
I1
sS'geared'
p5091
I1
sS'difficulty'
p5092
I1
sS'antispyware'
p5093
I1
sS'members'
p5094
I7
sS'backed'
p5095
I1
sS'beginning'
p5096
I9
sS'onsite'
p5097
I1
sS'cheers'
p5098
I1
sS'benefits'
p5099
I2
sS'reinforces'
p5100
I1
sS'computers'
p5101
I12
sS'conducted'
p5102
I2
sS'edges'
p5103
I1
sS'pilots'
p5104
I1
sS'copper'
p5105
I11
sS"quotwhat's"
p5106
I1
sS"'gateway'"
p5107
I1
sS'zealands'
p5108
I2
sS'cwindowsehomebladerunnerprocache'
p5109
I1
sS'vibrate'
p5110
I3
sS'jabber'
p5111
I1
sS'indulgent'
p5112
I1
sS'smoother'
p5113
I1
sS'least'
p5114
I22
sS'paint'
p5115
I1
sS'regulation'
p5116
I3
sS'assumption'
p5117
I1
sS'statement'
p5118
I3
sS'rates'
p5119
I3
sS'lease'
p5120
I1
sS'expolitician'
p5121
I1
sS'mentality'
p5122
I1
sS'facet'
p5123
I1
sS'youtubers'
p5124
I1
sS'differentiate'
p5125
I4
sS'believe'
p5126
I15
sS'percentage'
p5127
I1
sS'woops'
p5128
I1
sS'gotten'
p5129
I5
sS'recording'
p5130
I3
sS'headers'
p5131
I1
sS'contrary'
p5132
I1
sS'supposed'
p5133
I3
sS'eversmaller'
p5134
I1
sS'treated'
p5135
I2
sS'interactive'
p5136
I6
sS'yahooxtra'
p5137
I4
sS'fuelling'
p5138
I1
sS"service'"
p5139
I1
sS'pornography'
p5140
I3
sS'happenmore'
p5141
I1
sS'categorized'
p5142
I3
sS'meltdown'
p5143
I2
sS'confirms'
p5144
I5
sS'dotcom'
p5145
I2
sS'built'
p5146
I26
sS'dancing'
p5147
I1
sS'isnbspnbspwhat'
p5148
I1
sS'majority'
p5149
I1
sS'build'
p5150
I31
sS'commentary'
p5151
I3
sS"novlet's"
p5152
I1
sS'folders'
p5153
I2
sS'patterson'
p5154
I3
sS'flute'
p5155
I1
sS'chart'
p5156
I2
sS'significant'
p5157
I14
sS'services'
p5158
I78
sS'extremely'
p5159
I8
sS'unavailable'
p5160
I1
sS'fundable'
p5161
I1
sS'qtynbsp'
p5162
I1
sS'tieins'
p5163
I1
sS'organise'
p5164
I2
sS'wwwroadworksconz'
p5165
I1
sS'joining'
p5166
I3
sS'sector'
p5167
I5
sS'thomas'
p5168
I3
sS'particularly'
p5169
I8
sS'findable'
p5170
I1
sS'obligations'
p5171
I1
sS'swelling'
p5172
I1
sS'detection'
p5173
I1
sS'scattered'
p5174
I1
sS'businesses'
p5175
I16
sS'personalise'
p5176
I1
sS'networky'
p5177
I1
sS'headlines'
p5178
I3
sS'screenshots'
p5179
I3
sS'networks'
p5180
I25
sS'faces'
p5181
I3
sS'giant'
p5182
I3
sS'novedge'
p5183
I4
sS'merger'
p5184
I1
sS'nervous'
p5185
I1
sS'distributed'
p5186
I6
sS'waiting'
p5187
I6
sS'unhappy'
p5188
I2
sS'freedoms'
p5189
I1
sS'generators'
p5190
I1
sS'skyc4'
p5191
I1
sS'29500'
p5192
I1
sS'generatorx'
p5193
I2
sS'permission'
p5194
I1
sS"network'"
p5195
I5
sS'express'
p5196
I4
sS'highend'
p5197
I1
sS'ponsonby'
p5198
I1
sS'courage'
p5199
I1
sS'theft'
p5200
I3
sS'projectsprovides'
p5201
I1
sS'blogging'
p5202
I10
sS'merchandise'
p5203
I1
sS'motorcycles'
p5204
I1
sS'remove'
p5205
I3
sS'doubleclicking'
p5206
I1
sS'restaurants'
p5207
I4
sS'allconsuming'
p5208
I1
sS'summed'
p5209
I1
sS'8216blog8217'
p5210
I1
sS'individual'
p5211
I11
sS'repairs'
p5212
I2
sS'stance'
p5213
I1
sS'expert'
p5214
I6
sS'visiting'
p5215
I3
sS'please'
p5216
I19
sS'myriad'
p5217
I3
sS'transfered'
p5218
I1
sS'drury'
p5219
I3
sS'seeded'
p5220
I1
sS'popup'
p5221
I3
sS'dividends'
p5222
I1
sS'interfaces'
p5223
I2
sS'incubators'
p5224
I3
sS'restaurant'
p5225
I4
sS'powers'
p5226
I1
sS'annual'
p5227
I3
sS'26300'
p5228
I1
sS'foreign'
p5229
I2
sS'upgraded'
p5230
I7
sS"app's"
p5231
I1
sS'consume'
p5232
I4
sS'point'
p5233
I42
sS'simple'
p5234
I22
sS'ficlets'
p5235
I6
sS'simply'
p5236
I9
sS'shutdown'
p5237
I2
sS'upgrades'
p5238
I3
sS'openness'
p5239
I4
sS'throughout'
p5240
I8
sS'expensive'
p5241
I6
sS'headaches'
p5242
I1
sS'ensures'
p5243
I1
sS'weaving'
p5244
I1
sS'raise'
p5245
I4
sS'create'
p5246
I33
sS'creativity'
p5247
I5
sS'elektra'
p5248
I1
sS'rivals'
p5249
I2
sS'secret'
p5250
I2
sS'ireland'
p5251
I1
sS'intrusive'
p5252
I2
sS'meeting'
p5253
I17
sS'nz265'
p5254
I1
sS'freelancing'
p5255
I1
sS'schuller'
p5256
I1
sS'theirsnbsp'
p5257
I1
sS'priced'
p5258
I2
sS'understand'
p5259
I16
sS'prices'
p5260
I8
sS'trojan'
p5261
I2
sS'replaces'
p5262
I2
sS'politician'
p5263
I1
sS'solid'
p5264
I2
sS'skiff'
p5265
I2
sS'sexuality'
p5266
I2
sS'replaced'
p5267
I3
sS'decentralization'
p5268
I1
sS'yettobe'
p5269
I1
sS'century'
p5270
I4
sS'cents'
p5271
I2
sS'flatrate'
p5272
I1
sS'itself'
p5273
I15
sS'finalists'
p5274
I1
sS'cddvd'
p5275
I1
sS'anaesthesia'
p5276
I1
sS'copying'
p5277
I1
sS'development'
p5278
I22
sS'passwords'
p5279
I1
sS'seasonpass'
p5280
I1
sS'leopard'
p5281
I6
sS'yesterday'
p5282
I8
sS'moment'
p5283
I11
sS'8216overreact8217'
p5284
I1
sS'aggregate'
p5285
I1
sS'genuine'
p5286
I2
sS'thirtyone'
p5287
I1
sS'redesigned'
p5288
I1
sS'spent'
p5289
I5
sS'organization'
p5290
I7
sS'spend'
p5291
I12
sS'prevention'
p5292
I2
sS'maleness'
p5293
I1
sS'distracting'
p5294
I1
sS'shape'
p5295
I3
sS'openly'
p5296
I1
sS'credentials'
p5297
I1
sS'joost'
p5298
I13
sS'alternative'
p5299
I19
sS'predominantly'
p5300
I2
sS'telcos8217'
p5301
I1
sS'alignment'
p5302
I1
sS'letting'
p5303
I3
sS'8220design'
p5304
I1
sS'deputy'
p5305
I1
sS'source'
p5306
I19
sS'deliberately'
p5307
I1
sS'excited'
p5308
I7
sS'ridiculously'
p5309
I2
sS'cornish'
p5310
I1
sS'rebound'
p5311
I1
sS'ahrdly'
p5312
I1
sS'judgement'
p5313
I1
sS'matters'
p5314
I4
sS'irretrievable'
p5315
I1
sS"jobs'"
p5316
I1
sS'follows'
p5317
I5
sS'senduit'
p5318
I2
sS'itrsquos'
p5319
I5
sS'google'
p5320
I200
sS'often'
p5321
I17
sS'coveredquot'
p5322
I1
sS'humorous'
p5323
I1
sS'obliged'
p5324
I1
sS'prototyping'
p5325
I3
sS'strongest'
p5326
I1
sS'pricing'
p5327
I7
sS'mirror'
p5328
I1
sS"weekend's"
p5329
I1
sS'ourselves'
p5330
I4
sS'pronounced'
p5331
I1
sS'scale'
p5332
I6
sS'jewelry'
p5333
I1
sS'contacts'
p5334
I3
sS'decision'
p5335
I10
sS'though'
p5336
I39
sS'integration'
p5337
I6
sS'connecting'
p5338
I4
sS'bogus'
p5339
I2
sS'scaly'
p5340
I1
sS"google's"
p5341
I11
sS'patient'
p5342
I1
sS'continuing'
p5343
I4
sS"'this"
p5344
I2
sS'nitty'
p5345
I1
sS'gibbons'
p5346
I2
sS'bestseller'
p5347
I1
sS'extensions'
p5348
I2
sS'telecomsupportcusthelpcom'
p5349
I1
sS'tenants'
p5350
I2
sS'shop8221'
p5351
I1
sS'lesson'
p5352
I1
sS'delusional'
p5353
I1
sS'apparently'
p5354
I5
sS'infected'
p5355
I1
sS'homemade'
p5356
I1
sS'paynbsp'
p5357
I1
sS'bored'
p5358
I2
sS'invite'
p5359
I4
sS'murphy'
p5360
I1
sS'appian'
p5361
I1
sS'cloud'
p5362
I4
sS'hopes'
p5363
I3
sS'nutshell'
p5364
I1
sS'groovy'
p5365
I1
sS"users'"
p5366
I1
sS'requesting'
p5367
I1
sS'planet'
p5368
I3
sS"tomorrow's"
p5369
I1
sS'exploration'
p5370
I1
sS'aversion'
p5371
I2
sS'autonomous'
p5372
I1
sS'groove'
p5373
I2
sS'recognition'
p5374
I2
sS'groupware'
p5375
I1
sS'expedition'
p5376
I1
sS'stripped'
p5377
I1
sS'single'
p5378
I10
sS'organizational'
p5379
I2
sS'nbspnot'
p5380
I1
sS'theyll'
p5381
I2
sS'humanities'
p5382
I1
sS'playthe'
p5383
I1
sS'plugged'
p5384
I2
sS'functionality'
p5385
I18
sS'proposal'
p5386
I1
sS'expected'
p5387
I6
sS'explaining'
p5388
I1
sS'gross'
p5389
I3
sS'favourite'
p5390
I9
sS"microsoft's"
p5391
I2
sS'aggregates'
p5392
I1
sS'prepared'
p5393
I4
sS'cater'
p5394
I1
sS'hanson'
p5395
I1
sS'desert'
p5396
I1
sS'dimensions'
p5397
I1
sS'scouting'
p5398
I2
sS'implies'
p5399
I1
sS'planatarium'
p5400
I1
sS'appalling'
p5401
I1
sS'httpwwwmicrosoftcomgenuine'
p5402
I1
sS'presenting'
p5403
I3
sS"israel's"
p5404
I4
sS'dogged'
p5405
I1
sS'browserbased'
p5406
I4
sS'restraining'
p5407
I1
sS'canspam'
p5408
I4
sS'query'
p5409
I12
sS'compose'
p5410
I2
sS'slickness'
p5411
I1
sS'rivalry'
p5412
I1
sS'helps'
p5413
I3
sS'redemptive'
p5414
I1
sS'brigade'
p5415
I1
sS'queen'
p5416
I1
sS'gamesand'
p5417
I1
sS'stumbleupon'
p5418
I1
sS'implicitly'
p5419
I2
sS'putting'
p5420
I6
sS'arrange'
p5421
I2
sS'entire'
p5422
I16
sS'recreation'
p5423
I1
sS'knight'
p5424
I4
sS'shock'
p5425
I2
sS'elsersquos'
p5426
I1
sS'academia'
p5427
I1
sS'havent'
p5428
I2
sS'kayuda'
p5429
I1
sS'sewage'
p5430
I1
sS"government's"
p5431
I2
sS'macmanus'
p5432
I1
sS'replicates'
p5433
I1
sS'easytounderstand'
p5434
I1
sS'replicated'
p5435
I1
sS'peddle'
p5436
I1
sS'vmware'
p5437
I1
sS'staffers'
p5438
I1
sS'chicago'
p5439
I2
sS'giving'
p5440
I10
sS'pipes'
p5441
I1
sS'access'
p5442
I56
sS'huawei'
p5443
I1
sS'newsgator'
p5444
I4
sS'pleading'
p5445
I1
sS'exercise'
p5446
I3
sS'mauricio'
p5447
I1
sS'exchange'
p5448
I18
sS'leveraging'
p5449
I2
sS'aranz'
p5450
I2
sS'nonexistent'
p5451
I1
sS'intercept'
p5452
I2
sS'healing'
p5453
I2
sS'others'
p5454
I31
sS'safer'
p5455
I4
sS'irritating'
p5456
I2
sS'extreme'
p5457
I8
sS'skool'
p5458
I1
sS"huffington's"
p5459
I1
sS'panned'
p5460
I1
sS'implement'
p5461
I3
sS'proof'
p5462
I4
sS'oneups'
p5463
I1
sS'delays'
p5464
I1
sS'named'
p5465
I4
sS'decentralized'
p5466
I2
sS'private'
p5467
I11
sS"uniquenbspmicrosoft's"
p5468
I1
sS'gordon'
p5469
I1
sS'privately'
p5470
I1
sS"adaptiveblue's"
p5471
I1
sS'feedblendr'
p5472
I1
sS'scandal'
p5473
I1
sS'gateway'
p5474
I5
sS'readable'
p5475
I1
sS'seamless'
p5476
I4
sS'classically'
p5477
I1
sS'knowwhat'
p5478
I1
sS'debbie'
p5479
I1
sS'themselves'
p5480
I11
sS"apple's"
p5481
I1
sS'prized'
p5482
I1
sS'upcoming'
p5483
I5
sS'kiosk'
p5484
I1
sS'aggregators'
p5485
I1
sS'train'
p5486
I2
sS'prizes'
p5487
I1
sS'discontinuously'
p5488
I1
sS'myasterisk'
p5489
I1
sS'account'
p5490
I9
sS'britney'
p5491
I1
sS'tease'
p5492
I1
sS'obvious'
p5493
I5
sS'oneoff'
p5494
I1
sS'extendquot'
p5495
I1
sS'industrial'
p5496
I7
sS'closing'
p5497
I3
sS'unread'
p5498
I1
sS'didnt'
p5499
I11
sS'mindscape'
p5500
I2
sS'craftsperson'
p5501
I1
sS'invoices'
p5502
I1
sS'effectively'
p5503
I5
sS'bones'
p5504
I1
sS'uncompensated'
p5505
I1
sS'expandable'
p5506
I1
sS'core77com'
p5507
I1
sS'native'
p5508
I3
sS'varied'
p5509
I1
sS'democracy'
p5510
I1
sS'holds'
p5511
I3
sS'winners'
p5512
I2
sS'100mbps'
p5513
I1
sS'attachment'
p5514
I1
sS'stock'
p5515
I6
sS'profile'
p5516
I5
sS'buildings'
p5517
I3
sS'waters'
p5518
I1
sS'philosophy'
p5519
I1
sS'collection'
p5520
I3
sS'communicator'
p5521
I1
sS'ambiguous'
p5522
I1
sS'bombers'
p5523
I1
sS'lines'
p5524
I8
sS'guatemala'
p5525
I1
sS'nontechnical'
p5526
I2
sS'chief'
p5527
I7
sS'laurie'
p5528
I1
sS'dropsend'
p5529
I1
sS'safari8217s'
p5530
I1
sS'subsequently'
p5531
I1
sS'embarrassingly'
p5532
I1
sS'coordinated'
p5533
I3
sS'symbols'
p5534
I1
sS'bunch'
p5535
I2
sS'industries'
p5536
I2
sS'itanz'
p5537
I1
sS'accredited'
p5538
I1
sS'winning'
p5539
I2
sS'blatant'
p5540
I1
sS"twitter's"
p5541
I1
sS'noncommittal'
p5542
I1
sS'greater'
p5543
I4
sS'installers'
p5544
I2
sS'fiesta'
p5545
I1
sS'toshiba'
p5546
I1
sS'mention'
p5547
I5
sS'cutting'
p5548
I7
sS'february'
p5549
I4
sS'airports'
p5550
I1
sS'estranged'
p5551
I1
sS'decommission'
p5552
I2
sS'gazing'
p5553
I1
sS'experienced'
p5554
I4
sS'constraints'
p5555
I2
sS'activate'
p5556
I1
sS'punbb'
p5557
I1
sS'dreaming'
p5558
I1
sS'8220myspace'
p5559
I1
sS'filmmaking'
p5560
I1
sS'programmer'
p5561
I2
sS'programmes'
p5562
I4
sS'sexual'
p5563
I3
sS'popping'
p5564
I3
sS'totalnbsp'
p5565
I1
sS'announces'
p5566
I2
sS'canwestnational'
p5567
I1
sS'wholly'
p5568
I2
sS'oriental'
p5569
I2
sS'socalled'
p5570
I2
sS'electronics'
p5571
I7
sS'announced'
p5572
I23
sS'gears'
p5573
I14
sS'workflow'
p5574
I1
sS'frank'
p5575
I1
sS'clarify'
p5576
I1
sS'preopensocial'
p5577
I1
sS"coop's"
p5578
I1
sS'explanations'
p5579
I1
sS'skateboard'
p5580
I3
sS'barriers'
p5581
I1
sS'retain'
p5582
I1
sS'unlicence'
p5583
I1
sS'facilitate'
p5584
I4
sS'south'
p5585
I6
sS'storyboards'
p5586
I1
sS'evoting'
p5587
I1
sS'fleshed'
p5588
I1
sS'reaches'
p5589
I1
sS'strategic'
p5590
I1
sS'improvements'
p5591
I2
sS"cerf's"
p5592
I1
sS'comments8230'
p5593
I1
sS'instill'
p5594
I1
sS'thirties'
p5595
I1
sS'compliant'
p5596
I1
sS'downey'
p5597
I1
sS"'gamma'"
p5598
I1
sS'messing'
p5599
I1
sS'scans'
p5600
I2
sS'explanation'
p5601
I2
sS'nobody'
p5602
I2
sS'environmental'
p5603
I4
sS'bearbrick'
p5604
I1
sS'unabased'
p5605
I1
sS'wishlist'
p5606
I1
sS'us27000'
p5607
I1
sS'loved'
p5608
I1
sS'device'
p5609
I42
sS'politics'
p5610
I2
sS'sweden'
p5611
I1
sS'occassions'
p5612
I1
sS'loves'
p5613
I2
sS'visited'
p5614
I2
sS'doctorate'
p5615
I1
sS'kubrick'
p5616
I1
sS'friis'
p5617
I2
sS'irmprotected'
p5618
I1
sS'comfortable'
p5619
I4
sS'unlikely'
p5620
I4
sS'dictate'
p5621
I1
sS'aroundnbsp'
p5622
I1
sS'whowhat'
p5623
I1
sS'handsets'
p5624
I10
sS'sayings'
p5625
I1
sS'dallas'
p5626
I1
sS'quotshow'
p5627
I1
sS'incentive'
p5628
I1
sS'builtin'
p5629
I5
sS'advocates'
p5630
I2
sS'rediscovered'
p5631
I1
sS'mimics'
p5632
I1
sS'eight'
p5633
I1
sS'logitech'
p5634
I1
sS'sally'
p5635
I1
sS'payment'
p5636
I4
sS'8216place'
p5637
I1
sS'enthusiastic'
p5638
I1
sS'gather'
p5639
I1
sS'request'
p5640
I2
sS'workspace'
p5641
I3
sS'occasion'
p5642
I2
sS'normally'
p5643
I3
sS'nonnotified'
p5644
I1
sS'selection'
p5645
I3
sS'charles'
p5646
I4
sS'rotating'
p5647
I1
sS'isn8217t'
p5648
I7
sS'portfolio'
p5649
I1
sS'mid2005'
p5650
I1
sS'staff'
p5651
I9
sS'knowledge'
p5652
I11
sS'fabbers'
p5653
I2
sS'sparks'
p5654
I1
sS'controls'
p5655
I3
sS'bernard'
p5656
I1
sS'viewport'
p5657
I1
sS"safari's"
p5658
I1
sS'regularly'
p5659
I2
sS'hijacking'
p5660
I1
sS'photography'
p5661
I2
sS'25003000'
p5662
I1
sS'farley'
p5663
I1
sS'timing'
p5664
I1
sS'areas'
p5665
I9
sS'organ'
p5666
I2
sS'teams'
p5667
I5
sS"won't"
p5668
I11
sS'genuineonly'
p5669
I1
sS'cycles'
p5670
I1
sS'experiences'
p5671
I5
sS'debconf'
p5672
I1
sS'enhances'
p5673
I1
sS'national'
p5674
I17
sS'nonflat'
p5675
I1
sS'yearoveryear'
p5676
I1
sS'phases'
p5677
I1
sS'interview'
p5678
I13
sS'attempting'
p5679
I1
sS'pattern'
p5680
I1
sS'literate'
p5681
I1
sS'discounts'
p5682
I1
sS'difficulties'
p5683
I1
sS'rowan'
p5684
I1
sS'phased'
p5685
I1
sS'progress'
p5686
I7
sS'globalisation'
p5687
I1
sS'janet'
p5688
I1
sS'superior'
p5689
I1
sS'deliver'
p5690
I11
sS'optional'
p5691
I2
sS'legit'
p5692
I4
sS'commenting'
p5693
I2
sS'instant'
p5694
I8
sS'plugin'
p5695
I11
sS'taking'
p5696
I20
sS'cafepress'
p5697
I2
sS'kiwibank'
p5698
I1
sS'trips'
p5699
I3
sS'kosher'
p5700
I1
sS'assure'
p5701
I1
sS'passing'
p5702
I2
sS'masses'
p5703
I5
sS'otherwise'
p5704
I4
sS'comment'
p5705
I16
sS'compromising'
p5706
I1
sS'invasive'
p5707
I1
sS'uninitiated'
p5708
I1
sS'copies'
p5709
I3
sS'darren'
p5710
I1
sS'quirksquot'
p5711
I1
sS"zoho's"
p5712
I2
sS'attends'
p5713
I1
sS'copied'
p5714
I1
sS'softsqueeze'
p5715
I1
sS'define'
p5716
I4
sS'overwhelmingly'
p5717
I1
sS'climate'
p5718
I1
sS'orange'
p5719
I5
sS'finished'
p5720
I3
sS'angles'
p5721
I1
sS'fellow'
p5722
I2
sS'homes'
p5723
I5
sS'imagination'
p5724
I2
sS'plain'
p5725
I10
sS'widescreen'
p5726
I1
sS'appearance'
p5727
I1
sS'value'
p5728
I16
sS'promotes'
p5729
I1
sS'promoted'
p5730
I1
sS'handwriting'
p5731
I1
sS'frustrating'
p5732
I3
sS'almost'
p5733
I15
sS'walks'
p5734
I1
sS'linkedin'
p5735
I4
sS'helped'
p5736
I3
sS'arrangements'
p5737
I2
sS'claimed'
p5738
I1
sS'partner'
p5739
I14
sS'starcraft'
p5740
I2
sS'sequentially'
p5741
I1
sS'whirl'
p5742
I1
sS'slammer'
p5743
I1
sS'productivity'
p5744
I6
sS'players'
p5745
I9
sS'practice'
p5746
I5
sS'everincreasing'
p5747
I1
sS'127000'
p5748
I1
sS'reporting'
p5749
I9
sS'binoculars'
p5750
I2
sS'discredited'
p5751
I1
sS'sisters'
p5752
I1
sS'myspace8221'
p5753
I1
sS'commenters'
p5754
I2
sS'numbered'
p5755
I1
sS'center'
p5756
I5
sS'thought'
p5757
I29
sS'comparisons'
p5758
I1
sS'creators'
p5759
I7
sS'usual'
p5760
I4
sS'pricegrabber'
p5761
I1
sS'somethingorother'
p5762
I1
sS'stores'
p5763
I2
sS'teacher'
p5764
I1
sS'withnbspminister'
p5765
I1
sS'proximity'
p5766
I1
sS'executive'
p5767
I7
sS'domestic'
p5768
I2
sS'smuggled'
p5769
I1
sS'nicknamed'
p5770
I1
sS'stored'
p5771
I5
sS'books'
p5772
I6
sS'dakota'
p5773
I1
sS'urbanisation'
p5774
I1
sS'webb8217s'
p5775
I1
sS'podcast'
p5776
I1
sS'demographic'
p5777
I2
sS'monoploy'
p5778
I2
sS'recommending'
p5779
I1
sS'rebate'
p5780
I2
sS'analogue'
p5781
I1
sS'voila'
p5782
I1
sS'propositions'
p5783
I1
sS'crops'
p5784
I2
sS'ought'
p5785
I1
sS'resolved'
p5786
I2
sS'tests'
p5787
I2
sS'worlds'
p5788
I3
sS'royalty'
p5789
I5
sS'deployment'
p5790
I3
sS'computerworld'
p5791
I3
sS'motorola'
p5792
I4
sS'inviting'
p5793
I1
sS'validations'
p5794
I2
sS'journalism'
p5795
I1
sS'admitted'
p5796
I1
sS'journalist'
p5797
I1
sS'works'
p5798
I19
sS'audible'
p5799
I1
sS'italian'
p5800
I1
sS'accessible'
p5801
I4
sS'voicegrade'
p5802
I1
sS'promisekeepers'
p5803
I2
sS'webbased'
p5804
I3
sS'alive'
p5805
I7
sS'ideals'
p5806
I1
sS'recommendation'
p5807
I4
sS'proper'
p5808
I3
sS'supportive'
p5809
I1
sS'happens'
p5810
I10
sS'highlighting'
p5811
I1
sS'shelter'
p5812
I1
sS'assuming'
p5813
I1
sS'screwed'
p5814
I1
sS'liveonthenetcom'
p5815
I1
sS'regain'
p5816
I1
sS'prose'
p5817
I2
sS'noise'
p5818
I2
sS'slight'
p5819
I1
sS'025027'
p5820
I2
sS'lieutenant'
p5821
I1
sS'although'
p5822
I15
sS'worthy'
p5823
I2
sS'snapped'
p5824
I1
sS'bizarre'
p5825
I1
sS'panel'
p5826
I2
sS'bills'
p5827
I2
sS'actual'
p5828
I4
sS'boards'
p5829
I1
sS'certainty'
p5830
I2
sS"uro's"
p5831
I1
sS"video'"
p5832
I2
sS'erepublik'
p5833
I1
sS'submited'
p5834
I1
sS'powerpoint'
p5835
I5
sS'localised'
p5836
I1
sS'childrens'
p5837
I1
sS'unbox'
p5838
I1
sS'functional'
p5839
I4
sS'socks'
p5840
I1
sS'gillmor'
p5841
I1
sS'doesnt'
p5842
I5
sS'unharnessed'
p5843
I1
sS'esteem'
p5844
I1
sS'female'
p5845
I1
sS'irsquom'
p5846
I1
sS'phitek'
p5847
I2
sS'biggest'
p5848
I10
sS'globe'
p5849
I2
sS'chatting'
p5850
I2
sS'brand'
p5851
I6
sS'sequel'
p5852
I2
sS'preparations'
p5853
I1
sS'reminds'
p5854
I3
sS'repeated'
p5855
I1
sS'bookshelf'
p5856
I1
sS'editing'
p5857
I12
sS'versatile'
p5858
I1
sS'partially'
p5859
I1
sS'googlecom'
p5860
I1
sS'glory'
p5861
I1
sS'heatmaps'
p5862
I1
sS'dangerous'
p5863
I1
sS'promarketcustomer'
p5864
I1
sS'farrar'
p5865
I1
sS'endace'
p5866
I1
sS'supremo'
p5867
I1
sS'handset'
p5868
I11
sS'astonishs'
p5869
I1
sS'wwwimardainccom'
p5870
I1
sS'commentators'
p5871
I2
sS'mysteriously'
p5872
I1
sS'identities'
p5873
I1
sS'unintelligible'
p5874
I1
sS'triband'
p5875
I1
sS'claiming'
p5876
I3
sS'detail'
p5877
I6
sS'virtual'
p5878
I13
sS'cashed'
p5879
I1
sS'telcom'
p5880
I1
sS'enlargement'
p5881
I1
sS"'gay'"
p5882
I1
sS'cheque'
p5883
I2
sS'astronomy'
p5884
I2
sS'christians'
p5885
I1
sS'prize'
p5886
I2
sS'philips'
p5887
I1
sS'starting'
p5888
I6
sS'monetizable'
p5889
I1
sS'coherent'
p5890
I1
sS'forgetting'
p5891
I1
sS'limited'
p5892
I8
sS'searchable'
p5893
I1
sS'createdquot'
p5894
I1
sS'facilities'
p5895
I1
sS'sleep'
p5896
I1
sS'appetite'
p5897
I2
sS"tonight's"
p5898
I1
sS'poorly'
p5899
I3
sS'viewsday'
p5900
I1
sS'paris'
p5901
I2
sS'dreamscene'
p5902
I3
sS'supported'
p5903
I2
sS'whatsoever'
p5904
I1
sS'under'
p5905
I35
sS'louder'
p5906
I1
sS'photosynth'
p5907
I4
sS'quicktime'
p5908
I1
sS'every'
p5909
I39
sS'lonerangers'
p5910
I1
sS'trailer'
p5911
I1
sS'school'
p5912
I6
sS'pooled'
p5913
I1
sS'greenbacks'
p5914
I1
sS'venue'
p5915
I2
sS'us120'
p5916
I1
sS'commonslicensed'
p5917
I1
sS'guiding'
p5918
I3
sS'glued'
p5919
I1
sS'enjoy'
p5920
I9
sS'bicycle'
p5921
I1
sS'leaders'
p5922
I4
sS'consistent'
p5923
I4
sS'guidelines'
p5924
I1
sS'estimates'
p5925
I2
sS'direct'
p5926
I4
sS'surrounding'
p5927
I1
sS'persuade'
p5928
I1
sS'estimated'
p5929
I2
sS'bethune'
p5930
I5
sS'christ'
p5931
I1
sS'specification'
p5932
I6
sS'selected'
p5933
I1
sS'supplied'
p5934
I2
sS'egovernment'
p5935
I1
sS'endorse'
p5936
I1
sS'supplies'
p5937
I2
sS'emily'
p5938
I2
sS'disney'
p5939
I1
sS'pinged'
p5940
I1
sS'kicked'
p5941
I3
sS'licences'
p5942
I2
sS"york's"
p5943
I1
sS'penultimate'
p5944
I1
sS'feisty'
p5945
I1
sS'hundreds'
p5946
I7
sS'studio'
p5947
I1
sS'ethanol'
p5948
I4
sS'represented'
p5949
I1
sS'property'
p5950
I4
sS'motorcycles8221'
p5951
I1
sS'pornographic'
p5952
I1
sS'forum'
p5953
I18
sS"fred's"
p5954
I1
sS'ventures'
p5955
I4
sS'changed'
p5956
I9
sS'mantis'
p5957
I1
sS'fulltime'
p5958
I4
sS'mentor'
p5959
I1
sS'andreessen'
p5960
I1
sS'settled'
p5961
I1
sS'cebit'
p5962
I5
sS'prints'
p5963
I2
sS'oneupped'
p5964
I1
sS'straw'
p5965
I1
sS'feelings'
p5966
I2
sS'forums'
p5967
I9
sS"last100's"
p5968
I1
sS'higherend'
p5969
I1
sS'would'
p5970
I160
sS'hospital'
p5971
I1
sS'crowning'
p5972
I1
sS'hanoi'
p5973
I1
sS'distributing'
p5974
I2
sS'asset'
p5975
I4
sS'centre'
p5976
I10
sS'preview'
p5977
I2
sS'assessment'
p5978
I1
sS'preserved'
p5979
I4
sS"'network'"
p5980
I1
sS'drowning'
p5981
I1
sS'phone'
p5982
I54
sS'excellent'
p5983
I2
sS'shoot'
p5984
I4
sS'advocacy'
p5985
I1
sS'install'
p5986
I18
sS'addictive'
p5987
I1
sS'estate'
p5988
I1
sS'diminished'
p5989
I1
sS'telematic'
p5990
I4
sS'gadgets'
p5991
I3
sS'scheduling'
p5992
I1
sS'attract'
p5993
I2
sS'chatinstant'
p5994
I1
sS'topographical'
p5995
I1
sS'returning'
p5996
I2
sS'finalist'
p5997
I1
sS'writers'
p5998
I11
sS'popover'
p5999
I1
sS'lastfm'
p6000
I11
sS'widespread'
p6001
I2
sS'charging'
p6002
I3
sS'eyeballs'
p6003
I1
sS'dialect'
p6004
I1
sS'description'
p6005
I2
sS'infotech'
p6006
I1
sS'danny'
p6007
I1
sS'faddish'
p6008
I1
sS'acknowledged'
p6009
I2
sS'hypnotic'
p6010
I1
sS'hypotheses'
p6011
I2
sS'perform'
p6012
I1
sS'complexity'
p6013
I1
sS'algorithms'
p6014
I2
sS'ultimate'
p6015
I1
sS'enter'
p6016
I8
sS'codenamed'
p6017
I1
sS'seamus'
p6018
I1
sS'dignan'
p6019
I1
sS'expects'
p6020
I1
sS'london'
p6021
I3
sS'thesis'
p6022
I1
sS'presley'
p6023
I1
sS'swiftpoint'
p6024
I1
sS'biofuels'
p6025
I1
sS'succeeds'
p6026
I1
sS'expectations'
p6027
I1
sS'mongolia'
p6028
I2
sS'writing'
p6029
I27
sS'metacafe'
p6030
I1
sS'edits'
p6031
I1
sS'compelling'
p6032
I8
sS'ladybirds'
p6033
I1
sS'sophocles'
p6034
I1
sS'hakia'
p6035
I5
sS'vehicle'
p6036
I1
sS'confuse'
p6037
I1
sS'civilisation8217s'
p6038
I1
sS'tourism'
p6039
I1
sS'netherlands'
p6040
I1
sS'notified'
p6041
I1
sS'choir'
p6042
I1
sS'filling'
p6043
I1
sS'newport'
p6044
I2
sS'lasting'
p6045
I1
sS'localsites'
p6046
I1
sS'saturday'
p6047
I2
sS'revisions'
p6048
I2
sS'freeconferencecallscom'
p6049
I2
sS'fraught'
p6050
I1
sS'dinosaur'
p6051
I1
sS'toolbars'
p6052
I1
sS'nextwindow'
p6053
I3
sS'interconnectedness'
p6054
I1
sS'newly'
p6055
I2
sS'independence'
p6056
I1
sS'twose'
p6057
I2
sS'masterpiece'
p6058
I1
sS'formation'
p6059
I1
sS'wanted'
p6060
I20
sS'acrobat'
p6061
I1
sS'selwyn'
p6062
I1
sS'argument'
p6063
I8
sS'80211'
p6064
I1
sS'longterm'
p6065
I4
sS'priorities'
p6066
I1
sS'weightloss'
p6067
I1
sS'filter'
p6068
I2
sS'presumptive'
p6069
I1
sS'aspire'
p6070
I1
sS'appeals'
p6071
I2
sS'researcher'
p6072
I1
sS'encouraging'
p6073
I3
sS'hearing'
p6074
I6
sS'fantasy'
p6075
I1
sS'relations'
p6076
I1
sS'titled'
p6077
I1
sS'halens'
p6078
I1
sS'mercury'
p6079
I2
sS'fiction'
p6080
I4
sS'confirming'
p6081
I1
sS'flippant'
p6082
I1
sS'inconvenient'
p6083
I1
sS'urban'
p6084
I2
sS'ceiling'
p6085
I1
sS'illiterate'
p6086
I1
sS'signup'
p6087
I3
sS'serve'
p6088
I2
sS'negotiating'
p6089
I2
sS'adopter'
p6090
I4
sS'shortly'
p6091
I1
sS'abandoning'
p6092
I1
sS'nonpartisan'
p6093
I1
sS'classed'
p6094
I1
sS'roles'
p6095
I1
sS'haseven'
p6096
I1
sS'classes'
p6097
I2
sS"company's"
p6098
I5
sS'screenplay'
p6099
I4
sS'fashion'
p6100
I3
sS'telstraclears'
p6101
I1
sS'talking'
p6102
I10
sS'8220your'
p6103
I1
sS'betabloglinescom'
p6104
I2
sS'relatively'
p6105
I5
sS'thoroughly'
p6106
I1
sS'thorough'
p6107
I1
sS'investment'
p6108
I16
sS'oriented'
p6109
I1
sS'client'
p6110
I4
sS'laughed'
p6111
I1
sS'individualization'
p6112
I2
sS'effectiveness'
p6113
I3
sS'smartlinks'
p6114
I1
sS'kickstarting'
p6115
I1
sS'clunky'
p6116
I1
sS'memory'
p6117
I4
sS'evangelist'
p6118
I2
sS'i8217d'
p6119
I11
sS'i8217m'
p6120
I24
sS'defence'
p6121
I1
sS'innovate'
p6122
I1
sS'plenty'
p6123
I4
sS'mcdaid'
p6124
I2
sS'rogers'
p6125
I1
sS'reputation'
p6126
I3
sS'enterprise'
p6127
I20
sS'entertaining'
p6128
I1
sS'desktops'
p6129
I1
sS'contacted'
p6130
I7
sS'mishandling'
p6131
I1
sS"izadi's"
p6132
I1
sS'labels'
p6133
I6
sS'mediawiki'
p6134
I1
sS'abouta'
p6135
I1
sS'radio'
p6136
I19
sS'solutions'
p6137
I18
sS'earth'
p6138
I7
sS"'straight'"
p6139
I1
sS'chewed'
p6140
I1
sS'availability'
p6141
I2
sS'thursdayfriday'
p6142
I1
sS'quoted'
p6143
I6
sS'situations'
p6144
I2
sS'dvdburnable'
p6145
I1
sS'salience'
p6146
I1
sS'announce'
p6147
I4
sS'click8217'
p6148
I1
sS'borrowed'
p6149
I1
sS'watch'
p6150
I21
sS'criticized'
p6151
I1
sS'amazon'
p6152
I14
sS'despite'
p6153
I12
sS'report'
p6154
I13
sS'poutine'
p6155
I1
sS'gareth'
p6156
I1
sS'countries'
p6157
I9
sS'spokesperson'
p6158
I2
sS'twice'
p6159
I3
sS'shots'
p6160
I2
sS'automatic'
p6161
I4
sS'valid'
p6162
I1
sS'habit'
p6163
I2
sS'resist'
p6164
I1
sS'doctorow'
p6165
I1
sS'christophe'
p6166
I1
sS'implementer'
p6167
I1
sS'earthrace'
p6168
I9
sS'capacity'
p6169
I5
sS'goatsee'
p6170
I1
sS'temptation'
p6171
I1
sS'grandmother'
p6172
I1
sS'codeplex'
p6173
I1
sS'finger'
p6174
I6
sS'hopefully'
p6175
I4
sS'micropayment'
p6176
I3
sS'approach'
p6177
I12
sS'discovery'
p6178
I1
sS'adding'
p6179
I8
sS'however'
p6180
I32
sS'comparisions'
p6181
I1
sS'driver8217s'
p6182
I1
sS'censorship'
p6183
I1
sS'tcpip'
p6184
I1
sS'protect'
p6185
I3
sS'referral'
p6186
I1
sS'bloggers'
p6187
I18
sS'fault'
p6188
I3
sS'extracts'
p6189
I1
sS'participating'
p6190
I1
sS'nbspnbspnbsp'
p6191
I6
sS'games'
p6192
I14
sS'similarities'
p6193
I1
sS'us100'
p6194
I1
sS'variance'
p6195
I1
sS'expense'
p6196
I1
sS'exhibit'
p6197
I1
sS'tophatted'
p6198
I1
sS'livecycle'
p6199
I1
sS'viruses'
p6200
I1
sS'trust'
p6201
I5
sS'yoursquoll'
p6202
I2
sS'conference'
p6203
I25
sS'fullpriced'
p6204
I1
sS"networking'"
p6205
I1
sS'quickly'
p6206
I15
sS'confident'
p6207
I5
sS'spread'
p6208
I2
sS'schoolroom'
p6209
I1
sS'longawaited'
p6210
I1
sS'board'
p6211
I16
sS'anchors'
p6212
I1
sS'drugs'
p6213
I2
sS'enterprises'
p6214
I3
sS"'live"
p6215
I1
sS'craft'
p6216
I16
sS'catch'
p6217
I6
sS'snipe'
p6218
I1
sS'dashboard'
p6219
I1
sS"'news'"
p6220
I1
sS'cracked'
p6221
I4
sS'ultramobile'
p6222
I2
sS'twoway'
p6223
I1
sS'brewer'
p6224
I1
sS'oswego'
p6225
I2
sS'craftysynergy'
p6226
I1
sS'expenses'
p6227
I1
sS'experts'
p6228
I2
sS'stratasys'
p6229
I1
sS'casting'
p6230
I6
sS'containing'
p6231
I2
sS'wcdmaumtscdma'
p6232
I1
sS'suggest'
p6233
I3
sS'algorithmically'
p6234
I1
sS'biggs'
p6235
I1
sS'complex'
p6236
I1
sS'bands'
p6237
I7
sS'several'
p6238
I7
sS'nownbsp'
p6239
I2
sS'hamster'
p6240
I1
sS'satellite'
p6241
I7
sS'riffe'
p6242
I1
sS'welsh'
p6243
I5
sS'greeted'
p6244
I1
sS'suburb'
p6245
I1
sS'riffs'
p6246
I1
sS'portal'
p6247
I5
sS'characters'
p6248
I4
sS'groundbreaking'
p6249
I2
sS'cycle'
p6250
I1
sS'mentioning'
p6251
I1
sS'too8221'
p6252
I1
sS'prioritize'
p6253
I1
sS'ocean'
p6254
I2
sS'greatest'
p6255
I2
sS'webcasters'
p6256
I2
sS'outnumbered'
p6257
I1
sS'leagues'
p6258
I1
sS'bugger'
p6259
I1
sS'remoting'
p6260
I4
sS'proposed'
p6261
I3
sS'laptop'
p6262
I12
sS'aftermarket'
p6263
I2
sS'nzxlisted'
p6264
I1
sS'strenuously'
p6265
I1
sS'zealand8217s'
p6266
I2
sS'don8217t'
p6267
I16
sS'widgetsgadgets'
p6268
I1
sS'technological'
p6269
I3
sS'apart'
p6270
I2
sS'unisys'
p6271
I1
sS'actresses'
p6272
I1
sS'8220im'
p6273
I1
sS'advances'
p6274
I1
sS'8220if'
p6275
I1
sS'cultural'
p6276
I5
sS'judge'
p6277
I3
sS'advanced'
p6278
I7
sS'geekzonemail'
p6279
I6
sS'appearing'
p6280
I2
sS'meaningbased'
p6281
I1
sS'htmlformatted'
p6282
I1
sS'specific'
p6283
I8
sS'informative'
p6284
I3
sS'broadcaster'
p6285
I1
sS'offices'
p6286
I2
sS'officer'
p6287
I2
sS'unfortunatly'
p6288
I1
sS'envision'
p6289
I1
sS'butterfield'
p6290
I1
sS'successfully'
p6291
I7
sS'election'
p6292
I4
sS'specialities'
p6293
I1
sS'quotworldmodequot'
p6294
I1
sS'tradional'
p6295
I1
sS'cooper'
p6296
I2
sS'memos'
p6297
I1
sS'megabits'
p6298
I1
sS'deploy'
p6299
I1
sS'reinvest'
p6300
I1
sS'ubiquity'
p6301
I1
sS'everything'
p6302
I26
sS'exceptionsnbsp'
p6303
I1
sS'deleted'
p6304
I1
sS'discount'
p6305
I1
sS'meyer'
p6306
I1
sS'chapter'
p6307
I1
sS'census'
p6308
I5
sS'lightbox'
p6309
I1
sS'attacks'
p6310
I2
sS'dinner'
p6311
I1
sS'misleading'
p6312
I1
sS'ensure'
p6313
I8
sS"web's"
p6314
I4
sS'efforts'
p6315
I3
sS'primitive'
p6316
I1
sS'presence'
p6317
I4
sS'civil'
p6318
I1
sS'puzzle'
p6319
I2
sS"snap's"
p6320
I1
sS'entrepreneur'
p6321
I1
sS'existed'
p6322
I3
sS'moeller'
p6323
I1
sS'myasteriskconz'
p6324
I1
sS'transform'
p6325
I1
sS'stuck'
p6326
I2
sS'switchboards'
p6327
I1
sS'medium'
p6328
I22
sS'amateur'
p6329
I6
sS'icanns'
p6330
I2
sS'differences'
p6331
I2
sS'removes'
p6332
I1
sS'wireless'
p6333
I15
sS'solar'
p6334
I2
sS'removed'
p6335
I4
sS'gstring'
p6336
I1
sS'versions'
p6337
I7
sS'multifactor'
p6338
I1
sS'quicksilver'
p6339
I1
sS'simplifying'
p6340
I1
sS'obfuscation'
p6341
I1
sS"knight's"
p6342
I1
sS'olympicsgame'
p6343
I1
sS'knees'
p6344
I1
sS'devicelock'
p6345
I1
sS'sometime'
p6346
I5
sS'telecoms'
p6347
I12
sS'annoying'
p6348
I3
sS'check'
p6349
I33
sS'regime'
p6350
I2
sS'spendmatters'
p6351
I1
sS'techs'
p6352
I1
sS'daytoday'
p6353
I2
sS'mashup'
p6354
I1
sS'readonly'
p6355
I1
sS'luscious'
p6356
I1
sS'papers'
p6357
I3
sS'inboxes'
p6358
I2
sS'picture'
p6359
I5
sS'football'
p6360
I3
sS'miscellaneous'
p6361
I1
sS'econtent'
p6362
I1
sS'longer'
p6363
I11
sS'navel'
p6364
I1
sS'uncovered'
p6365
I1
sS'vietnam'
p6366
I1
sS'serious'
p6367
I9
sS'emailobsessed'
p6368
I1
sS'stacks'
p6369
I1
sS'companions'
p6370
I1
sS'remarkable'
p6371
I1
sS'affair'
p6372
I1
sS'brokerages'
p6373
I1
sS'particular'
p6374
I12
sS'alternatives'
p6375
I2
sS'focus'
p6376
I15
sS'mcbreen'
p6377
I1
sS'leads'
p6378
I2
sS'gazillion'
p6379
I1
sS'discern'
p6380
I2
sS'transiting'
p6381
I1
sS'inverse'
p6382
I1
sS'clarification'
p6383
I1
sS'passage'
p6384
I3
sS'environment'
p6385
I18
sS'charge'
p6386
I12
sS'promoting'
p6387
I2
sS'determinations'
p6388
I1
sS'discovering'
p6389
I1
sS'sitescheck'
p6390
I1
sS'advantage'
p6391
I12
sS'frequencies'
p6392
I1
sS'unfamiliar'
p6393
I1
sS'screenwriting'
p6394
I5
sS'tanks'
p6395
I1
sS'disinfecting'
p6396
I1
sS'emphasized'
p6397
I1
sS'vicky'
p6398
I1
sS'peertopeer'
p6399
I1
sS'beseiged'
p6400
I1
sS'impressive'
p6401
I3
sS'level'
p6402
I12
sS'philippines'
p6403
I1
sS'moutters'
p6404
I1
sS'posts'
p6405
I14
sS'standards'
p6406
I43
sS'eclair'
p6407
I1
sS'quick'
p6408
I11
sS'slower'
p6409
I3
sS'replicatednbspnbsp145'
p6410
I1
sS"quotit's"
p6411
I1
sS'obsolete'
p6412
I2
sS'trent'
p6413
I1
sS'stands'
p6414
I2
sS'debate'
p6415
I12
sS'reply'
p6416
I4
sS'scripted'
p6417
I1
sS'evolved'
p6418
I1
sS'timenbsp'
p6419
I4
sS'water'
p6420
I2
sS'attainment'
p6421
I1
sS'baseball'
p6422
I2
sS'twentieth'
p6423
I1
sS'groups'
p6424
I2
sS'crippled'
p6425
I3
sS'toolbar'
p6426
I3
sS'reformatting'
p6427
I1
sS'thirty'
p6428
I2
sS'healthy'
p6429
I1
sS'guilty'
p6430
I5
sS'proud'
p6431
I2
sS'rockiness'
p6432
I1
sS'descended'
p6433
I1
sS'christchurch'
p6434
I1
sS'weird'
p6435
I2
sS'emerge'
p6436
I1
sS'shelled'
p6437
I2
sS'soybeans'
p6438
I1
sS'tweak'
p6439
I3
sS'lifehacker'
p6440
I1
sS'chaired'
p6441
I1
sS'otherhand'
p6442
I1
sS'handled'
p6443
I3
sS'touchable'
p6444
I1
sS'ifilm'
p6445
I1
sS'athens'
p6446
I1
sS'properties'
p6447
I1
sS'custoday'
p6448
I1
sS'iphone'
p6449
I34
sS'criteria'
p6450
I2
sS'australian'
p6451
I8
sS'today'
p6452
I55
sS'unwarranted'
p6453
I1
sS'galleries'
p6454
I1
sS'sessions'
p6455
I1
sS'clicking'
p6456
I4
sS'altar'
p6457
I1
sS'swearing'
p6458
I1
sS'maximise'
p6459
I1
sS'offing'
p6460
I1
sS'cases'
p6461
I6
sS'insights'
p6462
I2
sS'formsranging'
p6463
I1
sS'thousands'
p6464
I6
sS'modified'
p6465
I1
sS'flagship'
p6466
I4
sS"gears'"
p6467
I1
sS'laughter'
p6468
I1
sS'rufus'
p6469
I1
sS'squeezebox'
p6470
I4
sS'figure'
p6471
I4
sS'geeks'
p6472
I4
sS'citycentric'
p6473
I1
sS'stroke'
p6474
I2
sS'reader8217s'
p6475
I1
sS'multilens'
p6476
I1
sS'counting'
p6477
I2
sS'swedish'
p6478
I2
sS'requirements'
p6479
I4
sS'secured'
p6480
I2
sS'vital'
p6481
I2
sS'fourth'
p6482
I3
sS'secures'
p6483
I1
sS'vodafone'
p6484
I22
sS'paramount'
p6485
I3
sS'httpmobilemyspacecom'
p6486
I1
sS'techniums'
p6487
I2
sS'impartial'
p6488
I1
sS'eighty'
p6489
I1
sS'mfgcom'
p6490
I1
sS'powerusers'
p6491
I1
sS'classroom'
p6492
I2
sS'branches'
p6493
I2
sS'succeeded'
p6494
I1
sS'optout'
p6495
I1
sS'yahooowned'
p6496
I1
sS"zeppelin'"
p6497
I1
sS'spec8217s'
p6498
I1
sS'inform'
p6499
I1
sS'presario'
p6500
I1
sS'lamented'
p6501
I1
sS'refund'
p6502
I1
sS'exclusive'
p6503
I4
sS'fringe'
p6504
I2
sS'susannah'
p6505
I1
sS'mainly'
p6506
I9
sS'tiaraorg'
p6507
I1
sS'blocked'
p6508
I2
sS'foldable'
p6509
I1
sS'procedures'
p6510
I1
sS'organisation'
p6511
I12
sS'coordinates'
p6512
I1
sS'platform'
p6513
I50
sS'offers'
p6514
I21
sS'wrapperformats'
p6515
I1
sS'holloway'
p6516
I1
sS'happened'
p6517
I4
sS'httpwwwyoutubecomwatchvplxtpraoef'
p6518
I1
sS'obtaining'
p6519
I2
sS'evolution'
p6520
I5
sS'underneath'
p6521
I1
sS'allrounder'
p6522
I1
sS'sophomore'
p6523
I1
sS'opera'
p6524
I12
sS'corners'
p6525
I2
sS'debating'
p6526
I1
sS'possibilities'
p6527
I2
sS'realistic'
p6528
I1
sS'individually'
p6529
I1
sS'populated'
p6530
I2
sS'xerorsquos'
p6531
I2
sS'catching'
p6532
I1
sS'begun'
p6533
I2
sS'distributor'
p6534
I3
sS'intended'
p6535
I1
sS'hacker'
p6536
I1
sS'ultimately'
p6537
I9
sS'nbspduring'
p6538
I1
sS'factors'
p6539
I2
sS'profit'
p6540
I5
sS'gsmevdo'
p6541
I2
sS"shouldn't"
p6542
I7
sS'notre'
p6543
I1
sS'fairs'
p6544
I1
sS'attendee'
p6545
I1
sS'attended'
p6546
I2
sS'karori'
p6547
I1
sS'theory'
p6548
I1
sS'greenwald'
p6549
I1
sS'boobs'
p6550
I1
sS'previews'
p6551
I1
sS'boobo'
p6552
I1
sS'octopz'
p6553
I2
sS'8220life8221'
p6554
I1
sS'webwalk'
p6555
I3
sS'teachers'
p6556
I2
sS'cornbased'
p6557
I1
sS'gusto'
p6558
I1
sS'ofexpert'
p6559
I1
sS'motion'
p6560
I2
sS'unpaid'
p6561
I1
sS'place'
p6562
I33
sS'infrastructural'
p6563
I1
sS'desktoponline'
p6564
I1
sS'revenue'
p6565
I18
sS'symbolic'
p6566
I1
sS"league's"
p6567
I1
sS'featurepacked'
p6568
I1
sS'simplified'
p6569
I1
sS'zupload'
p6570
I1
sS'array'
p6571
I1
sS'millions'
p6572
I3
sS'surveys'
p6573
I1
sS'necessarily'
p6574
I3
sS'xmltvnzexe'
p6575
I1
sS'europe'
p6576
I6
sS'plastic'
p6577
I2
sS'returns'
p6578
I1
sS'convention'
p6579
I1
sS'legally'
p6580
I1
sS'white'
p6581
I2
sS'live365'
p6582
I1
sS'frontrow'
p6583
I1
sS'exploring'
p6584
I5
sS'releases'
p6585
I2
sS'humans'
p6586
I3
sS"men's"
p6587
I1
sS'screwing'
p6588
I1
sS"networks'"
p6589
I5
sS'e6420'
p6590
I1
sS'operates'
p6591
I1
sS'population'
p6592
I5
sS'cnnmoneycom'
p6593
I1
sS'unfortunately'
p6594
I6
sS'require'
p6595
I3
sS'modelled'
p6596
I1
sS'computer'
p6597
I31
sS'cards'
p6598
I8
sS'outcome'
p6599
I3
sS'searchers'
p6600
I2
sS"'delete'"
p6601
I1
sS'trimet'
p6602
I1
sS'triathlon'
p6603
I1
sS'mates'
p6604
I4
sS'elearning'
p6605
I1
sS'sells'
p6606
I1
sS'prosperity'
p6607
I2
sS'ideas'
p6608
I10
sS'ideal'
p6609
I3
sS'animation'
p6610
I2
sS'responsibility'
p6611
I5
sS'paraphrase'
p6612
I1
sS'closer'
p6613
I3
sS'8220ponoksters8221'
p6614
I1
sS'multiple'
p6615
I13
sS'clearer'
p6616
I1
sS'visitors'
p6617
I5
sS'quotflat'
p6618
I2
sS'considered'
p6619
I2
sS'adopt'
p6620
I1
sS'lateseason'
p6621
I1
sS'senior'
p6622
I7
sS'quantity'
p6623
I1
sS'drastically'
p6624
I2
sS'decoder'
p6625
I1
sS'cheap'
p6626
I8
sS'grampians'
p6627
I1
sS'nonkey'
p6628
I1
sS'state'
p6629
I11
sS'examples'
p6630
I10
sS'explicitly'
p6631
I3
sS'believing'
p6632
I2
sS'tipping'
p6633
I2
sS'alarming'
p6634
I1
sS'20social'
p6635
I1
sS'zealanders'
p6636
I3
sS'uncles'
p6637
I1
sS'leatherback'
p6638
I1
sS'lighter'
p6639
I1
sS'installed'
p6640
I14
sS'cautionary'
p6641
I1
sS'reveal'
p6642
I3
sS'regarding'
p6643
I4
sS'clollapsed'
p6644
I1
sS'miniaturising'
p6645
I1
sS'naked'
p6646
I4
sS'world8217s'
p6647
I1
sS'predicted'
p6648
I1
sS'mapped'
p6649
I1
sS'discussing'
p6650
I4
sS'ignored'
p6651
I2
sS'variability'
p6652
I1
sS'encourages'
p6653
I2
sS'connections'
p6654
I8
sS'atomico'
p6655
I2
sS'commoncraft'
p6656
I1
sS'collects'
p6657
I1
sS'encouraged'
p6658
I2
sS'fails'
p6659
I2
sS'federal'
p6660
I1
sS'subsequent'
p6661
I1
sS'review'
p6662
I19
sS'outsourcing'
p6663
I1
sS'outside'
p6664
I14
sS'indexed'
p6665
I3
sS'rebuilds'
p6666
I1
sS'untrustworthy'
p6667
I1
sS'arrival'
p6668
I1
sS'rumours'
p6669
I1
sS'receivers'
p6670
I3
sS'uptodate'
p6671
I1
sS"myspace's"
p6672
I1
sS'cities'
p6673
I3
sS'reaction'
p6674
I6
sS'acquiring'
p6675
I2
sS'dario'
p6676
I1
sS'optimisation'
p6677
I1
sS'region'
p6678
I2
sS'quiet'
p6679
I1
sS'contract'
p6680
I1
sS'infoworld'
p6681
I1
sS'issueis'
p6682
I1
sS'columnist'
p6683
I2
sS'company8217s'
p6684
I1
sS'marwich'
p6685
I2
sS'mobilelike'
p6686
I1
sS'filtering'
p6687
I3
sS'fullfeatured'
p6688
I1
sS'color'
p6689
I2
sS'period'
p6690
I8
sS'insist'
p6691
I1
sS'approval'
p6692
I1
sS'endeavor'
p6693
I1
sS'subscribed'
p6694
I2
sS'howard'
p6695
I3
sS'filmmakers'
p6696
I1
sS'subscriber'
p6697
I3
sS'featuring'
p6698
I2
sS'hardly'
p6699
I1
sS'peaking'
p6700
I1
sS'direction'
p6701
I2
sS'minister'
p6702
I9
sS'careful'
p6703
I3
sS'blogposts'
p6704
I1
sS'protocols'
p6705
I1
sS'pilot'
p6706
I3
sS'paying'
p6707
I8
sS'hughes'
p6708
I2
sS'arnold'
p6709
I1
sS'coldfusion'
p6710
I1
sS'shops'
p6711
I2
sS'pwned'
p6712
I1
sS'coupled'
p6713
I2
sS'goojet'
p6714
I1
sS'telephone'
p6715
I12
sS'dissident'
p6716
I1
sS'findsounds'
p6717
I1
sS'clutter'
p6718
I1
sS'presentations'
p6719
I10
sS'ironic'
p6720
I1
sS'tshirt8221'
p6721
I1
sS'author'
p6722
I3
sS'granted'
p6723
I1
sS'reminded'
p6724
I2
sS'shifts'
p6725
I1
sS"laptop's"
p6726
I1
sS'china8217s'
p6727
I2
sS'manila'
p6728
I1
sS'reminder'
p6729
I1
sS'silliest'
p6730
I1
sS'events'
p6731
I5
sS'status'
p6732
I4
sS'booths'
p6733
I1
sS'screenshot'
p6734
I3
sS'disadvantages'
p6735
I1
sS'downloads'
p6736
I10
sS'driver'
p6737
I2
sS'radically'
p6738
I4
sS'driven'
p6739
I4
sS'persons'
p6740
I1
sS'drivel'
p6741
I2
sS'changing'
p6742
I6
sS'cartoon'
p6743
I2
sS'implements'
p6744
I1
sS'accordinglynbsp'
p6745
I1
sS'dying'
p6746
I1
sS'without'
p6747
I63
sS'relief'
p6748
I1
sS'inability'
p6749
I2
sS'model'
p6750
I23
sS'modem'
p6751
I5
sS'bodies'
p6752
I3
sS'justify'
p6753
I4
sS'captures'
p6754
I1
sS'guided'
p6755
I1
sS'actions'
p6756
I7
sS'differentiation'
p6757
I1
sS'colonise'
p6758
I1
sS'captured'
p6759
I3
sS'halfway'
p6760
I1
sS'announcement'
p6761
I10
sS"we've"
p6762
I7
sS'seems'
p6763
I39
sS'except'
p6764
I6
sS'setting'
p6765
I3
sS'association'
p6766
I6
sS'samples'
p6767
I1
sS'flashing'
p6768
I1
sS'scheduled'
p6769
I3
sS'inordinate'
p6770
I1
sS'virginia'
p6771
I1
sS'microsofties'
p6772
I1
sS'accepted'
p6773
I6
sS'silverlight'
p6774
I2
sS'photographs'
p6775
I1
sS'patrick'
p6776
I1
sS'buddies'
p6777
I1
sS'robson'
p6778
I1
sS'oddly'
p6779
I2
sS'quotlink'
p6780
I1
sS'tower'
p6781
I2
sS'collapsible'
p6782
I1
sS'pacific'
p6783
I11
sS'respect'
p6784
I1
sS'provided'
p6785
I12
sS'slice'
p6786
I4
sS'tracplustrade'
p6787
I1
sS'eleanor'
p6788
I1
sS'ported'
p6789
I1
sS'slick'
p6790
I4
sS'stops'
p6791
I1
sS'provides'
p6792
I22
sS'provider'
p6793
I10
sS'wwwauthoritcom'
p6794
I1
sS'googles'
p6795
I4
sS'boingboing'
p6796
I1
sS"editor's"
p6797
I2
sS'nails'
p6798
I2
sS'inspect'
p6799
I1
sS'communicate'
p6800
I4
sS'outreach'
p6801
I1
sS'pastors'
p6802
I1
sS'freedv'
p6803
I2
sS"carriers'"
p6804
I1
sS'ibook'
p6805
I1
sS'windowsbased'
p6806
I2
sS'discussed'
p6807
I3
sS"google'"
p6808
I1
sS'informing'
p6809
I1
sS'8220gearsenabled8221'
p6810
I1
sS'stand'
p6811
I5
sS'denigrated'
p6812
I1
sS'cunliffenbspchoosing'
p6813
I1
sS'clamp'
p6814
I1
sS'communication'
p6815
I16
sS'landlines'
p6816
I1
sS'accounts'
p6817
I8
sS'determine'
p6818
I3
sS'24000'
p6819
I1
sS'writely'
p6820
I1
sS'hournbsp'
p6821
I2
sS'ferrit'
p6822
I3
sS'highdefinition'
p6823
I1
sS'gartner'
p6824
I1
sS'illuminated'
p6825
I1
sS'wrapups'
p6826
I1
sS'amongst'
p6827
I5
sS'oppressing'
p6828
I1
sS'promote'
p6829
I7
sS'faster'
p6830
I16
sS'adamantium'
p6831
I1
sS'multiplicity'
p6832
I1
sS'goshamazing'
p6833
I1
sS'reusing'
p6834
I1
sS'strongly'
p6835
I1
sS'nbspnbsp322574400'
p6836
I1
sS'contributors'
p6837
I2
sS'britain'
p6838
I5
sS'asynchronous'
p6839
I2
sS"'deep'"
p6840
I1
sS'corresponding'
p6841
I1
sS'spends'
p6842
I2
sS'incorrect'
p6843
I2
sS'hasnt'
p6844
I1
sS'idiot'
p6845
I1
sS'deserve'
p6846
I2
sS'thinking8230'
p6847
I1
sS'rosen'
p6848
I1
sS'erecting'
p6849
I1
sS'searchengine'
p6850
I1
sS'telco'
p6851
I4
sS'announcements'
p6852
I2
sS'proliferate'
p6853
I1
sS'releasing'
p6854
I2
sS'collaborative'
p6855
I9
sS'separate'
p6856
I6
sS"yahoo's"
p6857
I2
sS'cordless'
p6858
I3
sS'included'
p6859
I8
sS'backward'
p6860
I1
sS'engineeringrsquo'
p6861
I1
sS'calls'
p6862
I19
sS'invest'
p6863
I6
sS'bloggers8217'
p6864
I1
sS'curve'
p6865
I2
sS'parsons'
p6866
I1
sS'websites'
p6867
I18
sS'multiinstrumentalist'
p6868
I1
sS'i8217ll'
p6869
I5
sS'directors'
p6870
I1
sS'ensuring'
p6871
I4
sS'directory'
p6872
I2
sS'tanned'
p6873
I1
sS'migrated'
p6874
I1
sS'chinese'
p6875
I5
sS'180kbits'
p6876
I1
sS'remedied'
p6877
I2
sS'hectors'
p6878
I3
sS'surgical'
p6879
I1
sS'follow'
p6880
I9
sS'buildersite'
p6881
I1
sS'decisions'
p6882
I3
sS'glimpse'
p6883
I1
sS'apartment'
p6884
I1
sS'provisions'
p6885
I1
sS'acting'
p6886
I1
sS'thursday'
p6887
I1
sS'removal'
p6888
I2
sS'program'
p6889
I19
sS'presentation'
p6890
I11
sS'activities'
p6891
I3
sS'global'
p6892
I19
sS'incorporate'
p6893
I1
sS'worse'
p6894
I3
sS'unregulated'
p6895
I1
sS'smartphones'
p6896
I3
sS'worst'
p6897
I4
sS'awful'
p6898
I1
sS'ticket'
p6899
I1
sS'adjective'
p6900
I1
sS'picasa'
p6901
I1
sS"nim's"
p6902
I1
sS'programme'
p6903
I5
sS'aptld'
p6904
I3
sS'employing'
p6905
I1
sS'translating'
p6906
I1
sS'design'
p6907
I22
sS'functioning'
p6908
I2
sS"kazaa's"
p6909
I1
sS'nonlinear'
p6910
I1
sS'imported'
p6911
I1
sS'103bees'
p6912
I2
sS'deeply'
p6913
I2
sS'adequateare'
p6914
I1
sS'brief'
p6915
I1
sS'quotrevolutionaryquot'
p6916
I1
sS'version'
p6917
I32
sS'reboots'
p6918
I1
sS'wwwcentruflowcom'
p6919
I1
sS'racing'
p6920
I2
sS'au47bn'
p6921
I1
sS'sunbathers'
p6922
I1
sS'christian'
p6923
I4
sS'theresa'
p6924
I1
sS'behaviour'
p6925
I2
sS'retraining'
p6926
I1
sS'relaxation'
p6927
I1
sS'directions'
p6928
I2
sS'observing'
p6929
I1
sS'vegasnbsp'
p6930
I1
sS'iphoto'
p6931
I1
sS'quotrendering'
p6932
I1
sS'allows'
p6933
I27
sS'terminals'
p6934
I1
sS'restructed'
p6935
I1
sS'identity'
p6936
I3
sS'options'
p6937
I9
sS'proxy'
p6938
I1
sS'alonenbsp'
p6939
I1
sS'suddenly'
p6940
I5
sS'demands'
p6941
I1
sS'screens'
p6942
I2
sS'texts'
p6943
I1
sS'proceed'
p6944
I1
sS'garnish'
p6945
I1
sS'markets'
p6946
I5
sS'minor'
p6947
I3
sS'israel'
p6948
I2
sS'knows'
p6949
I5
sS'definition'
p6950
I5
sS'operators'
p6951
I16
sS'basically'
p6952
I9
sS'20000'
p6953
I2
sS'known'
p6954
I8
sS'karajoz'
p6955
I5
sS'ridulously'
p6956
I1
sS'largescale'
p6957
I1
sS'debates'
p6958
I1
sS'apostolou'
p6959
I1
sS"xero's"
p6960
I7
sS'audiences'
p6961
I3
sS'finland'
p6962
I1
sS'airplane'
p6963
I2
sS'terrestrial'
p6964
I2
sS'court'
p6965
I1
sS'desperation'
p6966
I1
sS'rather'
p6967
I23
sS'breaking'
p6968
I3
sS'nonexecutive'
p6969
I1
sS'influences'
p6970
I1
sS'lowlevel'
p6971
I1
sS'explains'
p6972
I4
sS'onoff'
p6973
I1
sS'simplicity'
p6974
I4
sS'ubiquitous'
p6975
I2
sS'immobilisation'
p6976
I1
sS'reflect'
p6977
I4
sS'lighting'
p6978
I1
sS'adventure'
p6979
I1
sS'concerns'
p6980
I7
sS'proclaimed'
p6981
I1
sS'emergencies'
p6982
I1
sS'short'
p6983
I12
sS'susan'
p6984
I1
sS'shore'
p6985
I1
sS'rentals'
p6986
I1
sS'turnover'
p6987
I1
sS'oversimplifying'
p6988
I1
sS'september'
p6989
I13
sS'developed'
p6990
I8
sS"zealand's"
p6991
I2
sS'mission'
p6992
I5
sS'logan'
p6993
I1
sS'orthotics'
p6994
I1
sS'sinclair'
p6995
I1
sS'50000'
p6996
I4
sS'style'
p6997
I8
sS'inward'
p6998
I1
sS'prodigy'
p6999
I1
sS'parts'
p7000
I7
sS"'public"
p7001
I1
sS'stephen'
p7002
I1
sS'might'
p7003
I45
sS'somebody'
p7004
I1
sS'largest'
p7005
I7
sS'hunter'
p7006
I1
sS'framework'
p7007
I2
sS'botnet'
p7008
I4
sS'milestone'
p7009
I1
sS'communities'
p7010
I7
sS"customer's"
p7011
I1
sS'bigger'
p7012
I3
sS'instructions'
p7013
I1
sS'readwriteweb'
p7014
I18
sS'adsl2'
p7015
I1
sS'legend'
p7016
I1
sS'inherent'
p7017
I1
sS'personalizeable'
p7018
I1
sS'soundexchange'
p7019
I4
sS'weighs'
p7020
I1
sS'weight'
p7021
I4
sS'generation'
p7022
I10
sS'synchronises'
p7023
I1
sS'defacto'
p7024
I1
sS'pirated'
p7025
I1
sS'expect'
p7026
I17
sS'inflict'
p7027
I1
sS'personalization'
p7028
I5
sS'scratching'
p7029
I1
sS'organised'
p7030
I1
sS'synchronised'
p7031
I1
sS'realising'
p7032
I1
sS'wondered'
p7033
I1
sS'dailykos'
p7034
I1
sS'adhere'
p7035
I1
sS'health'
p7036
I1
sS'shipment'
p7037
I1
sS'paradise'
p7038
I2
sS'hailing'
p7039
I1
sS'fiber'
p7040
I2
sS'wisconsin'
p7041
I1
sS'javabased'
p7042
I1
sS'friday'
p7043
I4
sS'forgive'
p7044
I1
sS'experimenting'
p7045
I1
sS'macropayments'
p7046
I1
sS'organising'
p7047
I1
sS'teach'
p7048
I4
sS'generate'
p7049
I2
sS'guest'
p7050
I1
sS'blister'
p7051
I1
sS"year's"
p7052
I5
sS'circuit'
p7053
I3
sS'neopets'
p7054
I1
sS'standardscompliant'
p7055
I2
sS'throws'
p7056
I1
sS'trackpad'
p7057
I6
sS'froma'
p7058
I1
sS'internetnz'
p7059
I5
sS'vellum'
p7060
I2
sS'economyeconomic'
p7061
I1
sS'fancy'
p7062
I1
sS'linking'
p7063
I3
sS'tempts'
p7064
I1
sS'defects'
p7065
I1
sS'toronto8217s'
p7066
I1
sS'torontonians'
p7067
I1
sS'formattingnbsp'
p7068
I1
sS'temperature'
p7069
I1
sS'script'
p7070
I3
sS'leading'
p7071
I8
sS'edginess'
p7072
I1
sS'followup'
p7073
I1
sS'leash'
p7074
I1
sS'rails'
p7075
I3
sS'trend'
p7076
I3
sS'storm'
p7077
I2
sS'finances'
p7078
I1
sS'store'
p7079
I11
sS'mikael'
p7080
I1
sS'pains'
p7081
I1
sS'relieved'
p7082
I1
sS'luckily'
p7083
I1
sS'convinced'
p7084
I1
sS'albeit'
p7085
I3
sS'taurangabased'
p7086
I1
sS'double'
p7087
I7
sS"japan's"
p7088
I1
sS'pound750'
p7089
I1
sS"soloway's"
p7090
I2
sS'illegaly'
p7091
I1
sS'dslam'
p7092
I1
sS'risky'
p7093
I1
sS'cleaner'
p7094
I2
sS'motivation'
p7095
I1
sS'suspicious'
p7096
I1
sS'alike'
p7097
I1
sS'608217s'
p7098
I1
sS'hopelessly'
p7099
I1
sS'secretariat'
p7100
I1
sS'insurmountable'
p7101
I1
sS'middlemen'
p7102
I1
sS'finding'
p7103
I2
sS'hutchison'
p7104
I1
sS'added'
p7105
I14
sS'msnconz'
p7106
I1
sS"user's"
p7107
I2
sS'reach'
p7108
I3
sS'architects'
p7109
I1
sS'react'
p7110
I1
sS'nothing'
p7111
I13
sS'grams'
p7112
I1
sS'windows'
p7113
I113
sS'highpitched'
p7114
I1
sS'sarahgummerxerocom'
p7115
I1
sS'traditional'
p7116
I17
sS'coincided'
p7117
I1
sS'institutions'
p7118
I1
sS'lying'
p7119
I1
sS'pizzazz'
p7120
I1
sS'vaunted'
p7121
I1
sS'230000'
p7122
I1
sS'reassembles'
p7123
I1
sS'rebooting'
p7124
I1
sS'catone'
p7125
I3
sS'airtime'
p7126
I1
sS'viagra'
p7127
I1
sS'founding'
p7128
I1
sS'gliffy'
p7129
I1
sS'fastest'
p7130
I1
sS'relational'
p7131
I1
sS'critically'
p7132
I1
sS'emails'
p7133
I17
sS'compiler'
p7134
I1
sS'sansdrm'
p7135
I1
sS'activity'
p7136
I8
sS'sustainable'
p7137
I2
sS'baroque'
p7138
I1
sS'wrote'
p7139
I23
sS'technium'
p7140
I7
sS'achieved'
p7141
I1
sS'intelligence'
p7142
I1
sS'chambers'
p7143
I1
sS'declined'
p7144
I1
sS'billboard8217s'
p7145
I2
sS'learnt'
p7146
I1
sS'nailed'
p7147
I1
sS'formatted'
p7148
I1
sS'ichat'
p7149
I1
sS'various'
p7150
I10
sS"'real"
p7151
I1
sS'swansea'
p7152
I2
sS'numerous'
p7153
I4
sS'cancelling'
p7154
I2
sS'recently'
p7155
I21
sS'creating'
p7156
I13
sS'initially'
p7157
I5
sS'attention'
p7158
I32
sS'outfit'
p7159
I3
sS'succeed'
p7160
I3
sS'importers'
p7161
I2
sS'franchise'
p7162
I1
sS"days'"
p7163
I1
sS'bieringa'
p7164
I1
sS'seamlessly'
p7165
I1
sS'hesitant'
p7166
I1
sS'better8221'
p7167
I1
sS'virginianew'
p7168
I1
sS'finda'
p7169
I5
sS'became'
p7170
I3
sS'context'
p7171
I4
sS'selfgovernance'
p7172
I1
sS'finds'
p7173
I1
sS'rfping'
p7174
I1
sS'reside'
p7175
I1
sS'networkquot'
p7176
I1
sS'distress'
p7177
I1
sS'reasons'
p7178
I12
sS'meanderings'
p7179
I1
sS'decline'
p7180
I2
sS'enhancements'
p7181
I1
sS'quotrock'
p7182
I1
sS'political'
p7183
I8
sS'strategy'
p7184
I16
sS'backends'
p7185
I2
sS'refrigeration'
p7186
I1
sS'it8217ll'
p7187
I6
sS'600nbspnbspkeep'
p7188
I1
sS'beforehand'
p7189
I2
sS'blogsearch'
p7190
I1
sS'demand'
p7191
I9
sS'they8217re'
p7192
I3
sS'stolen'
p7193
I1
sS'noticeable'
p7194
I1
sS'frozen'
p7195
I1
sS'evaluated'
p7196
I1
sS"milk's"
p7197
I1
sS'tweaking'
p7198
I1
sS'behavior'
p7199
I6
sS'engineers'
p7200
I2
sS'ribbonlike'
p7201
I1
sS'twiddle'
p7202
I1
sS'show20'
p7203
I1
sS'dublin'
p7204
I1
sS"program's"
p7205
I1
sS'ethnicity'
p7206
I1
sS'panasonic'
p7207
I1
sS'lengthy'
p7208
I1
sS'shirt'
p7209
I3
sS'minister8217s'
p7210
I1
sS"evan's"
p7211
I1
sS'nonmainstream'
p7212
I1
sS'orientated'
p7213
I1
sS'peoples'
p7214
I1
sS'esteemed'
p7215
I2
sS'pangolins'
p7216
I1
sS'spears'
p7217
I1
sS'higher'
p7218
I3
sS'arrives'
p7219
I1
sS'cartridge'
p7220
I2
sS'negotiate'
p7221
I1
sS'holidays'
p7222
I1
sS'usually'
p7223
I11
sS'oncenbsp'
p7224
I1
sS'arrived'
p7225
I7
sS'bartlett'
p7226
I1
sS'robust'
p7227
I2
sS'knack'
p7228
I1
sS'lower'
p7229
I1
sS'depending'
p7230
I4
sS'analysis'
p7231
I9
sS"xtra's"
p7232
I1
sS'communicated'
p7233
I1
sS'businessoriented'
p7234
I1
sS'mlbcom'
p7235
I1
sS'plotted'
p7236
I1
sS'centruflow'
p7237
I2
sS'breastfeeding'
p7238
I1
sS'unseen'
p7239
I1
sS'competitive'
p7240
I1
sS'questions'
p7241
I14
sS'retired'
p7242
I2
sS'prince'
p7243
I1
sS'profitable'
p7244
I4
sS'tables'
p7245
I1
sS'illusions'
p7246
I1
sS'tablet'
p7247
I3
sS'workers'
p7248
I3
sS'exclusively'
p7249
I1
sS'corroborates'
p7250
I1
sS'exhibition'
p7251
I1
sS'violations'
p7252
I1
sS'compensation'
p7253
I2
sS'ramped'
p7254
I1
sS'complaint'
p7255
I1
sS'vendor'
p7256
I7
sS'amended'
p7257
I4
sS'advocate'
p7258
I1
sS'unlimited'
p7259
I3
sS'aggregation'
p7260
I3
sS'flowcharting'
p7261
I2
sS'lowbrow'
p7262
I1
sS'oddpost'
p7263
I1
sS'skeptical'
p7264
I1
sS'modifications'
p7265
I1
sS'admittedly'
p7266
I3
sS'phpwiki'
p7267
I1
sS'shapes'
p7268
I1
sS'collect'
p7269
I1
sS'essential'
p7270
I5
sS'coddington'
p7271
I2
sS'streaming'
p7272
I6
sS'jimmie'
p7273
I1
sS'fileparts'
p7274
I1
sS'sharpcast'
p7275
I2
sS'seller'
p7276
I1
sS'defined'
p7277
I1
sS'tends'
p7278
I1
sS'accelerando'
p7279
I1
sS'payments'
p7280
I1
sS'mancx8217s'
p7281
I1
sS'hornyfoxxx'
p7282
I1
sS'jumps'
p7283
I2
sS'kelsey'
p7284
I1
sS'refused'
p7285
I2
sS'zombie'
p7286
I1
sS'vbulletin'
p7287
I1
sS'gsmwcdma'
p7288
I2
sS'refuses'
p7289
I1
sS'intense'
p7290
I2
sS'russell'
p7291
I2
sS'tothepoint'
p7292
I1
sS'entrepreneurs'
p7293
I6
sS'surfers'
p7294
I1
sS"'full"
p7295
I1
sS'range'
p7296
I11
sS'comcom'
p7297
I2
sS'purists'
p7298
I1
sS'wanna'
p7299
I1
sS'gamma'
p7300
I1
sS'fabhome'
p7301
I1
sS'opticsplanetcom'
p7302
I1
sS'johnr'
p7303
I1
sS'wwwitelematiccom'
p7304
I1
sS'sports'
p7305
I19
sS'bezel'
p7306
I1
sS'stitches'
p7307
I1
sS'canal'
p7308
I1
sS'impressed'
p7309
I6
sS'playbackquot'
p7310
I1
sS'question'
p7311
I15
sS'streetlevel'
p7312
I1
sS'vendors'
p7313
I4
sS'preordered'
p7314
I1
sS"we're"
p7315
I9
sS'analyze'
p7316
I1
sS'sections'
p7317
I1
sS'authored'
p7318
I1
sS'files'
p7319
I19
sS'buyout'
p7320
I2
sS'thinkature'
p7321
I2
sS'deployer'
p7322
I1
sS'bradbury'
p7323
I1
sS'storyboarding'
p7324
I3
sS'filed'
p7325
I2
sS'raising'
p7326
I1
sS'penguin'
p7327
I2
sS'angels'
p7328
I3
sS'caller'
p7329
I1
sS"hasn't"
p7330
I3
sS'barring'
p7331
I1
sS"'reorder'"
p7332
I1
sS'highlight'
p7333
I4
sS'hardtoread'
p7334
I1
sS'strands'
p7335
I1
sS'called'
p7336
I21
sS'30boxes'
p7337
I1
sS'associated'
p7338
I1
sS'worthwhile'
p7339
I2
sS'stick'
p7340
I8
sS'shortcuts'
p7341
I13
sS'exepct'
p7342
I1
sS'warning'
p7343
I5
sS"hanchard's"
p7344
I1
sS'grouper'
p7345
I1
sS'300am'
p7346
I2
sS'malicious'
p7347
I2
sS'backs'
p7348
I2
sS'usednbsp6'
p7349
I1
sS'outputs'
p7350
I1
sS"'online"
p7351
I9
sS'users'
p7352
I98
sS'backbone'
p7353
I1
sS'problems'
p7354
I25
sS'helping'
p7355
I10
sS'generated'
p7356
I7
sS'allowing'
p7357
I6
sS'weigh'
p7358
I1
sS'chocolate'
p7359
I1
sS'rightful'
p7360
I1
sS'overlay'
p7361
I1
sS'remit'
p7362
I1
sS'weights'
p7363
I1
sS'scroll'
p7364
I3
sS"rules'"
p7365
I1
sS'issued'
p7366
I3
sS'products8211ones'
p7367
I1
sS'alien'
p7368
I1
sS'technorati'
p7369
I3
sS'nematodes'
p7370
I1
sS'contributions'
p7371
I1
sS'issues'
p7372
I24
sS'simon'
p7373
I1
sS'mindjet'
p7374
I5
sS'languages'
p7375
I4
sS'stable'
p7376
I8
sS'include'
p7377
I13
sS'sniper'
p7378
I1
sS'family'
p7379
I10
sS'confirmation'
p7380
I2
sS'mainstream'
p7381
I6
sS'organizations'
p7382
I2
sS'shoppingcom'
p7383
I2
sS'pacinet'
p7384
I2
sS'wishes'
p7385
I1
sS'wegotservedcouk'
p7386
I1
sS'skaters'
p7387
I2
sS'drinking'
p7388
I1
sS'hansberry'
p7389
I2
sS'witricity'
p7390
I2
sS'notes'
p7391
I10
sS'deals'
p7392
I2
sS"week's"
p7393
I5
sS'congrats'
p7394
I1
sS'polling'
p7395
I1
sS'relation'
p7396
I3
sS'noted'
p7397
I6
sS'concluded'
p7398
I2
sS'limitations'
p7399
I1
sS'smaller'
p7400
I6
sS"you'd"
p7401
I6
sS'goodies'
p7402
I2
sS'traveling'
p7403
I2
sS'concludes'
p7404
I1
sS'gatekeepers'
p7405
I1
sS'growers'
p7406
I1
sS'makers'
p7407
I3
sS'para8217s'
p7408
I1
sS'medieval'
p7409
I1
sS'eveningnbsp'
p7410
I1
sS'compaq'
p7411
I2
sS'showcase'
p7412
I1
sS'concessions'
p7413
I1
sS'victoriafitchtelecomconz'
p7414
I1
sS'mac8217s'
p7415
I1
sS'capital'
p7416
I7
sS'modded'
p7417
I1
sS'chose'
p7418
I6
sS'degree'
p7419
I4
sS'pushing'
p7420
I3
sS'slated'
p7421
I1
sS'desired'
p7422
I1
sS'explore'
p7423
I9
sS'separation'
p7424
I1
sS'settling'
p7425
I1
sS'metro'
p7426
I1
sS'larger'
p7427
I4
sS'leaving'
p7428
I7
sS'suggests'
p7429
I3
sS'submerged'
p7430
I1
sS'usability'
p7431
I2
sS'ratequot'
p7432
I2
sS'apple'
p7433
I40
sS'scales'
p7434
I2
sS'egypt'
p7435
I1
sS'confession'
p7436
I1
sS'webmail'
p7437
I2
sS'deployed'
p7438
I2
sS'motor'
p7439
I1
sS'columnists'
p7440
I1
sS'apply'
p7441
I4
sS'boasts'
p7442
I1
sS'folksong'
p7443
I1
sS'netware'
p7444
I1
sS'consumption'
p7445
I3
sS'doodle'
p7446
I1
sS'covington'
p7447
I1
sS'expanding'
p7448
I3
sS'escience'
p7449
I1
sS'clever'
p7450
I2
sS'journalists'
p7451
I6
sS'inclined'
p7452
I1
sS'impress'
p7453
I1
sS'steadfastly'
p7454
I1
sS'penis'
p7455
I1
sS'women'
p7456
I2
sS'supremacy'
p7457
I1
sS'stabilized'
p7458
I1
sS"bird's"
p7459
I1
sS'ourfavescom'
p7460
I1
sS'disaggregation'
p7461
I1
sS'8220can'
p7462
I1
sS'hookup'
p7463
I1
sS'anywhere'
p7464
I3
sS'backstagecom'
p7465
I1
sS'dropped'
p7466
I6
sS'proprietary'
p7467
I2
sS'gizmodo'
p7468
I2
sS'patron'
p7469
I1
sS'something'
p7470
I59
sS'nationwide'
p7471
I2
sS'united'
p7472
I3
sS'overlicensing'
p7473
I1
sS'traders'
p7474
I1
sS'brian'
p7475
I3
sS'justifiably'
p7476
I2
sS'instead'
p7477
I18
sS'ninemillionorg'
p7478
I2
sS'cupboard'
p7479
I1
sS'attend'
p7480
I3
sS'seamonkey'
p7481
I1
sS'oneclick'
p7482
I1
sS'masks'
p7483
I1
sS'abuse'
p7484
I1
sS"babys'"
p7485
I1
sS'urges'
p7486
I2
sS'light'
p7487
I10
sS'takeaway'
p7488
I1
sS'multiplexer'
p7489
I1
sS'gershenfeld'
p7490
I1
sS'rusted'
p7491
I1
sS'beauties'
p7492
I1
sS'thisquot'
p7493
I1
sS'whilst'
p7494
I5
sS'looks'
p7495
I22
sS'badges'
p7496
I1
sS'lounge'
p7497
I2
sS'ships'
p7498
I1
sS'choose'
p7499
I11
sS"mcdaid's"
p7500
I2
sS'covered'
p7501
I8
sS'holiday'
p7502
I3
sS'defining'
p7503
I2
sS'techcrunch'
p7504
I4
sS'campaigned'
p7505
I1
sS'crash'
p7506
I3
sS'material'
p7507
I5
sS'guess'
p7508
I7
sS'invitations'
p7509
I2
sS'ferguson'
p7510
I2
sS'ambition'
p7511
I1
sS'thunderbird'
p7512
I1
sS'213ghz'
p7513
I1
sS'republican'
p7514
I1
sS'successor'
p7515
I1
sS'articles'
p7516
I3
sS'transmitter'
p7517
I1
sS'clippings'
p7518
I1
sS'measly'
p7519
I1
sS'profound'
p7520
I1
sS'subcontinent'
p7521
I1
sS'mashups'
p7522
I1
sS'craftsters'
p7523
I2
sS'studios'
p7524
I2
sS'related'
p7525
I9
sS'doubled'
p7526
I1
sS'quotmobilisequot'
p7527
I1
sS'relates'
p7528
I1
sS'category'
p7529
I14
sS'respects'
p7530
I1
sS'fckeditor'
p7531
I1
sS'blues'
p7532
I1
sS'marketability'
p7533
I1
sS'chaos'
p7534
I1
sS'seesmic'
p7535
I1
sS'kilobits'
p7536
I1
sS'woodhouse'
p7537
I2
sS'telemarketers'
p7538
I1
sS'exporting'
p7539
I1
sS'supports'
p7540
I6
sS'integrated'
p7541
I7
sS'daestra'
p7542
I2
sS'disclose'
p7543
I1
sS'businesswomenartistscraftswomen'
p7544
I1
sS'nowdecommissioned'
p7545
I1
sS'feasible'
p7546
I1
sS'conversation'
p7547
I4
sS'soljacics'
p7548
I1
sS'separatenbspsql'
p7549
I1
sS'adrian'
p7550
I1
sS'hence'
p7551
I1
sS'biting'
p7552
I1
sS'alldigital'
p7553
I1
sS'plainly'
p7554
I1
sS'ballandchain'
p7555
I1
sS'proposing'
p7556
I1
sS'straight'
p7557
I5
sS'publication'
p7558
I3
sS'unwashed'
p7559
I1
sS'unknown'
p7560
I2
sS'myspace'
p7561
I21
sS'accent'
p7562
I1
sS'compatibility'
p7563
I7
sS'priority'
p7564
I4
sS"enough'"
p7565
I1
sS'photoshopped'
p7566
I1
sS'agility'
p7567
I2
sS'shell'
p7568
I1
sS'shelf'
p7569
I1
sS'update'
p7570
I27
sS'shallow'
p7571
I1
sS'havequot'
p7572
I1
sS'regards'
p7573
I2
sS'7digit'
p7574
I1
sS'lsquoblogfatherrsquo'
p7575
I1
sS'quantitative'
p7576
I2
sS'boring'
p7577
I6
sS'aolowned'
p7578
I1
sS'richer'
p7579
I2
sS'telecommuting'
p7580
I2
sS"bebo's"
p7581
I1
sS'squealing'
p7582
I1
sS'mtanjt'
p7583
I1
sS'linked'
p7584
I5
sS'afraid'
p7585
I1
sS'angle'
p7586
I1
sS'agency'
p7587
I6
sS'speculation'
p7588
I3
sS'iswas'
p7589
I1
sS'8501900'
p7590
I1
sS'synchronising'
p7591
I2
sS'25000'
p7592
I1
sS'twittering'
p7593
I1
sS'petrol'
p7594
I1
sS'collaboration'
p7595
I4
sS'2blossomcom'
p7596
I1
sS'ooxml'
p7597
I2
sS"'ninemillion'"
p7598
I1
sS'accountants'
p7599
I7
sS'cracking'
p7600
I1
sS'determinationsunbundled'
p7601
I1
sS'class'
p7602
I4
sS'administrators'
p7603
I3
sS'refreshing'
p7604
I1
sS'nonfunctional'
p7605
I1
sS'inanimanely'
p7606
I1
sS'looked'
p7607
I6
sS'diagnostics'
p7608
I1
sS'xavier'
p7609
I1
sS'ensued'
p7610
I1
sS'imagining'
p7611
I1
sS'tariq'
p7612
I1
sS'chances'
p7613
I1
sS'agreed'
p7614
I4
sS'chapters'
p7615
I3
sS'unnotified'
p7616
I1
sS'longevity'
p7617
I1
sS'purely'
p7618
I3
sS'planning'
p7619
I9
sS'nbspthe'
p7620
I1
sS'utter'
p7621
I1
sS'chicken'
p7622
I1
sS'agrees'
p7623
I2
sS'litigation'
p7624
I1
sS'manufacturersrsquo'
p7625
I1
sS'operational'
p7626
I2
sS'holistis'
p7627
I1
sS'herald'
p7628
I18
sS'local'
p7629
I39
sS'nz8217ers'
p7630
I1
sS'watching'
p7631
I3
sS'midnight'
p7632
I2
sS'interoperability'
p7633
I3
sS'words'
p7634
I4
sS'bluray'
p7635
I6
sS'penetrate'
p7636
I1
sS'he8217ll'
p7637
I1
sS'wordy'
p7638
I1
sS'leapfile'
p7639
I1
sS'quotclassicquot'
p7640
I1
sS'ended'
p7641
I6
sS'handspring'
p7642
I1
sS'queries'
p7643
I5
sS'generations'
p7644
I4
sS'knowing'
p7645
I2
sS'inventive'
p7646
I1
sS'acquired'
p7647
I11
sS'merits'
p7648
I1
sS'massindividualisation'
p7649
I1
sS'gmail'
p7650
I16
sS'more8230'
p7651
I1
sS'televised'
p7652
I1
sS'biofuel'
p7653
I1
sS'arguably'
p7654
I1
sS"altsearchengine's"
p7655
I1
sS'superb'
p7656
I2
sS'genius'
p7657
I2
sS'fifties'
p7658
I1
sS'closed'
p7659
I1
sS'stories'
p7660
I16
sS'frustrated'
p7661
I4
sS'speed'
p7662
I7
sS'bought'
p7663
I24
sS'publishers'
p7664
I1
sS'addin'
p7665
I2
sS'opening'
p7666
I7
sS'takeover'
p7667
I1
sS'hypothesis'
p7668
I1
sS'declining'
p7669
I1
sS'commands'
p7670
I1
sS'soapbox'
p7671
I1
sS'profanity'
p7672
I1
sS'budgeting'
p7673
I1
sS'incident'
p7674
I1
sS'postpaid'
p7675
I1
sS'april'
p7676
I5
sS'diehard'
p7677
I1
sS'utilising'
p7678
I1
sS'auctions'
p7679
I5
sS'safely'
p7680
I1
sS'microcomputer'
p7681
I1
sS'unclear'
p7682
I2
sS'packaging'
p7683
I2
sS'subscribe'
p7684
I4
sS'suboptimal'
p7685
I1
sS'table'
p7686
I1
sS'mindomo'
p7687
I1
sS'decent'
p7688
I7
sS'charts'
p7689
I4
sS'responds'
p7690
I1
sS'mobitv'
p7691
I1
sS'verizon'
p7692
I4
sS'painted'
p7693
I1
sS'sufficient'
p7694
I2
sS'nominations'
p7695
I2
sS'spammer'
p7696
I7
sS'cryptic'
p7697
I1
sS"'master"
p7698
I1
sS'soong'
p7699
I1
sS'tangible'
p7700
I1
sS'crossplatform'
p7701
I1
sS'present'
p7702
I6
sS'mlbtv'
p7703
I3
sS'abandoned'
p7704
I2
sS'unlike'
p7705
I4
sS'technica'
p7706
I1
sS'wellingtonista'
p7707
I1
sS'choices'
p7708
I3
sS'stunning'
p7709
I1
sS'cubey'
p7710
I1
sS'booting'
p7711
I1
sS'longerthanintended'
p7712
I1
sS'layer'
p7713
I3
sS'malls'
p7714
I1
sS'lightweight'
p7715
I5
sS"ministries'"
p7716
I1
sS'outselling'
p7717
I1
sS'perhaps'
p7718
I15
sS'cross'
p7719
I4
sS'member'
p7720
I6
sS'geographical'
p7721
I2
sS'conversations'
p7722
I4
sS'tivo8217s'
p7723
I1
sS'schill'
p7724
I1
sS'difficult'
p7725
I17
sS'cellphones'
p7726
I1
sS'lifekeys'
p7727
I1
sS'slave'
p7728
I4
sS'promo'
p7729
I1
sS'premiere'
p7730
I1
sS'disagree'
p7731
I1
sS'openoffice'
p7732
I1
sS'refineries'
p7733
I1
sS'8220read'
p7734
I1
sS'lobby'
p7735
I1
sS'warming'
p7736
I3
sS'realises'
p7737
I1
sS'english'
p7738
I10
sS'firstly'
p7739
I3
sS'contenders'
p7740
I2
sS'cameo'
p7741
I1
sS'postcapital'
p7742
I1
sS'rocket'
p7743
I4
sS'additon'
p7744
I1
sS'obtain'
p7745
I1
sS'influencers'
p7746
I2
sS'cries'
p7747
I1
sS'batteries'
p7748
I1
sS'fishing'
p7749
I2
sS'263002006'
p7750
I1
sS'smite'
p7751
I1
sS'penchant'
p7752
I1
sS'console'
p7753
I2
sS'quotmainspowered'
p7754
I1
sS'supply'
p7755
I6
sS'capabilities'
p7756
I6
sS'googling'
p7757
I1
sS'adoption'
p7758
I4
sS'attractive'
p7759
I5
sS'usage'
p7760
I3
sS'identical'
p7761
I1
sS'greenbrookheld'
p7762
I1
sS'draganddrop'
p7763
I1
sS'quotmagicquot'
p7764
I1
sS'usercontributed'
p7765
I1
sS"who's"
p7766
I6
sS'siemens'
p7767
I1
sS'facial'
p7768
I1
sS"w3counter's"
p7769
I1
sS'press'
p7770
I19
sS'redesign'
p7771
I2
sS'variants'
p7772
I1
sS'showing'
p7773
I7
sS'helpful'
p7774
I4
sS'eyeslices'
p7775
I1
sS'loser'
p7776
I1
sS'loses'
p7777
I3
sS'formalityquot'
p7778
I1
sS'january'
p7779
I1
sS'starred'
p7780
I1
sS'because'
p7781
I86
sS'smoothly'
p7782
I1
sS'journalismcoukinformation'
p7783
I1
sS'searching'
p7784
I2
sS'tumblr'
p7785
I2
sS'platforms'
p7786
I6
sS'growth'
p7787
I14
sS'export'
p7788
I2
sS'empire'
p7789
I1
sS'employment'
p7790
I2
sS'quotsniperquot'
p7791
I1
sS'jeremy'
p7792
I1
sS'synchronize'
p7793
I1
sS'leader'
p7794
I3
sS'locate'
p7795
I2
sS'mcalister'
p7796
I2
sS'asinine'
p7797
I1
sS'ezboard'
p7798
I1
sS'paste'
p7799
I1
sS'200am'
p7800
I1
sS'perspectives'
p7801
I1
sS'wwwsimtrixconz'
p7802
I1
sS'carried'
p7803
I1
sS'extension'
p7804
I4
sS'getting'
p7805
I41
sS'column'
p7806
I2
sS'universe'
p7807
I6
sS'dependence'
p7808
I1
sS'shipping'
p7809
I3
sS'lizards'
p7810
I1
sS'cheif'
p7811
I1
sS'carrier'
p7812
I2
sS'sighting'
p7813
I1
sS"christian's"
p7814
I1
sS'unbelievers'
p7815
I1
sS'circumnavigation'
p7816
I2
sS'warranty'
p7817
I4
sS'polished'
p7818
I2
sS'singaporersquos'
p7819
I1
sS'crossbrowser'
p7820
I1
sS'promise'
p7821
I4
sS'brush'
p7822
I1
sS'registration'
p7823
I4
sS'fired'
p7824
I1
sS'empowers'
p7825
I2
sS'intention'
p7826
I2
sS'80211g'
p7827
I1
sS'appointing'
p7828
I1
sS'redmond'
p7829
I1
sS'volume'
p7830
I6
sS'automated'
p7831
I3
sS'tactics'
p7832
I3
sS'whether'
p7833
I16
sS'record'
p7834
I14
sS'below'
p7835
I27
sS'iterated'
p7836
I1
sS'wwwhudsoncom'
p7837
I1
sS'8220looking'
p7838
I1
sS'datavix'
p7839
I1
sS'intimidating'
p7840
I1
sS'webpronews'
p7841
I1
sS'webpages'
p7842
I2
sS'flameouts'
p7843
I1
sS'brownstones'
p7844
I1
sS'incredible'
p7845
I2
sS'ccmail'
p7846
I1
sS'memeorandum'
p7847
I1
sS'percent'
p7848
I1
sS'portion'
p7849
I2
sS'monitors'
p7850
I1
sS'other'
p7851
I160
sS'branch'
p7852
I2
sS'backwards'
p7853
I4
sS'incredibly'
p7854
I1
sS'clicks'
p7855
I4
sS'conclusion'
p7856
I10
sS'lance'
p7857
I3
sS'illegally'
p7858
I1
sS'giger'
p7859
I1
sS'kinds'
p7860
I3
sS'iwork'
p7861
I1
sS'squeak'
p7862
I1
sS"operators'"
p7863
I1
sS'disclosure'
p7864
I2
sS'debian'
p7865
I1
sS'gpurelated'
p7866
I1
sS"recommendation's"
p7867
I1
sS'jewel'
p7868
I1
sS'coincidentally'
p7869
I1
sS'volumes'
p7870
I1
sS'expands'
p7871
I1
s.